
al_alAuxEffectSlot.o:
00000000 a @feat.00
         U EAXVerbCreate
         U EchoCreate
         U GetContextSuspended
         U InsertUIntMapEntry
         U LookupUIntMapKey
         U ModulatorCreate
000001d0 T NoneCreate
00000ab0 t NoneDestroy
00000ac0 t NoneDeviceUpdate
00000ae0 t NoneProcess
00000ad0 t NoneUpdate
         U ProcessContext
00000af0 T ReleaseALAuxiliaryEffectSlots
         U RemoveUIntMapKey
         U VerbCreate
         U __imp_IsBadWritePtr
000006b0 T alAuxiliaryEffectSlotf
00000750 T alAuxiliaryEffectSlotfv
00000370 T alAuxiliaryEffectSloti
00000630 T alAuxiliaryEffectSlotiv
00000220 T alDeleteAuxiliaryEffectSlots
00000000 T alGenAuxiliaryEffectSlots
00000980 T alGetAuxiliaryEffectSlotf
00000a00 T alGetAuxiliaryEffectSlotfv
00000830 T alGetAuxiliaryEffectSloti
000008b0 T alGetAuxiliaryEffectSlotiv
00000330 T alIsAuxiliaryEffectSlot
         U alSetError
         U alThunkAddEntry
         U alThunkRemoveEntry
         U calloc
         U free
         U memcpy
         U memset

al_alBuffer.o:
00000000 a @feat.00
00000b80 T BytesFromFmt
000010a0 T BytesFromUserFmt
00000b60 T ChannelsFromFmt
000034a0 T ChannelsFromUserFmt
000010c0 t ConvertData
00000ba0 t ConvertDataIMA4
00003670 t DecodeIMA4Block
000034c0 T DecomposeFormat
000003f0 T DecomposeUserFormat
000030f0 t FrameSizeFromFmt
         U GetContextSuspended
000005d0 r IMA4Codeword
00000780 r IMA4Index_adjust
00000610 r IMAStep_size
         U InsertUIntMapEntry
00000600 t LoadData
         U LookupUIntMapKey
         U ProcessContext
00003600 T ReleaseALBuffers
         U RemoveUIntMapKey
         U __imp_IsBadWritePtr
         U __imp__assert
00002e70 T alBuffer3f
00002fa0 T alBuffer3i
00000260 T alBufferData
00000940 T alBufferSubDataSOFT
00002e10 T alBufferf
00002ed0 T alBufferfv
00002f40 T alBufferi
00003000 T alBufferiv
00000100 T alDeleteBuffers
00000000 T alGenBuffers
000031a0 T alGetBuffer3f
00003370 T alGetBuffer3i
00003130 T alGetBufferf
00003230 T alGetBufferfv
000032a0 T alGetBufferi
00003400 T alGetBufferiv
00000210 T alIsBuffer
         U alSetError
         U alThunkAddEntry
         U alThunkRemoveEntry
         U calloc
         U free
000003d0 r muLawDecompressionTable
         U realloc

al_ALc.o:
00000000 R .refptr.DefaultResampler
00000000 R .refptr.DisabledEffects
00000000 a @feat.00
00000720 T AppendAllDeviceList
000007c0 T AppendCaptureDeviceList
00000680 T AppendDeviceList
00000000 d BackendList
00000c10 T BytesFromDevFmt
00000c30 T ChannelsFromDevFmt
         U ConfigValueExists
00000c50 T DecomposeDevFormat
         U DefaultResampler
         U DisabledEffects
         U FreeALConfig
         U GetConfigValue
         U GetConfigValueBool
         U GetConfigValueFloat
         U GetConfigValueInt
00000df0 T GetContextSuspended
00000070 b GlobalContext
00000980 T InitUIntMap
000009b0 T InsertUIntMapEntry
00000030 b LocalContext
00000000 b LogFile
00000ba0 T LookupUIntMapKey
00000de0 T ProcessContext
00000034 b RTPrioLevel
         U ReadALConfig
         U ReleaseALAuxiliaryEffectSlots
         U ReleaseALBuffers
         U ReleaseALDatabuffers
         U ReleaseALEffects
         U ReleaseALFilters
         U ReleaseALSources
00000ae0 T RemoveUIntMapKey
00000990 T ResetUIntMap
00003470 T SetDefaultChannelOrder
000035b0 T SetDefaultWFXChannelOrder
00000930 T SetRTPriority
00000dd0 T SuspendContext
         U __imp_DeleteCriticalSection
         U __imp_EnterCriticalSection
         U __imp_GetCurrentThread
         U __imp_InitializeCriticalSection
         U __imp_LeaveCriticalSection
         U __imp_SetThreadPriority
         U __imp_TlsAlloc
         U __imp_TlsFree
         U __imp_TlsGetValue
         U __imp_TlsSetValue
         U __imp___acrt_iob_func
         U __imp__stricmp
         U __imp__strnicmp
         U __imp_isspace
         U alAuxiliaryEffectSlotf
         U alAuxiliaryEffectSlotfv
         U alAuxiliaryEffectSloti
         U alAuxiliaryEffectSlotiv
         U alBuffer3f
         U alBuffer3i
         U alBufferData
         U alBufferSubDataSOFT
         U alBufferf
         U alBufferfv
         U alBufferi
         U alBufferiv
         U alDeleteAuxiliaryEffectSlots
         U alDeleteBuffers
         U alDeleteEffects
         U alDeleteFilters
         U alDeleteSources
         U alDisable
         U alDistanceModel
         U alDopplerFactor
         U alDopplerVelocity
         U alEffectf
         U alEffectfv
         U alEffecti
         U alEffectiv
         U alEnable
00001c40 r alExtList
         U alFilterf
         U alFilterfv
         U alFilteri
         U alFilteriv
         U alGenAuxiliaryEffectSlots
         U alGenBuffers
         U alGenEffects
         U alGenFilters
         U alGenSources
         U alGetAuxiliaryEffectSlotf
         U alGetAuxiliaryEffectSlotfv
         U alGetAuxiliaryEffectSloti
         U alGetAuxiliaryEffectSlotiv
         U alGetBoolean
         U alGetBooleanv
         U alGetBuffer3f
         U alGetBuffer3i
         U alGetBufferf
         U alGetBufferfv
         U alGetBufferi
         U alGetBufferiv
         U alGetDouble
         U alGetDoublev
         U alGetEffectf
         U alGetEffectfv
         U alGetEffecti
         U alGetEffectiv
         U alGetEnumValue
         U alGetError
         U alGetFilterf
         U alGetFilterfv
         U alGetFilteri
         U alGetFilteriv
         U alGetFloat
         U alGetFloatv
         U alGetInteger
         U alGetIntegerv
         U alGetListener3f
         U alGetListener3i
         U alGetListenerf
         U alGetListenerfv
         U alGetListeneri
         U alGetListeneriv
         U alGetProcAddress
         U alGetSource3f
         U alGetSource3i
         U alGetSourcef
         U alGetSourcefv
         U alGetSourcei
         U alGetSourceiv
         U alGetString
         U alIsAuxiliaryEffectSlot
         U alIsBuffer
         U alIsEffect
         U alIsEnabled
         U alIsExtensionPresent
         U alIsFilter
         U alIsSource
         U alListener3f
         U alListener3i
         U alListenerf
         U alListenerfv
         U alListeneri
         U alListeneriv
         U alSource3f
         U alSource3i
         U alSourcePause
         U alSourcePausev
         U alSourcePlay
         U alSourcePlayv
         U alSourceQueueBuffers
         U alSourceRewind
         U alSourceRewindv
         U alSourceStop
         U alSourceStopv
         U alSourceUnqueueBuffers
         U alSourcef
         U alSourcefv
         U alSourcei
         U alSourceiv
         U alSpeedOfSound
         U alThunkExit
         U alThunkInit
00000860 T al_print
00000048 b alcAllDeviceList
00000050 b alcAllDeviceListSize
00001150 T alcCaptureCloseDevice
00000098 b alcCaptureDefaultDeviceSpecifier
00000058 b alcCaptureDeviceList
00000060 b alcCaptureDeviceListSize
00000eb0 T alcCaptureOpenDevice
00001420 T alcCaptureSamples
00001270 T alcCaptureStart
00001350 T alcCaptureStop
00003ba0 T alcCloseDevice
00002880 T alcCreateContext
         U alcDSoundDeinit
         U alcDSoundInit
         U alcDSoundProbe
00000090 b alcDefaultAllDeviceSpecifier
00000088 b alcDefaultDeviceSpecifier
00002fc0 T alcDestroyContext
00000038 b alcDeviceList
00000040 b alcDeviceListSize
000006b0 r alcErrInvalidContext
00000696 r alcErrInvalidDevice
0000067b r alcErrInvalidEnum
00000688 r alcErrInvalidValue
000006c0 r alcErrOutOfMemory
000006d0 r alcExtensionList
000007b0 r alcFunctions
00003270 T alcGetContextsDevice
000031a0 T alcGetCurrentContext
00002410 T alcGetEnumValue
00001520 T alcGetError
00001c50 T alcGetIntegerv
00002340 T alcGetProcAddress
00001670 T alcGetString
000031d0 T alcGetThreadContext
000021f0 T alcIsExtensionPresent
00003310 T alcMakeContextCurrent
00000750 r alcNoDeviceExtList
00000672 r alcNoError
000036e0 T alcOpenDevice
00001600 T alcProcessContext
00000d70 T alcSetError
000033c0 T alcSetThreadContext
00001590 T alcSuspendContext
         U alcWinMMDeinit
         U alcWinMMInit
         U alcWinMMProbe
00000510 t alc_deinit
00000000 t alc_init
         U alc_null_deinit
         U alc_null_init
         U alc_null_probe
         U alc_wave_deinit
         U alc_wave_init
         U alc_wave_probe
         U aluHandleDisconnect
         U aluInitPanning
         U bs2b_clear
         U bs2b_set_level
         U bs2b_set_srate
         U calloc
00000fd0 r enumeration
         U fclose
         U fflush
         U fopen
         U fprintf
         U fputs
         U free
00000008 b g_csMutex
00000068 b g_eLastNullDeviceError
000000a0 b g_pContextList
00000078 b g_pDeviceList
000000a8 b g_ulContextCount
00000080 b g_ulDeviceCount
         U getenv
         U malloc
         U memcpy
         U memmove
         U realloc
         U snprintf
         U strchr
         U strcmp
         U strdup
         U strlen
         U strncmp
         U strrchr
         U vsnprintf

al_alcConfig.o:
00000000 a @feat.00
00000770 T ConfigValueExists
000005b0 T FreeALConfig
00000680 T GetConfigValue
00000ad0 T GetConfigValueBool
000009a0 T GetConfigValueFloat
00000870 T GetConfigValueInt
000000f0 t LoadConfigFromFile
00000000 T ReadALConfig
         U __imp_SHGetSpecialFolderPathA
         U __imp__stricmp
         U __imp_isspace
         U al_print
         U atoi
00000010 b buffer
         U calloc
00000000 b cfgBlocks
00000008 b cfgCount
         U fclose
         U fgets
         U fopen
         U free
         U getenv
         U memmove
         U realloc
         U snprintf
         U strdup
         U strlen
         U strtof
         U strtol

al_alcEcho.o:
00000000 a @feat.00
00000000 T EchoCreate
00000060 t EchoDestroy
00000090 t EchoDeviceUpdate
00000380 t EchoProcess
00000200 t EchoUpdate
         U cos
         U free
         U malloc
         U memset
         U realloc
         U sqrtf

al_alcModulator.o:
00000000 a @feat.00
00000000 T ModulatorCreate
00000060 t ModulatorDestroy
00000070 t ModulatorDeviceUpdate
000001f0 t ModulatorProcess
00000130 t ModulatorUpdate
         U cos
         U free
         U malloc
         U sin
         U sqrtf

al_alcReverb.o:
00000000 a @feat.00
00001e70 t AllocLines
00000b70 T EAXVerbCreate
00000db0 t EAXVerbDeviceUpdate
000017e0 t EAXVerbProcess
00000e90 t EAXVerbUpdate
00002ec0 t LateReverb
00002630 t UpdateLateLines
00000000 T VerbCreate
00000240 t VerbDestroy
00000270 t VerbDeviceUpdate
000007b0 t VerbProcess
000003d0 t VerbUpdate
         U aluCart2LUTpos
         U cos
         U free
         U log10
         U malloc
         U memset
         U powf
         U realloc
         U sin
         U sqrtf

al_alcRing.o:
00000000 a @feat.00
00000000 T CreateRingBuffer
00000060 T DestroyRingBuffer
00000190 T ReadRingBuffer
000000a0 T RingBufferSize
000000e0 T WriteRingBuffer
         U __imp_DeleteCriticalSection
         U __imp_EnterCriticalSection
         U __imp_InitializeCriticalSection
         U __imp_LeaveCriticalSection
         U calloc
         U free
         U malloc
         U memcpy

al_alcThread.o:
00000000 a @feat.00
00000000 T StartThread
00000070 t StarterFunc
00000090 T StopThread
         U __imp_CloseHandle
         U __imp_CreateThread
         U __imp_ExitThread
         U __imp_GetExitCodeThread
         U __imp_WaitForSingleObject
         U free
         U malloc

al_alDatabuffer.o:
00000000 a @feat.00
         U GetContextSuspended
         U InsertUIntMapEntry
         U LookupUIntMapKey
         U ProcessContext
00000a40 T ReleaseALDatabuffers
         U RemoveUIntMapKey
         U __imp_IsBadWritePtr
000002a0 T alDatabufferDataEXT
00000380 T alDatabufferSubDataEXT
000004e0 T alDatabufferfEXT
00000540 T alDatabufferfvEXT
000005a0 T alDatabufferiEXT
00000600 T alDatabufferivEXT
00000110 T alDeleteDatabuffersEXT
00000000 T alGenDatabuffersEXT
00000430 T alGetDatabufferSubDataEXT
00000660 T alGetDatabufferfEXT
000006d0 T alGetDatabufferfvEXT
00000740 T alGetDatabufferiEXT
000007d0 T alGetDatabufferivEXT
00000250 T alIsDatabufferEXT
00000920 T alMapDatabufferEXT
000008a0 T alSelectDatabufferEXT
         U alSetError
         U alThunkAddEntry
         U alThunkRemoveEntry
000009d0 T alUnmapDatabufferEXT
         U calloc
         U free
         U memcpy
         U realloc

al_alEffect.o:
00000000 a @feat.00
00000000 B DisabledEffects
         U GetContextSuspended
         U InsertUIntMapEntry
         U LookupUIntMapKey
         U ProcessContext
00001130 T ReleaseALEffects
         U RemoveUIntMapKey
         U __imp_IsBadWritePtr
00000110 T alDeleteEffects
00000440 T alEffectf
00000a50 T alEffectfv
00000250 T alEffecti
00000960 T alEffectiv
00000000 T alGenEffects
00000de0 T alGetEffectf
00001020 T alGetEffectfv
00000bf0 T alGetEffecti
00000cd0 T alGetEffectiv
00000200 T alIsEffect
         U alSetError
         U alThunkAddEntry
         U alThunkRemoveEntry
         U calloc
         U free

al_alError.o:
00000000 a @feat.00
         U GetContextSuspended
         U ProcessContext
00000000 T alGetError
00000030 T alSetError

al_alExtension.o:
00000000 a @feat.00
         U GetContextSuspended
         U ProcessContext
         U __imp__strnicmp
         U __imp_isspace
00000110 T alGetEnumValue
000000f0 T alGetProcAddress
00000000 T alIsExtensionPresent
         U alSetError
         U alcGetProcAddress
00000000 r enumeration
         U strchr
         U strcmp
         U strlen

al_alFilter.o:
00000000 a @feat.00
         U GetContextSuspended
         U InsertUIntMapEntry
         U LookupUIntMapKey
         U ProcessContext
00000740 T ReleaseALFilters
         U RemoveUIntMapKey
         U __imp_IsBadWritePtr
00000130 T alDeleteFilters
000003d0 T alFilterf
00000490 T alFilterfv
00000270 T alFilteri
00000300 T alFilteriv
00000000 T alGenFilters
00000640 T alGetFilterf
000006d0 T alGetFilterfv
00000500 T alGetFilteri
00000580 T alGetFilteriv
00000220 T alIsFilter
         U alSetError
         U alThunkAddEntry
         U alThunkRemoveEntry
         U calloc
         U free

al_alListener.o:
00000000 a @feat.00
         U GetContextSuspended
         U ProcessContext
000009c0 T alGetListener3f
00000bc0 T alGetListener3i
00000940 T alGetListenerf
00000a80 T alGetListenerfv
00000b80 T alGetListeneri
00000c70 T alGetListeneriv
00000140 T alListener3f
00000670 T alListener3i
00000000 T alListenerf
00000280 T alListenerfv
00000630 T alListeneri
000007d0 T alListeneriv
         U alSetError

al_alSource.o:
00000000 a @feat.00
000007b0 t ApplyOffset
         U BytesFromFmt
         U BytesFromUserFmt
         U CalcNonAttnSourceParams
         U CalcSourceParams
         U ChannelsFromFmt
         U ChannelsFromUserFmt
00000000 B DefaultResampler
         U GetContextSuspended
000013c0 t GetSourceOffset
         U InsertUIntMapEntry
         U LookupUIntMapKey
         U ProcessContext
00002690 T ReleaseALSources
         U RemoveUIntMapKey
00000338 R ResamplerPadding
00000344 R ResamplerPrePadding
         U __imp_IsBadWritePtr
00000220 T alDeleteSources
00000000 T alGenSources
00001630 T alGetSource3f
00001a70 T alGetSource3i
000011e0 T alGetSourcef
00001740 T alGetSourcefv
00001870 T alGetSourcei
00001b70 T alGetSourceiv
00000420 T alIsSource
         U alSetError
00000970 T alSource3f
00000ee0 T alSource3i
00001f30 T alSourcePause
00001fa0 T alSourcePausev
00001cb0 T alSourcePlay
00001cd0 T alSourcePlayv
00002340 T alSourceQueueBuffers
00002210 T alSourceRewind
00002230 T alSourceRewindv
00002090 T alSourceStop
00002110 T alSourceStopv
00002580 T alSourceUnqueueBuffers
00000460 T alSourcef
00000a70 T alSourcefv
00000bd0 T alSourcei
000010e0 T alSourceiv
         U alThunkAddEntry
         U alThunkLookupEntry
         U alThunkRemoveEntry
         U calloc
         U free
         U malloc
         U realloc

al_alState.o:
00000000 a @feat.00
         U GetContextSuspended
         U ProcessContext
00000100 T alDisable
00000bd0 T alDistanceModel
000008a0 T alDopplerFactor
000009b0 T alDopplerVelocity
00000000 T alEnable
00000082 r alErrInvalidEnum
00000075 r alErrInvalidName
000000a0 r alErrInvalidOp
0000008f r alErrInvalidValue
000000b2 r alErrOutOfMemory
00000250 T alGetBoolean
000004f0 T alGetBooleanv
00000300 T alGetDouble
000005a0 T alGetDoublev
000003a0 T alGetFloat
00000640 T alGetFloatv
00000440 T alGetInteger
000006f0 T alGetIntegerv
000007c0 T alGetString
00000200 T alIsEnabled
0000006c r alNoError
00000060 r alRenderer
         U alSetError
00000ac0 T alSpeedOfSound
00000030 r alVendor
00000050 r alVersion

al_alThunk.o:
00000000 a @feat.00
         U __imp_DeleteCriticalSection
         U __imp_EnterCriticalSection
         U __imp_InitializeCriticalSection
         U __imp_LeaveCriticalSection
00000080 T alThunkAddEntry
00000040 T alThunkExit
00000000 T alThunkInit
000001d0 T alThunkLookupEntry
00000180 T alThunkRemoveEntry
         U al_print
         U calloc
         U free
00000030 b g_ThunkArray
00000028 b g_ThunkArraySize
00000000 b g_ThunkLock
         U memset
         U realloc

al_ALu.o:
00000000 R .refptr.ResamplerPadding
00000000 R .refptr.ResamplerPrePadding
00000000 a @feat.00
         U BytesFromFmt
00000000 T CalcNonAttnSourceParams
000005d0 T CalcSourceParams
         U ChannelsFromFmt
         U MixSource
         U ProcessContext
         U ResamplerPadding
         U ResamplerPrePadding
         U SuspendContext
         U acosf
         U aluCart2LUTpos
00015aa0 T aluHandleDisconnect
00001aa0 T aluMixData
         U bs2b_cross_feed
         U cos
         U fegetround
         U fesetround
         U memset
         U powf
         U sqrtf

al_alutBufferData.o:
00000000 a @feat.00
00000000 T _alutBufferDataConstruct
00000050 T _alutBufferDataDestroy
00000090 T _alutBufferDataDetachData
00000080 T _alutBufferDataGetData
000000a0 T _alutBufferDataGetLength
000000b0 T _alutBufferDataGetSampleFrequency
         U _alutFormatConstruct
000000c0 T _alutGetFormat
         U _alutMalloc
00000100 T _alutPassBufferData
         U _alutSetError
         U alBufferData
         U alGenBuffers
         U alGetError
         U free

al_alutCodec.o:
00000000 a @feat.00
         U _alutBufferDataConstruct
00000240 T _alutCodecALaw
00000000 T _alutCodecLinear
000000e0 T _alutCodecPCM16
00000010 T _alutCodecPCM8s
00000180 T _alutCodecULaw
         U _alutMalloc
         U free
00000010 r mulaw2linear.exp_lut

al_alutError.o:
00000000 a @feat.00
         U __imp___acrt_iob_func
00000000 T _alutSetError
00000200 T alutGetError
00000140 T alutGetErrorString
         U fprintf
         U getenv
00000000 b lastError

al_alutInit.o:
00000000 a @feat.00
00000000 T _alutSanityCheck
         U _alutSetError
         U alGetError
         U alcCloseDevice
         U alcCreateContext
         U alcDestroyContext
         U alcGetContextsDevice
         U alcGetCurrentContext
         U alcGetError
         U alcMakeContextCurrent
         U alcOpenDevice
00000008 b alutContext
00000170 T alutExit
00000070 T alutInit
00000120 T alutInitWithoutContext
00000000 b initialisationState

al_alutInputStream.o:
00000000 a @feat.00
         U __imp__stat64
00000000 T _alutInputStreamConstructFromFile
000000b0 T _alutInputStreamConstructFromMemory
000000f0 T _alutInputStreamDestroy
00000160 T _alutInputStreamEOF
00000140 T _alutInputStreamGetFileName
00000150 T _alutInputStreamGetRemainingLength
000001b0 T _alutInputStreamRead
00000390 T _alutInputStreamReadInt32BE
00000300 T _alutInputStreamReadUInt16LE
00000450 T _alutInputStreamReadUInt32LE
00000250 T _alutInputStreamSkip
         U _alutMalloc
         U _alutSetError
         U fclose
         U ferror
         U fgetc
         U fopen
         U fread
         U free
         U memcpy
         U strcpy
         U strlen
         U ungetc

al_alutLoader.o:
00000000 a @feat.00
         U __imp_isupper
         U __imp_tolower
         U _alutBufferDataDestroy
         U _alutBufferDataDetachData
         U _alutBufferDataGetData
         U _alutBufferDataGetLength
         U _alutBufferDataGetSampleFrequency
         U _alutCodecALaw
         U _alutCodecLinear
         U _alutCodecPCM16
         U _alutCodecPCM8s
         U _alutCodecULaw
00000000 T _alutCreateBufferFromInputStream
         U _alutGetFormat
         U _alutInputStreamConstructFromFile
         U _alutInputStreamConstructFromMemory
         U _alutInputStreamDestroy
         U _alutInputStreamEOF
         U _alutInputStreamGetFileName
         U _alutInputStreamGetRemainingLength
         U _alutInputStreamRead
         U _alutInputStreamReadInt32BE
         U _alutInputStreamReadUInt16LE
         U _alutInputStreamReadUInt32LE
         U _alutInputStreamSkip
00000650 T _alutLoadMemoryFromInputStream
         U _alutPassBufferData
         U _alutSanityCheck
         U _alutSetError
00000590 T alutCreateBufferFromFile
000005f0 T alutCreateBufferFromFileImage
00000870 T alutGetMIMETypes
000006f0 T alutLoadMemoryFromFile
00000740 T alutLoadMemoryFromFileImage
000007a0 T alutLoadWAVFile
00000800 T alutLoadWAVMemory
00000860 T alutUnloadWAV
         U free
00000050 t loadFile

al_alutOutputStream.o:
00000000 a @feat.00
         U _alutMalloc
00000000 T _alutOutputStreamConstruct
00000050 T _alutOutputStreamDestroy
00000070 T _alutOutputStreamGetData
00000080 T _alutOutputStreamGetLength
00000090 T _alutOutputStreamWriteInt16BE
000000d0 T _alutOutputStreamWriteInt32BE
         U _alutSetError
         U free

al_alutUtil.o:
00000000 a @feat.00
         U __imp_Sleep
000000c0 T _alutFormatConstruct
00000130 T _alutFormatGetBitsPerSample
00000110 T _alutFormatGetNumChannels
00000080 T _alutMalloc
         U _alutSetError
00000000 T alutSleep
         U malloc

al_alutVersion.o:
00000000 a @feat.00
00000000 T alutGetMajorVersion
00000010 T alutGetMinorVersion

al_alutWaveform.o:
00000000 a @feat.00
         U _alutCreateBufferFromInputStream
         U _alutInputStreamConstructFromMemory
         U _alutLoadMemoryFromInputStream
         U _alutOutputStreamConstruct
         U _alutOutputStreamDestroy
         U _alutOutputStreamGetData
         U _alutOutputStreamGetLength
         U _alutOutputStreamWriteInt16BE
         U _alutOutputStreamWriteInt32BE
         U _alutSanityCheck
         U _alutSetError
00000440 T alutCreateBufferHelloWorld
00000350 T alutCreateBufferWaveform
000003f0 T alutLoadMemoryHelloWorld
00000000 T alutLoadMemoryWaveform
         U floor
000000c0 t generateWaveform
00000000 d helloWorldSample
         U rand
         U sin
00000530 t waveformImpulse
000004c0 t waveformSawtooth
00000480 t waveformSine
000004a0 t waveformSquare
000004e0 t waveformWhitenoise

al_bs2b.o:
00000000 a @feat.00
000002d0 T bs2b_clear
00000470 T bs2b_cross_feed
00000160 T bs2b_get_level
000002c0 T bs2b_get_srate
000002e0 T bs2b_is_clear
00000000 T bs2b_set_level
00000170 T bs2b_set_srate
         U exp

al_dsound.o:
00000000 R .refptr.GUID_NULL
00000000 a @feat.00
00000000 R ALL_POWERSCHEMES_GUID
         U AppendAllDeviceList
         U AppendDeviceList
         U BytesFromDevFmt
00000000 R CLSID_DOMDocument
00000000 R CLSID_DOMFreeThreadedDocument
00000000 R CLSID_DirectSound
00000000 R CLSID_DirectSound8
00000000 R CLSID_DirectSoundCapture
00000000 R CLSID_DirectSoundCapture8
00000000 R CLSID_DirectSoundFullDuplex
00000000 R CLSID_XMLDSOControl
00000000 R CLSID_XMLDocument
00000000 R CLSID_XMLHTTPRequest
         U ChannelsFromDevFmt
         U ConfigValueExists
00000000 R DIID_XMLDOMDocumentEvents
00000000 R DS3DALG_HRTF_FULL
00000000 R DS3DALG_HRTF_LIGHT
00000000 R DS3DALG_NO_VIRTUALIZATION
00000000 R DSDEVID_DefaultCapture
00000000 R DSDEVID_DefaultPlayback
00000000 R DSDEVID_DefaultVoiceCapture
00000000 R DSDEVID_DefaultVoicePlayback
00000680 t DSoundAvailableSamples
00000670 t DSoundCaptureSamples
00000640 t DSoundCloseCapture
000002b0 t DSoundClosePlayback
00000860 t DSoundEnumDevices
00000000 D DSoundFuncs
00000000 T DSoundLoad
00000630 t DSoundOpenCapture
00000100 t DSoundOpenPlayback
000009e0 t DSoundProc
000002f0 t DSoundResetPlayback
00000650 t DSoundStartCapture
00000660 t DSoundStopCapture
000005d0 t DSoundStopPlayback
00000020 b DeviceList
00000000 R GUID_ACDC_POWER_SOURCE
00000000 R GUID_ACTIVE_POWERSCHEME
00000000 R GUID_ADAPTIVE_POWER_BEHAVIOR_SUBGROUP
00000000 R GUID_ALLOW_AWAYMODE
00000000 R GUID_ALLOW_DISPLAY_REQUIRED
00000000 R GUID_ALLOW_RTC_WAKE
00000000 R GUID_ALLOW_STANDBY_STATES
00000000 R GUID_ALLOW_SYSTEM_REQUIRED
00000000 R GUID_APPLAUNCH_BUTTON
00000000 R GUID_All_Objects
00000000 R GUID_BACKGROUND_TASK_NOTIFICATION
00000000 R GUID_BATTERY_DISCHARGE_ACTION_0
00000000 R GUID_BATTERY_DISCHARGE_ACTION_1
00000000 R GUID_BATTERY_DISCHARGE_ACTION_2
00000000 R GUID_BATTERY_DISCHARGE_ACTION_3
00000000 R GUID_BATTERY_DISCHARGE_FLAGS_0
00000000 R GUID_BATTERY_DISCHARGE_FLAGS_1
00000000 R GUID_BATTERY_DISCHARGE_FLAGS_2
00000000 R GUID_BATTERY_DISCHARGE_FLAGS_3
00000000 R GUID_BATTERY_DISCHARGE_LEVEL_0
00000000 R GUID_BATTERY_DISCHARGE_LEVEL_1
00000000 R GUID_BATTERY_DISCHARGE_LEVEL_2
00000000 R GUID_BATTERY_DISCHARGE_LEVEL_3
00000000 R GUID_BATTERY_PERCENTAGE_REMAINING
00000000 R GUID_BATTERY_SUBGROUP
00000000 R GUID_CONSOLE_DISPLAY_STATE
00000000 R GUID_CRITICAL_POWER_TRANSITION
00000000 R GUID_DEVICE_IDLE_POLICY
00000000 R GUID_DEVICE_POWER_POLICY_VIDEO_BRIGHTNESS
00000000 R GUID_DEVICE_POWER_POLICY_VIDEO_DIM_BRIGHTNESS
00000000 R GUID_DEVINTERFACE_CDCHANGER
00000000 R GUID_DEVINTERFACE_CDROM
00000000 R GUID_DEVINTERFACE_COMPORT
00000000 R GUID_DEVINTERFACE_DISK
00000000 R GUID_DEVINTERFACE_FLOPPY
00000000 R GUID_DEVINTERFACE_HIDDEN_VOLUME
00000000 R GUID_DEVINTERFACE_MEDIUMCHANGER
00000000 R GUID_DEVINTERFACE_PARTITION
00000000 R GUID_DEVINTERFACE_SCM_PHYSICAL_DEVICE
00000000 R GUID_DEVINTERFACE_SERENUM_BUS_ENUMERATOR
00000000 R GUID_DEVINTERFACE_SERVICE_VOLUME
00000000 R GUID_DEVINTERFACE_SES
00000000 R GUID_DEVINTERFACE_STORAGEPORT
00000000 R GUID_DEVINTERFACE_TAPE
00000000 R GUID_DEVINTERFACE_UNIFIED_ACCESS_RPMB
00000000 R GUID_DEVINTERFACE_VMLUN
00000000 R GUID_DEVINTERFACE_VOLUME
00000000 R GUID_DEVINTERFACE_WRITEONCEDISK
00000000 R GUID_DEVINTERFACE_ZNSDISK
00000000 R GUID_DISK_ADAPTIVE_POWERDOWN
00000000 R GUID_DISK_BURST_IGNORE_THRESHOLD
00000000 R GUID_DISK_COALESCING_POWERDOWN_TIMEOUT
00000000 R GUID_DISK_IDLE_TIMEOUT
00000000 R GUID_DISK_POWERDOWN_TIMEOUT
00000000 R GUID_DISK_SUBGROUP
00000000 R GUID_DSCFX_CLASS_AEC
00000000 R GUID_DSCFX_CLASS_NS
00000000 R GUID_DSCFX_MS_AEC
00000000 R GUID_DSCFX_MS_NS
00000000 R GUID_DSCFX_SYSTEM_AEC
00000000 R GUID_DSCFX_SYSTEM_NS
00000000 R GUID_DSFX_STANDARD_CHORUS
00000000 R GUID_DSFX_STANDARD_COMPRESSOR
00000000 R GUID_DSFX_STANDARD_DISTORTION
00000000 R GUID_DSFX_STANDARD_ECHO
00000000 R GUID_DSFX_STANDARD_FLANGER
00000000 R GUID_DSFX_STANDARD_GARGLE
00000000 R GUID_DSFX_STANDARD_I3DL2REVERB
00000000 R GUID_DSFX_STANDARD_PARAMEQ
00000000 R GUID_DSFX_WAVES_REVERB
00000000 R GUID_ENABLE_SWITCH_FORCED_SHUTDOWN
00000000 R GUID_EXECUTION_REQUIRED_REQUEST_TIMEOUT
00000000 R GUID_GLOBAL_USER_PRESENCE
00000000 R GUID_HIBERNATE_FASTS4_POLICY
00000000 R GUID_HIBERNATE_TIMEOUT
00000000 R GUID_IDLE_BACKGROUND_TASK
00000000 R GUID_IDLE_RESILIENCY_PERIOD
00000000 R GUID_IDLE_RESILIENCY_SUBGROUP
00000000 R GUID_LIDCLOSE_ACTION
00000000 R GUID_LIDOPEN_POWERSTATE
00000000 R GUID_LIDSWITCH_STATE_CHANGE
00000000 R GUID_LOCK_CONSOLE_ON_WAKE
00000000 R GUID_MAX_POWER_SAVINGS
00000000 R GUID_MIN_POWER_SAVINGS
00000000 R GUID_MONITOR_POWER_ON
00000000 R GUID_NON_ADAPTIVE_INPUT_TIMEOUT
         U GUID_NULL
00000000 R GUID_PCIEXPRESS_ASPM_POLICY
00000000 R GUID_PCIEXPRESS_SETTINGS_SUBGROUP
00000000 R GUID_POWERBUTTON_ACTION
00000000 R GUID_POWERSCHEME_PERSONALITY
00000000 R GUID_PROCESSOR_ALLOW_THROTTLING
00000000 R GUID_PROCESSOR_CORE_PARKING_AFFINITY_HISTORY_DECREASE_FACTOR
00000000 R GUID_PROCESSOR_CORE_PARKING_AFFINITY_HISTORY_THRESHOLD
00000000 R GUID_PROCESSOR_CORE_PARKING_AFFINITY_WEIGHTING
00000000 R GUID_PROCESSOR_CORE_PARKING_DECREASE_POLICY
00000000 R GUID_PROCESSOR_CORE_PARKING_DECREASE_THRESHOLD
00000000 R GUID_PROCESSOR_CORE_PARKING_DECREASE_TIME
00000000 R GUID_PROCESSOR_CORE_PARKING_INCREASE_POLICY
00000000 R GUID_PROCESSOR_CORE_PARKING_INCREASE_THRESHOLD
00000000 R GUID_PROCESSOR_CORE_PARKING_INCREASE_TIME
00000000 R GUID_PROCESSOR_CORE_PARKING_MAX_CORES
00000000 R GUID_PROCESSOR_CORE_PARKING_MIN_CORES
00000000 R GUID_PROCESSOR_CORE_PARKING_OVER_UTILIZATION_HISTORY_DECREASE_FACTOR
00000000 R GUID_PROCESSOR_CORE_PARKING_OVER_UTILIZATION_HISTORY_THRESHOLD
00000000 R GUID_PROCESSOR_CORE_PARKING_OVER_UTILIZATION_THRESHOLD
00000000 R GUID_PROCESSOR_CORE_PARKING_OVER_UTILIZATION_WEIGHTING
00000000 R GUID_PROCESSOR_DISTRIBUTE_UTILITY
00000000 R GUID_PROCESSOR_IDLESTATE_POLICY
00000000 R GUID_PROCESSOR_IDLE_ALLOW_SCALING
00000000 R GUID_PROCESSOR_IDLE_DEMOTE_THRESHOLD
00000000 R GUID_PROCESSOR_IDLE_DISABLE
00000000 R GUID_PROCESSOR_IDLE_PROMOTE_THRESHOLD
00000000 R GUID_PROCESSOR_IDLE_STATE_MAXIMUM
00000000 R GUID_PROCESSOR_IDLE_TIME_CHECK
00000000 R GUID_PROCESSOR_PARKING_CONCURRENCY_THRESHOLD
00000000 R GUID_PROCESSOR_PARKING_CORE_OVERRIDE
00000000 R GUID_PROCESSOR_PARKING_HEADROOM_THRESHOLD
00000000 R GUID_PROCESSOR_PARKING_PERF_STATE
00000000 R GUID_PROCESSOR_PERFSTATE_POLICY
00000000 R GUID_PROCESSOR_PERF_BOOST_MODE
00000000 R GUID_PROCESSOR_PERF_BOOST_POLICY
00000000 R GUID_PROCESSOR_PERF_DECREASE_POLICY
00000000 R GUID_PROCESSOR_PERF_DECREASE_THRESHOLD
00000000 R GUID_PROCESSOR_PERF_DECREASE_TIME
00000000 R GUID_PROCESSOR_PERF_HISTORY
00000000 R GUID_PROCESSOR_PERF_INCREASE_POLICY
00000000 R GUID_PROCESSOR_PERF_INCREASE_THRESHOLD
00000000 R GUID_PROCESSOR_PERF_INCREASE_TIME
00000000 R GUID_PROCESSOR_PERF_LATENCY_HINT
00000000 R GUID_PROCESSOR_PERF_TIME_CHECK
00000000 R GUID_PROCESSOR_SETTINGS_SUBGROUP
00000000 R GUID_PROCESSOR_THROTTLE_MAXIMUM
00000000 R GUID_PROCESSOR_THROTTLE_MINIMUM
00000000 R GUID_PROCESSOR_THROTTLE_POLICY
00000000 R GUID_SCM_PD_HEALTH_NOTIFICATION
00000000 R GUID_SCM_PD_PASSTHROUGH_INVDIMM
00000000 R GUID_SESSION_DISPLAY_STATUS
00000000 R GUID_SESSION_USER_PRESENCE
00000000 R GUID_SLEEPBUTTON_ACTION
00000000 R GUID_SLEEP_IDLE_THRESHOLD
00000000 R GUID_SLEEP_SUBGROUP
00000000 R GUID_STANDBY_TIMEOUT
00000000 R GUID_SYSTEM_AWAYMODE
00000000 R GUID_SYSTEM_BUTTON_SUBGROUP
00000000 R GUID_SYSTEM_COOLING_POLICY
00000000 R GUID_TYPICAL_POWER_SAVINGS
00000000 R GUID_UNATTEND_SLEEP_TIMEOUT
00000000 R GUID_USERINTERFACEBUTTON_ACTION
00000000 R GUID_VIDEO_ADAPTIVE_DISPLAY_BRIGHTNESS
00000000 R GUID_VIDEO_ADAPTIVE_PERCENT_INCREASE
00000000 R GUID_VIDEO_ADAPTIVE_POWERDOWN
00000000 R GUID_VIDEO_ANNOYANCE_TIMEOUT
00000000 R GUID_VIDEO_CONSOLE_LOCK_TIMEOUT
00000000 R GUID_VIDEO_CURRENT_MONITOR_BRIGHTNESS
00000000 R GUID_VIDEO_DIM_TIMEOUT
00000000 R GUID_VIDEO_POWERDOWN_TIMEOUT
00000000 R GUID_VIDEO_SUBGROUP
00000000 R IID_AsyncIAdviseSink
00000000 R IID_AsyncIAdviseSink2
00000000 R IID_AsyncIMultiQI
00000000 R IID_AsyncIUnknown
00000000 R IID_IAddrExclusionControl
00000000 R IID_IAddrTrackingControl
00000000 R IID_IAdviseSink
00000000 R IID_IAdviseSink2
00000000 R IID_IAgileObject
00000000 R IID_IAgileReference
00000000 R IID_IApartmentShutdown
00000000 R IID_IAsyncManager
00000000 R IID_IAsyncRpcChannelBuffer
00000000 R IID_IAuthenticate
00000000 R IID_IAuthenticateEx
00000000 R IID_IBindCallbackRedirect
00000000 R IID_IBindCtx
00000000 R IID_IBindHost
00000000 R IID_IBindProtocol
00000000 R IID_IBindStatusCallback
00000000 R IID_IBindStatusCallbackEx
00000000 R IID_IBinding
00000000 R IID_IBlockingLock
00000000 R IID_ICallFactory
00000000 R IID_ICancelMethodCalls
00000000 R IID_ICatalogFileInfo
00000000 R IID_IChannelHook
00000000 R IID_IClassActivator
00000000 R IID_IClassFactory
00000000 R IID_IClientSecurity
00000000 R IID_ICodeInstall
00000000 R IID_IComThreadingInfo
00000000 R IID_IContinue
00000000 R IID_ICreateErrorInfo
00000000 R IID_ICreateTypeInfo
00000000 R IID_ICreateTypeInfo2
00000000 R IID_ICreateTypeLib
00000000 R IID_ICreateTypeLib2
00000000 R IID_IDataAdviseHolder
00000000 R IID_IDataFilter
00000000 R IID_IDataObject
00000000 R IID_IDirectSound
00000000 R IID_IDirectSound3DBuffer
00000000 R IID_IDirectSound3DListener
00000000 R IID_IDirectSound8
00000000 R IID_IDirectSoundBuffer
00000000 R IID_IDirectSoundBuffer8
00000000 R IID_IDirectSoundCapture
00000000 R IID_IDirectSoundCaptureBuffer
00000000 R IID_IDirectSoundCaptureBuffer8
00000000 R IID_IDirectSoundFXChorus
00000000 R IID_IDirectSoundFXCompressor
00000000 R IID_IDirectSoundFXDistortion
00000000 R IID_IDirectSoundFXEcho
00000000 R IID_IDirectSoundFXFlanger
00000000 R IID_IDirectSoundFXGargle
00000000 R IID_IDirectSoundFXI3DL2Reverb
00000000 R IID_IDirectSoundFXParamEq
00000000 R IID_IDirectSoundFXWavesReverb
00000000 R IID_IDirectSoundFullDuplex
00000000 R IID_IDirectSoundNotify
00000000 R IID_IDirectWriterLock
00000000 R IID_IDispatch
00000000 R IID_IDropSource
00000000 R IID_IDropSourceNotify
00000000 R IID_IDropTarget
00000000 R IID_IDummyHICONIncluder
00000000 R IID_IEncodingFilterFactory
00000000 R IID_IEnumFORMATETC
00000000 R IID_IEnumMoniker
00000000 R IID_IEnumOLEVERB
00000000 R IID_IEnumSTATDATA
00000000 R IID_IEnumSTATPROPSETSTG
00000000 R IID_IEnumSTATPROPSTG
00000000 R IID_IEnumSTATSTG
00000000 R IID_IEnumString
00000000 R IID_IEnumUnknown
00000000 R IID_IEnumVARIANT
00000000 R IID_IErrorInfo
00000000 R IID_IErrorLog
00000000 R IID_IExternalConnection
00000000 R IID_IFastRundown
00000000 R IID_IFillLockBytes
00000000 R IID_IForegroundTransfer
00000000 R IID_IGetBindHandle
00000000 R IID_IGlobalInterfaceTable
00000000 R IID_IGlobalOptions
00000000 R IID_IHttpNegotiate
00000000 R IID_IHttpNegotiate2
00000000 R IID_IHttpNegotiate3
00000000 R IID_IHttpSecurity
00000000 R IID_IInitializeSpy
00000000 R IID_IInternalUnknown
00000000 R IID_IInternet
00000000 R IID_IInternetBindInfo
00000000 R IID_IInternetBindInfoEx
00000000 R IID_IInternetHostSecurityManager
00000000 R IID_IInternetPriority
00000000 R IID_IInternetProtocol
00000000 R IID_IInternetProtocolInfo
00000000 R IID_IInternetProtocolRoot
00000000 R IID_IInternetProtocolSink
00000000 R IID_IInternetProtocolSinkStackable
00000000 R IID_IInternetSecurityManager
00000000 R IID_IInternetSecurityMgrSite
00000000 R IID_IInternetSession
00000000 R IID_IInternetThreadSwitch
00000000 R IID_IInternetZoneManager
00000000 R IID_IKsPropertySet
00000000 R IID_ILayoutStorage
00000000 R IID_ILockBytes
00000000 R IID_IMalloc
00000000 R IID_IMallocSpy
00000000 R IID_IMarshal
00000000 R IID_IMarshal2
00000000 R IID_IMarshalingStream
00000000 R IID_IMessageFilter
00000000 R IID_IMoniker
00000000 R IID_IMonikerProp
00000000 R IID_IMultiQI
00000000 R IID_INoMarshal
00000000 R IID_IOleAdviseHolder
00000000 R IID_IOleCache
00000000 R IID_IOleCache2
00000000 R IID_IOleCacheControl
00000000 R IID_IOleClientSite
00000000 R IID_IOleContainer
00000000 R IID_IOleInPlaceActiveObject
00000000 R IID_IOleInPlaceFrame
00000000 R IID_IOleInPlaceObject
00000000 R IID_IOleInPlaceSite
00000000 R IID_IOleInPlaceUIWindow
00000000 R IID_IOleItemContainer
00000000 R IID_IOleLink
00000000 R IID_IOleObject
00000000 R IID_IOleWindow
00000000 R IID_IOplockStorage
00000000 R IID_IPSFactoryBuffer
00000000 R IID_IParseDisplayName
00000000 R IID_IPersist
00000000 R IID_IPersistFile
00000000 R IID_IPersistMoniker
00000000 R IID_IPersistStorage
00000000 R IID_IPersistStream
00000000 R IID_IPipeByte
00000000 R IID_IPipeDouble
00000000 R IID_IPipeLong
00000000 R IID_IPrintDialogCallback
00000000 R IID_IPrintDialogServices
00000000 R IID_IProcessInitControl
00000000 R IID_IProcessLock
00000000 R IID_IProgressNotify
00000000 R IID_IPropertyBag
00000000 R IID_IPropertySetStorage
00000000 R IID_IPropertyStorage
00000000 R IID_IROTData
00000000 R IID_IRecordInfo
00000000 R IID_IReleaseMarshalBuffers
00000000 R IID_IRootStorage
00000000 R IID_IRpcChannelBuffer
00000000 R IID_IRpcChannelBuffer2
00000000 R IID_IRpcChannelBuffer3
00000000 R IID_IRpcHelper
00000000 R IID_IRpcOptions
00000000 R IID_IRpcProxyBuffer
00000000 R IID_IRpcStubBuffer
00000000 R IID_IRpcSyntaxNegotiate
00000000 R IID_IRunnableObject
00000000 R IID_IRunningObjectTable
00000000 R IID_ISequentialStream
00000000 R IID_IServerSecurity
00000000 R IID_IServiceProvider
00000000 R IID_ISoftDistExt
00000000 R IID_IStdMarshalInfo
00000000 R IID_IStorage
00000000 R IID_IStream
00000000 R IID_ISupportErrorInfo
00000000 R IID_ISurrogate
00000000 R IID_ISurrogateService
00000000 R IID_ISynchronize
00000000 R IID_ISynchronizeContainer
00000000 R IID_ISynchronizeEvent
00000000 R IID_ISynchronizeHandle
00000000 R IID_ISynchronizeMutex
00000000 R IID_IThumbnailExtractor
00000000 R IID_ITimeAndNoticeControl
00000000 R IID_ITypeChangeEvents
00000000 R IID_ITypeComp
00000000 R IID_ITypeFactory
00000000 R IID_ITypeInfo
00000000 R IID_ITypeInfo2
00000000 R IID_ITypeLib
00000000 R IID_ITypeLib2
00000000 R IID_ITypeMarshal
00000000 R IID_IUnknown
00000000 R IID_IUrlMon
00000000 R IID_IViewObject
00000000 R IID_IViewObject2
00000000 R IID_IWaitMultiple
00000000 R IID_IWinInetFileStream
00000000 R IID_IWinInetHttpInfo
00000000 R IID_IWinInetHttpTimeouts
00000000 R IID_IWinInetInfo
00000000 R IID_IWindowForBindingUI
00000000 R IID_IWrappedProtocol
00000000 R IID_IXMLAttribute
00000000 R IID_IXMLDOMAttribute
00000000 R IID_IXMLDOMCDATASection
00000000 R IID_IXMLDOMCharacterData
00000000 R IID_IXMLDOMComment
00000000 R IID_IXMLDOMDocument
00000000 R IID_IXMLDOMDocumentFragment
00000000 R IID_IXMLDOMDocumentType
00000000 R IID_IXMLDOMElement
00000000 R IID_IXMLDOMEntity
00000000 R IID_IXMLDOMEntityReference
00000000 R IID_IXMLDOMImplementation
00000000 R IID_IXMLDOMNamedNodeMap
00000000 R IID_IXMLDOMNode
00000000 R IID_IXMLDOMNodeList
00000000 R IID_IXMLDOMNotation
00000000 R IID_IXMLDOMParseError
00000000 R IID_IXMLDOMProcessingInstruction
00000000 R IID_IXMLDOMText
00000000 R IID_IXMLDSOControl
00000000 R IID_IXMLDocument
00000000 R IID_IXMLDocument2
00000000 R IID_IXMLElement
00000000 R IID_IXMLElement2
00000000 R IID_IXMLElementCollection
00000000 R IID_IXMLElementNotificationSink
00000000 R IID_IXMLError
00000000 R IID_IXMLHttpRequest
00000000 R KSDATAFORMAT_SUBTYPE_IEEE_FLOAT
00000000 R KSDATAFORMAT_SUBTYPE_PCM
00000000 R LIBID_MSXML
00000000 R NO_SUBGROUP_GUID
00000018 b NumDevices
00000000 R PPM_IDLESTATES_DATA_GUID
00000000 R PPM_IDLESTATE_CHANGE_GUID
00000000 R PPM_IDLE_ACCOUNTING_EX_GUID
00000000 R PPM_IDLE_ACCOUNTING_GUID
00000000 R PPM_PERFMON_PERFSTATE_GUID
00000000 R PPM_PERFSTATES_DATA_GUID
00000000 R PPM_PERFSTATE_CHANGE_GUID
00000000 R PPM_PERFSTATE_DOMAIN_CHANGE_GUID
00000000 R PPM_THERMALCONSTRAINT_GUID
00000000 R PPM_THERMAL_POLICY_CHANGE_GUID
         U SetDefaultWFXChannelOrder
         U SetRTPriority
         U StartThread
         U StopThread
         U __imp_FreeLibrary
         U __imp_GetForegroundWindow
         U __imp_GetProcAddress
         U __imp_LoadLibraryA
         U __imp_Sleep
         U al_print
000006d0 T alcDSoundDeinit
00000690 T alcDSoundInit
00000760 T alcDSoundProbe
         U alcSetError
         U aluHandleDisconnect
         U aluMixData
         U calloc
000000c0 r dsDevice
00000000 b ds_handle
         U free
00000008 b pDirectSoundCreate
00000010 b pDirectSoundEnumerateA
         U realloc
         U snprintf
         U strcmp
         U strdup

al_mixer.o:
00000000 R .refptr.ResamplerPadding
00000000 R .refptr.ResamplerPrePadding
00000000 a @feat.00
         U BytesFromFmt
         U ChannelsFromFmt
00000000 T MixSource
00035c20 t Mix_ALfloat_cubic32
0001f1d0 t Mix_ALfloat_lerp32
0000c180 t Mix_ALfloat_point32
0002d9f0 t Mix_ALshort_cubic16
00018270 t Mix_ALshort_lerp16
00006810 t Mix_ALshort_point16
00025940 t Mix_ALubyte_cubic8
00010ef0 t Mix_ALubyte_lerp8
00000ae0 t Mix_ALubyte_point8
         U ResamplerPadding
         U ResamplerPrePadding
         U ___chkstk_ms
         U memcpy
         U memset

al_null.o:
00000000 a @feat.00
         U AppendAllDeviceList
         U AppendDeviceList
         U BytesFromDevFmt
         U ChannelsFromDevFmt
00000210 t NullProc
         U SetDefaultWFXChannelOrder
         U StartThread
         U StopThread
         U __imp_Sleep
         U __imp_timeGetTime
         U al_print
000001d0 T alc_null_deinit
00000190 T alc_null_init
000001e0 T alc_null_probe
         U aluMixData
         U calloc
         U free
         U malloc
00000000 r nullDevice
00000060 t null_close_playback
00000000 D null_funcs
00000180 t null_open_capture
00000000 t null_open_playback
00000090 t null_reset_playback
00000130 t null_stop_playback
         U strcmp
         U strdup

al_panning.o:
00000000 a @feat.00
         U ConfigValueExists
         U GetConfigValue
         U GetConfigValueBool
00000bb0 t SetSpeakerArrangement
         U __imp_isspace
         U al_print
00000000 T aluCart2LUTpos
00000070 T aluInitPanning
         U atanf
         U cos
         U sin
         U strchr
         U strcmp
         U strncpy
         U strtol

al_wave.o:
00000000 a @feat.00
         U AppendAllDeviceList
         U AppendDeviceList
         U BytesFromDevFmt
         U ChannelsFromDevFmt
         U ConfigValueExists
         U GetConfigValue
00000090 r SUBTYPE_FLOAT
000000a0 r SUBTYPE_PCM
         U SetDefaultWFXChannelOrder
         U StartThread
         U StopThread
000006c0 t WaveProc
         U __imp_Sleep
         U __imp__errno
         U __imp_timeGetTime
         U al_print
00000660 T alc_wave_deinit
00000620 T alc_wave_init
00000670 T alc_wave_probe
         U aluHandleDisconnect
         U aluMixData
         U calloc
00000060 r channel_masks
         U clearerr
         U fclose
         U ferror
         U fopen
         U fputc
         U free
         U fseek
         U ftell
         U fwrite
         U malloc
         U strcmp
         U strdup
         U strerror
00000010 r waveDevice
000000e0 t wave_close_playback
00000000 D wave_funcs
00000610 t wave_open_capture
00000000 t wave_open_playback
00000120 t wave_reset_playback
00000500 t wave_stop_playback

al_winmm.o:
00000000 a @feat.00
         U AppendAllDeviceList
         U AppendCaptureDeviceList
         U AppendDeviceList
         U BytesFromDevFmt
00000018 b CaptureDeviceList
000014b0 t CaptureThreadProc
         U ChannelsFromDevFmt
         U CreateRingBuffer
         U DestroyRingBuffer
00000010 b NumCaptureDevices
00000000 b NumPlaybackDevices
00000008 b PlaybackDeviceList
00001360 t PlaybackThreadProc
00000390 t ProbeCaptureDevices
000001f0 t ProbePlaybackDevices
         U ReadRingBuffer
         U RingBufferSize
00001440 t WaveInProc
000012f0 t WaveOutProc
000012d0 t WinMMAvailableSamples
00001270 t WinMMCaptureSamples
000010e0 t WinMMCloseCapture
000007c0 t WinMMClosePlayback
00000000 r WinMMFuncs
00000b60 t WinMMOpenCapture
00000530 t WinMMOpenPlayback
00000820 t WinMMResetPlayback
00001230 t WinMMStartCapture
00001250 t WinMMStopCapture
00000a70 t WinMMStopPlayback
         U WriteRingBuffer
         U __imp_CloseHandle
         U __imp_CreateEventA
         U __imp_CreateThread
         U __imp_ExitThread
         U __imp_GetLastError
         U __imp_GetMessageA
         U __imp_PostThreadMessageA
         U __imp_SetEvent
         U __imp_WaitForSingleObjectEx
         U __imp_waveInAddBuffer
         U __imp_waveInClose
         U __imp_waveInGetDevCapsA
         U __imp_waveInGetNumDevs
         U __imp_waveInOpen
         U __imp_waveInPrepareHeader
         U __imp_waveInReset
         U __imp_waveInStart
         U __imp_waveInStop
         U __imp_waveInUnprepareHeader
         U __imp_waveOutClose
         U __imp_waveOutGetDevCapsA
         U __imp_waveOutGetNumDevs
         U __imp_waveOutOpen
         U __imp_waveOutPrepareHeader
         U __imp_waveOutUnprepareHeader
         U __imp_waveOutWrite
         U al_print
         U alcSetError
00000040 T alcWinMMDeinit
00000000 T alcWinMMInit
000000f0 T alcWinMMProbe
         U aluMixData
         U calloc
         U free
         U realloc
         U snprintf
         U strcmp
         U strdup
00000050 r woDefault

b2BlockAllocator.o:
00000000 a @feat.00
0000001c r GCC_except_table1
         U _Z6b2FreePv
         U _Z7b2Alloci
00000000 D _ZN16b2BlockAllocator12s_blockSizesE
00000000 B _ZN16b2BlockAllocator17s_blockSizeLookupE
00000281 B _ZN16b2BlockAllocator28s_blockSizeLookupInitializedE
00000390 T _ZN16b2BlockAllocator4FreeEPvi
00000410 T _ZN16b2BlockAllocator5ClearEv
00000160 T _ZN16b2BlockAllocator8AllocateEi
00000000 T _ZN16b2BlockAllocatorC1Ev
00000000 T _ZN16b2BlockAllocatorC2Ev
00000100 T _ZN16b2BlockAllocatorD1Ev
00000100 T _ZN16b2BlockAllocatorD2Ev
         U _ZSt9terminatev
00000000 T __clang_call_terminate
         U __cxa_begin_catch
         U __gxx_personality_seh0
         U __imp__assert
         U memcpy
         U memset

b2Body.o:
00000000 R .refptr.b2Vec2_zero
00000000 a @feat.00
         U _Z5b2LogPKcz
         U _ZN12b2BroadPhase10TouchProxyEi
         U _ZN16b2BlockAllocator4FreeEPvi
         U _ZN16b2BlockAllocator8AllocateEi
         U _ZN16b2ContactManager7DestroyEP9b2Contact
00000b20 T _ZN6b2Body11SetMassDataEPK10b2MassData
00000d00 T _ZN6b2Body12SetTransformERK6b2Vec2f
00000890 T _ZN6b2Body13CreateFixtureEPK12b2FixtureDef
00000950 T _ZN6b2Body13CreateFixtureEPK7b2Shapef
00000550 T _ZN6b2Body13ResetMassDataEv
000009a0 T _ZN6b2Body14DestroyFixtureEP9b2Fixture
00000f20 T _ZN6b2Body16SetFixedRotationEb
000007c0 T _ZN6b2Body19SynchronizeFixturesEv
00000f50 T _ZN6b2Body4DumpEv
00000350 T _ZN6b2Body7SetTypeE10b2BodyType
00000e10 T _ZN6b2Body9SetActiveEb
00000000 T _ZN6b2BodyC1EPK9b2BodyDefP7b2World
00000000 T _ZN6b2BodyC2EPK9b2BodyDefP7b2World
00000340 T _ZN6b2BodyD1Ev
00000340 T _ZN6b2BodyD2Ev
         U _ZN9b2Fixture11SynchronizeEP12b2BroadPhaseRK11b2TransformS4_
         U _ZN9b2Fixture13CreateProxiesEP12b2BroadPhaseRK11b2Transform
         U _ZN9b2Fixture14DestroyProxiesEP12b2BroadPhase
         U _ZN9b2Fixture4DumpEi
         U _ZN9b2Fixture6CreateEP16b2BlockAllocatorP6b2BodyPK12b2FixtureDef
         U _ZN9b2Fixture7DestroyEP16b2BlockAllocator
         U _ZN9b2FixtureC1Ev
00000cc0 T _ZNK6b2Body13ShouldCollideEPKS_
         U __imp__assert
         U b2Vec2_zero
         U cosf
         U sinf

b2BroadPhase.o:
00000000 a @feat.00
00000010 r GCC_except_table0
0000002c r GCC_except_table1
         U _Unwind_Resume
         U _Z6b2FreePv
         U _Z7b2Alloci
00000100 T _ZN12b2BroadPhase10BufferMoveEi
00000240 T _ZN12b2BroadPhase10TouchProxyEi
00000090 T _ZN12b2BroadPhase11CreateProxyERK6b2AABBPv
00000160 T _ZN12b2BroadPhase12DestroyProxyEi
000001a0 T _ZN12b2BroadPhase12UnBufferMoveEi
000002a0 T _ZN12b2BroadPhase13QueryCallbackEi
000001d0 T _ZN12b2BroadPhase9MoveProxyEiRK6b2AABBRK6b2Vec2
00000000 T _ZN12b2BroadPhaseC1Ev
00000000 T _ZN12b2BroadPhaseC2Ev
00000060 T _ZN12b2BroadPhaseD1Ev
00000060 T _ZN12b2BroadPhaseD2Ev
         U _ZN13b2DynamicTree11CreateProxyERK6b2AABBPv
         U _ZN13b2DynamicTree12DestroyProxyEi
         U _ZN13b2DynamicTree9MoveProxyEiRK6b2AABBRK6b2Vec2
         U _ZN13b2DynamicTreeC1Ev
         U _ZN13b2DynamicTreeD1Ev
         U _ZSt9terminatev
00000000 T __clang_call_terminate
         U __cxa_begin_catch
         U __gxx_personality_seh0
         U memcpy

b2ChainAndCircleContact.o:
00000000 R .refptr._ZTV11b2EdgeShape
00000000 a @feat.00
         U _Z22b2CollideEdgeAndCircleP10b2ManifoldPK11b2EdgeShapeRK11b2TransformPK13b2CircleShapeS6_
         U _ZN16b2BlockAllocator4FreeEPvi
         U _ZN16b2BlockAllocator8AllocateEi
00000000 T _ZN23b2ChainAndCircleContact6CreateEP9b2FixtureiS1_iP16b2BlockAllocator
000000b0 T _ZN23b2ChainAndCircleContact7DestroyEP9b2ContactP16b2BlockAllocator
00000160 T _ZN23b2ChainAndCircleContact8EvaluateEP10b2ManifoldRK11b2TransformS4_
000000e0 T _ZN23b2ChainAndCircleContactC1EP9b2FixtureiS1_i
000000e0 T _ZN23b2ChainAndCircleContactC2EP9b2FixtureiS1_i
00000000 T _ZN23b2ChainAndCircleContactD0Ev
         U _ZN9b2ContactC2EP9b2FixtureiS1_i
00000000 T _ZN9b2ContactD2Ev
         U _ZNK12b2ChainShape12GetChildEdgeEP11b2EdgeShapei
00000000 R _ZTI23b2ChainAndCircleContact
00000000 R _ZTI9b2Contact
00000000 R _ZTS23b2ChainAndCircleContact
00000000 R _ZTS9b2Contact
         U _ZTV11b2EdgeShape
00000000 R _ZTV23b2ChainAndCircleContact
         U _ZTVN10__cxxabiv117__class_type_infoE
         U _ZTVN10__cxxabiv120__si_class_type_infoE
         U _ZdlPv
         U __imp__assert

b2ChainAndPolygonContact.o:
00000000 R .refptr._ZTV11b2EdgeShape
00000000 a @feat.00
         U _Z23b2CollideEdgeAndPolygonP10b2ManifoldPK11b2EdgeShapeRK11b2TransformPK14b2PolygonShapeS6_
         U _ZN16b2BlockAllocator4FreeEPvi
         U _ZN16b2BlockAllocator8AllocateEi
00000000 T _ZN24b2ChainAndPolygonContact6CreateEP9b2FixtureiS1_iP16b2BlockAllocator
000000b0 T _ZN24b2ChainAndPolygonContact7DestroyEP9b2ContactP16b2BlockAllocator
00000160 T _ZN24b2ChainAndPolygonContact8EvaluateEP10b2ManifoldRK11b2TransformS4_
000000e0 T _ZN24b2ChainAndPolygonContactC1EP9b2FixtureiS1_i
000000e0 T _ZN24b2ChainAndPolygonContactC2EP9b2FixtureiS1_i
00000000 T _ZN24b2ChainAndPolygonContactD0Ev
         U _ZN9b2ContactC2EP9b2FixtureiS1_i
00000000 T _ZN9b2ContactD2Ev
         U _ZNK12b2ChainShape12GetChildEdgeEP11b2EdgeShapei
00000000 R _ZTI24b2ChainAndPolygonContact
00000000 R _ZTI9b2Contact
00000000 R _ZTS24b2ChainAndPolygonContact
00000000 R _ZTS9b2Contact
         U _ZTV11b2EdgeShape
00000000 R _ZTV24b2ChainAndPolygonContact
         U _ZTVN10__cxxabiv117__class_type_infoE
         U _ZTVN10__cxxabiv120__si_class_type_infoE
         U _ZdlPv
         U __imp__assert

b2ChainShape.o:
00000000 R .refptr._ZTV11b2EdgeShape
00000000 a @feat.00
0000000c r GCC_except_table0
0000002c r GCC_except_table2
         U _Z6b2FreePv
         U _Z7b2Alloci
00000080 T _ZN12b2ChainShape10CreateLoopEPK6b2Vec2i
000001a0 T _ZN12b2ChainShape11CreateChainEPK6b2Vec2i
000002b0 T _ZN12b2ChainShape13SetNextVertexERK6b2Vec2
000002a0 T _ZN12b2ChainShape13SetPrevVertexERK6b2Vec2
00000040 T _ZN12b2ChainShapeD0Ev
00000000 T _ZN12b2ChainShapeD1Ev
00000000 T _ZN12b2ChainShapeD2Ev
         U _ZN16b2BlockAllocator8AllocateEi
         U _ZNK11b2EdgeShape7RayCastEP15b2RayCastOutputRK14b2RayCastInputRK11b2Transformi
000004d0 T _ZNK12b2ChainShape11ComputeAABBEP6b2AABBRK11b2Transformi
000005c0 T _ZNK12b2ChainShape11ComputeMassEP10b2MassDataf
00000350 T _ZNK12b2ChainShape12GetChildEdgeEP11b2EdgeShapei
00000340 T _ZNK12b2ChainShape13GetChildCountEv
000002c0 T _ZNK12b2ChainShape5CloneEP16b2BlockAllocator
00000430 T _ZNK12b2ChainShape7RayCastEP15b2RayCastOutputRK14b2RayCastInputRK11b2Transformi
00000420 T _ZNK12b2ChainShape9TestPointERK11b2TransformRK6b2Vec2
         U _ZSt9terminatev
00000000 R _ZTI12b2ChainShape
00000000 R _ZTI7b2Shape
00000000 R _ZTS12b2ChainShape
00000000 R _ZTS7b2Shape
         U _ZTV11b2EdgeShape
00000008 R _ZTV12b2ChainShape
         U _ZTVN10__cxxabiv117__class_type_infoE
         U _ZTVN10__cxxabiv120__si_class_type_infoE
         U _ZdlPv
00000000 T __clang_call_terminate
         U __cxa_begin_catch
         U __gxx_personality_seh0
         U __imp__assert
         U memcpy

b2CircleContact.o:
00000000 a @feat.00
         U _Z16b2CollideCirclesP10b2ManifoldPK13b2CircleShapeRK11b2TransformS3_S6_
00000000 T _ZN15b2CircleContact6CreateEP9b2FixtureiS1_iP16b2BlockAllocator
000000a0 T _ZN15b2CircleContact7DestroyEP9b2ContactP16b2BlockAllocator
00000150 T _ZN15b2CircleContact8EvaluateEP10b2ManifoldRK11b2TransformS4_
000000d0 T _ZN15b2CircleContactC1EP9b2FixtureS1_
000000d0 T _ZN15b2CircleContactC2EP9b2FixtureS1_
00000000 T _ZN15b2CircleContactD0Ev
         U _ZN16b2BlockAllocator4FreeEPvi
         U _ZN16b2BlockAllocator8AllocateEi
         U _ZN9b2ContactC2EP9b2FixtureiS1_i
00000000 T _ZN9b2ContactD2Ev
00000000 R _ZTI15b2CircleContact
00000000 R _ZTI9b2Contact
00000000 R _ZTS15b2CircleContact
00000000 R _ZTS9b2Contact
00000000 R _ZTV15b2CircleContact
         U _ZTVN10__cxxabiv117__class_type_infoE
         U _ZTVN10__cxxabiv120__si_class_type_infoE
         U _ZdlPv
         U __imp__assert

b2CircleShape.o:
00000000 a @feat.00
00000000 T _ZN13b2CircleShapeD0Ev
         U _ZN16b2BlockAllocator8AllocateEi
00000000 T _ZN7b2ShapeD2Ev
00000290 T _ZNK13b2CircleShape11ComputeAABBEP6b2AABBRK11b2Transformi
000002f0 T _ZNK13b2CircleShape11ComputeMassEP10b2MassDataf
00000040 T _ZNK13b2CircleShape13GetChildCountEv
00000000 T _ZNK13b2CircleShape5CloneEP16b2BlockAllocator
000000c0 T _ZNK13b2CircleShape7RayCastEP15b2RayCastOutputRK14b2RayCastInputRK11b2Transformi
00000050 T _ZNK13b2CircleShape9TestPointERK11b2TransformRK6b2Vec2
00000000 R _ZTI13b2CircleShape
00000000 R _ZTI7b2Shape
00000000 R _ZTS13b2CircleShape
00000000 R _ZTS7b2Shape
00000038 R _ZTV13b2CircleShape
         U _ZTVN10__cxxabiv117__class_type_infoE
         U _ZTVN10__cxxabiv120__si_class_type_infoE
         U _ZdlPv
         U sqrtf

b2CollideCircle.o:
00000000 a @feat.00
00000000 T _Z16b2CollideCirclesP10b2ManifoldPK13b2CircleShapeRK11b2TransformS3_S6_
00000110 T _Z25b2CollidePolygonAndCircleP10b2ManifoldPK14b2PolygonShapeRK11b2TransformPK13b2CircleShapeS6_

b2CollideEdge.o:
00000000 a @feat.00
         U _Z19b2ClipSegmentToLineP12b2ClipVertexPKS_RK6b2Vec2fi
00000000 T _Z22b2CollideEdgeAndCircleP10b2ManifoldPK11b2EdgeShapeRK11b2TransformPK13b2CircleShapeS6_
00001a30 T _Z23b2CollideEdgeAndPolygonP10b2ManifoldPK11b2EdgeShapeRK11b2TransformPK14b2PolygonShapeS6_
000016b0 T _ZN12b2EPCollider21ComputeEdgeSeparationEv
000017c0 T _ZN12b2EPCollider24ComputePolygonSeparationEv
000003f0 T _ZN12b2EPCollider7CollideEP10b2ManifoldPK11b2EdgeShapeRK11b2TransformPK14b2PolygonShapeS7_
         U __imp__assert

b2CollidePolygon.o:
00000000 a @feat.00
00000000 T _Z17b2CollidePolygonsP10b2ManifoldPK14b2PolygonShapeRK11b2TransformS3_S6_
         U _Z19b2ClipSegmentToLineP12b2ClipVertexPKS_RK6b2Vec2fi
00000870 t _ZL19b2FindMaxSeparationPiPK14b2PolygonShapeRK11b2TransformS2_S5_
         U __imp__assert

b2Collision.o:
00000000 a @feat.00
         U _Z10b2DistanceP16b2DistanceOutputP14b2SimplexCachePK15b2DistanceInput
00000a40 T _Z13b2TestOverlapPK7b2ShapeiS1_iRK11b2TransformS4_
000005d0 T _Z16b2GetPointStatesP12b2PointStateS0_PK10b2ManifoldS3_
00000940 T _Z19b2ClipSegmentToLineP12b2ClipVertexPKS_RK6b2Vec2fi
         U _ZN15b2DistanceProxy3SetEPK7b2Shapei
00000000 T _ZN15b2WorldManifold10InitializeEPK10b2ManifoldRK11b2TransformfS5_f
00000780 T _ZNK6b2AABB7RayCastEP15b2RayCastOutputRK14b2RayCastInput

b2Contact.o:
00000000 a @feat.00
         U _Z13b2TestOverlapPK7b2ShapeiS1_iRK11b2TransformS4_
         U _ZN15b2CircleContact6CreateEP9b2FixtureiS1_iP16b2BlockAllocator
         U _ZN15b2CircleContact7DestroyEP9b2ContactP16b2BlockAllocator
         U _ZN16b2PolygonContact6CreateEP9b2FixtureiS1_iP16b2BlockAllocator
         U _ZN16b2PolygonContact7DestroyEP9b2ContactP16b2BlockAllocator
         U _ZN22b2EdgeAndCircleContact6CreateEP9b2FixtureiS1_iP16b2BlockAllocator
         U _ZN22b2EdgeAndCircleContact7DestroyEP9b2ContactP16b2BlockAllocator
         U _ZN23b2ChainAndCircleContact6CreateEP9b2FixtureiS1_iP16b2BlockAllocator
         U _ZN23b2ChainAndCircleContact7DestroyEP9b2ContactP16b2BlockAllocator
         U _ZN23b2EdgeAndPolygonContact6CreateEP9b2FixtureiS1_iP16b2BlockAllocator
         U _ZN23b2EdgeAndPolygonContact7DestroyEP9b2ContactP16b2BlockAllocator
         U _ZN24b2ChainAndPolygonContact6CreateEP9b2FixtureiS1_iP16b2BlockAllocator
         U _ZN24b2ChainAndPolygonContact7DestroyEP9b2ContactP16b2BlockAllocator
         U _ZN25b2PolygonAndCircleContact6CreateEP9b2FixtureiS1_iP16b2BlockAllocator
         U _ZN25b2PolygonAndCircleContact7DestroyEP9b2ContactP16b2BlockAllocator
00000000 B _ZN9b2Contact11s_registersE
00000180 B _ZN9b2Contact13s_initializedE
00000000 T _ZN9b2Contact19InitializeRegistersEv
00000200 T _ZN9b2Contact6CreateEP9b2FixtureiS1_iP16b2BlockAllocator
000005c0 T _ZN9b2Contact6UpdateEP17b2ContactListener
00000160 T _ZN9b2Contact7AddTypeEPFPS_P9b2FixtureiS2_iP16b2BlockAllocatorEPFvS0_S4_EN7b2Shape4TypeESA_
00000430 T _ZN9b2Contact7DestroyEPS_P16b2BlockAllocator
00000520 T _ZN9b2ContactC2EP9b2FixtureiS1_i
00000000 T _ZN9b2ContactD0Ev
00000000 T _ZN9b2ContactD2Ev
00000000 R _ZTI9b2Contact
00000000 R _ZTS9b2Contact
00000000 R _ZTV9b2Contact
         U _ZTVN10__cxxabiv117__class_type_infoE
         U __cxa_pure_virtual
         U __imp__assert
         U sqrtf

b2ContactManager.o:
00000000 a @feat.00
00000018 r GCC_except_table12
0000000c r GCC_except_table14
         U _Unwind_Resume
00000000 T _Z14b2PairLessThanRK6b2PairS1_
         U _Z6b2FreePv
         U _Z7b2Alloci
00000000 T _ZN12b2BroadPhase11UpdatePairsI16b2ContactManagerEEvPT_
         U _ZN12b2BroadPhase13QueryCallbackEi
         U _ZN12b2BroadPhaseC1Ev
00000000 T _ZN15b2GrowableStackIiLi256EED2Ev
000002d0 T _ZN16b2ContactManager15FindNewContactsEv
000002e0 T _ZN16b2ContactManager7AddPairEPvS0_
00000110 T _ZN16b2ContactManager7CollideEv
00000040 T _ZN16b2ContactManager7DestroyEP9b2Contact
00000000 T _ZN16b2ContactManagerC1Ev
00000000 T _ZN16b2ContactManagerC2Ev
00000000 T _ZN17b2ContactListener10EndContactEP9b2Contact
00000000 T _ZN17b2ContactListener12BeginContactEP9b2Contact
00000000 T _ZN17b2ContactListener8PreSolveEP9b2ContactPK10b2Manifold
00000000 T _ZN17b2ContactListener9PostSolveEP9b2ContactPK16b2ContactImpulse
00000000 T _ZN17b2ContactListenerD0Ev
00000000 T _ZN17b2ContactListenerD2Ev
         U _ZN9b2Contact6CreateEP9b2FixtureiS1_iP16b2BlockAllocator
         U _ZN9b2Contact6UpdateEP17b2ContactListener
         U _ZN9b2Contact7DestroyEPS_P16b2BlockAllocator
00000000 T _ZNK13b2DynamicTree5QueryI12b2BroadPhaseEEvPT_RK6b2AABB
         U _ZNK6b2Body13ShouldCollideEPKS_
00000000 T _ZNSt3__111__introsortINS_17_ClassicAlgPolicyERPFbRK6b2PairS4_EPS2_Lb0EEEvT1_S9_T0_NS_15iterator_traitsIS9_E15difference_typeEb
00000000 T _ZNSt3__119__partial_sort_implB8ne190100INS_17_ClassicAlgPolicyERPFbRK6b2PairS4_EPS2_S8_EET1_S9_S9_T2_OT0_
00000000 T _ZNSt3__127__insertion_sort_incompleteB8ne190100INS_17_ClassicAlgPolicyERPFbRK6b2PairS4_EPS2_EEbT1_S9_T0_
00000000 T _ZNSt3__17__sort4B8ne190100INS_17_ClassicAlgPolicyERPFbRK6b2PairS4_EPS2_EEvT1_S9_S9_S9_T0_
         U _ZSt9terminatev
00000000 R _ZTI17b2ContactListener
00000000 R _ZTS17b2ContactListener
         U _ZTV15b2ContactFilter
00000000 R _ZTV17b2ContactListener
         U _ZTVN10__cxxabiv117__class_type_infoE
         U _ZdlPv
00000000 T __clang_call_terminate
         U __cxa_begin_catch
         U __gxx_personality_seh0
         U __imp__assert
00000000 D b2_defaultFilter
00000008 D b2_defaultListener
         U memcpy

b2ContactSolver.o:
00000000 a @feat.00
00000020 r GCC_except_table1
000017c0 T _ZN15b2ContactSolver13StoreImpulsesEv
00001900 T _ZN15b2ContactSolver24SolvePositionConstraintsEv
00000be0 T _ZN15b2ContactSolver24SolveVelocityConstraintsEv
00001db0 T _ZN15b2ContactSolver27SolveTOIPositionConstraintsEii
000002e0 T _ZN15b2ContactSolver29InitializeVelocityConstraintsEv
000009b0 T _ZN15b2ContactSolver9WarmStartEv
00000000 T _ZN15b2ContactSolverC1EP18b2ContactSolverDef
00000000 T _ZN15b2ContactSolverC2EP18b2ContactSolverDef
000002a0 T _ZN15b2ContactSolverD1Ev
000002a0 T _ZN15b2ContactSolverD2Ev
         U _ZN15b2WorldManifold10InitializeEPK10b2ManifoldRK11b2TransformfS5_f
         U _ZN16b2StackAllocator4FreeEPv
         U _ZN16b2StackAllocator8AllocateEi
00000000 T _ZN24b2PositionSolverManifold10InitializeEP27b2ContactPositionConstraintRK11b2TransformS4_i
         U _ZSt9terminatev
00000000 T __clang_call_terminate
         U __cxa_begin_catch
         U __gxx_personality_seh0
         U __imp__assert
         U cosf
         U sinf

b2Distance.o:
00000000 a @feat.00
00000530 T _Z10b2DistanceP16b2DistanceOutputP14b2SimplexCachePK15b2DistanceInput
00000000 T _ZN15b2DistanceProxy3SetEPK7b2Shapei
000000d0 T _ZN9b2Simplex6Solve2Ev
00000190 T _ZN9b2Simplex6Solve3Ev
00000000 T _ZN9b2Simplex9ReadCacheEPK14b2SimplexCachePK15b2DistanceProxyRK11b2TransformS5_S8_
00000000 T _ZNK9b2Simplex10WriteCacheEP14b2SimplexCache
00000000 T _ZNK9b2Simplex16GetWitnessPointsEP6b2Vec2S1_
         U __imp__assert
00000000 B b2_gjkCalls
00000004 B b2_gjkIters
00000008 B b2_gjkMaxIters

b2DistanceJoint.o:
00000000 a @feat.00
         U _Z5b2LogPKcz
00000150 T _ZN15b2DistanceJoint23InitVelocityConstraintsERK12b2SolverData
000008c0 T _ZN15b2DistanceJoint24SolvePositionConstraintsERK12b2SolverData
00000660 T _ZN15b2DistanceJoint24SolveVelocityConstraintsERK12b2SolverData
00000cc0 T _ZN15b2DistanceJoint4DumpEv
000000e0 T _ZN15b2DistanceJointC1EPK18b2DistanceJointDef
000000e0 T _ZN15b2DistanceJointC2EPK18b2DistanceJointDef
00000000 T _ZN15b2DistanceJointD0Ev
00000000 T _ZN18b2DistanceJointDef10InitializeEP6b2BodyS1_RK6b2Vec2S4_
00000000 T _ZN7b2Joint11ShiftOriginERK6b2Vec2
         U _ZN7b2JointC2EPK10b2JointDef
00000000 T _ZN7b2JointD2Ev
00000bc0 T _ZNK15b2DistanceJoint10GetAnchorAEv
00000c20 T _ZNK15b2DistanceJoint10GetAnchorBEv
00000c80 T _ZNK15b2DistanceJoint16GetReactionForceEf
00000cb0 T _ZNK15b2DistanceJoint17GetReactionTorqueEf
00000000 R _ZTI15b2DistanceJoint
00000000 R _ZTI7b2Joint
00000000 R _ZTS15b2DistanceJoint
00000000 R _ZTS7b2Joint
00000058 R _ZTV15b2DistanceJoint
         U _ZTVN10__cxxabiv117__class_type_infoE
         U _ZTVN10__cxxabiv120__si_class_type_infoE
         U _ZdlPv
         U cosf
         U sinf

b2Draw.o:
00000000 a @feat.00
00000050 T _ZN6b2Draw10ClearFlagsEj
00000040 T _ZN6b2Draw11AppendFlagsEj
00000020 T _ZN6b2Draw8SetFlagsEj
00000000 T _ZN6b2DrawC2Ev
00000000 T _ZN6b2DrawD0Ev
00000000 T _ZN6b2DrawD2Ev
00000030 T _ZNK6b2Draw8GetFlagsEv
00000000 R _ZTI6b2Draw
00000000 R _ZTS6b2Draw
00000000 R _ZTV6b2Draw
         U _ZTVN10__cxxabiv117__class_type_infoE
         U __cxa_pure_virtual

b2DynamicTree.o:
00000000 a @feat.00
00000014 r GCC_except_table1
         U _Z6b2FreePv
         U _Z7b2Alloci
00000360 T _ZN13b2DynamicTree10InsertLeafEi
000008f0 T _ZN13b2DynamicTree10RemoveLeafEi
000002b0 T _ZN13b2DynamicTree11CreateProxyERK6b2AABBPv
00001ad0 T _ZN13b2DynamicTree11ShiftOriginERK6b2Vec2
000000e0 T _ZN13b2DynamicTree12AllocateNodeEv
00000810 T _ZN13b2DynamicTree12DestroyProxyEi
000017f0 T _ZN13b2DynamicTree15RebuildBottomUpEv
00000c70 T _ZN13b2DynamicTree7BalanceEi
00000230 T _ZN13b2DynamicTree8FreeNodeEi
00000b50 T _ZN13b2DynamicTree9MoveProxyEiRK6b2AABBRK6b2Vec2
00000000 T _ZN13b2DynamicTreeC1Ev
00000000 T _ZN13b2DynamicTreeC2Ev
000000c0 T _ZN13b2DynamicTreeD1Ev
000000c0 T _ZN13b2DynamicTreeD2Ev
000011c0 T _ZNK13b2DynamicTree12GetAreaRatioEv
000012c0 T _ZNK13b2DynamicTree13ComputeHeightEi
00001330 T _ZNK13b2DynamicTree13ComputeHeightEv
00001760 T _ZNK13b2DynamicTree13GetMaxBalanceEv
000014b0 T _ZNK13b2DynamicTree15ValidateMetricsEi
00001340 T _ZNK13b2DynamicTree17ValidateStructureEi
00001680 T _ZNK13b2DynamicTree8ValidateEv
000011a0 T _ZNK13b2DynamicTree9GetHeightEv
         U _ZSt9terminatev
00000000 T __clang_call_terminate
         U __cxa_begin_catch
         U __gxx_personality_seh0
         U __imp__assert
         U memcpy
         U memset

b2EdgeAndCircleContact.o:
00000000 a @feat.00
         U _Z22b2CollideEdgeAndCircleP10b2ManifoldPK11b2EdgeShapeRK11b2TransformPK13b2CircleShapeS6_
         U _ZN16b2BlockAllocator4FreeEPvi
         U _ZN16b2BlockAllocator8AllocateEi
00000000 T _ZN22b2EdgeAndCircleContact6CreateEP9b2FixtureiS1_iP16b2BlockAllocator
000000a0 T _ZN22b2EdgeAndCircleContact7DestroyEP9b2ContactP16b2BlockAllocator
00000150 T _ZN22b2EdgeAndCircleContact8EvaluateEP10b2ManifoldRK11b2TransformS4_
000000d0 T _ZN22b2EdgeAndCircleContactC1EP9b2FixtureS1_
000000d0 T _ZN22b2EdgeAndCircleContactC2EP9b2FixtureS1_
00000000 T _ZN22b2EdgeAndCircleContactD0Ev
         U _ZN9b2ContactC2EP9b2FixtureiS1_i
00000000 T _ZN9b2ContactD2Ev
00000000 R _ZTI22b2EdgeAndCircleContact
00000000 R _ZTI9b2Contact
00000000 R _ZTS22b2EdgeAndCircleContact
00000000 R _ZTS9b2Contact
00000000 R _ZTV22b2EdgeAndCircleContact
         U _ZTVN10__cxxabiv117__class_type_infoE
         U _ZTVN10__cxxabiv120__si_class_type_infoE
         U _ZdlPv
         U __imp__assert

b2EdgeAndPolygonContact.o:
00000000 a @feat.00
         U _Z23b2CollideEdgeAndPolygonP10b2ManifoldPK11b2EdgeShapeRK11b2TransformPK14b2PolygonShapeS6_
         U _ZN16b2BlockAllocator4FreeEPvi
         U _ZN16b2BlockAllocator8AllocateEi
00000000 T _ZN23b2EdgeAndPolygonContact6CreateEP9b2FixtureiS1_iP16b2BlockAllocator
000000a0 T _ZN23b2EdgeAndPolygonContact7DestroyEP9b2ContactP16b2BlockAllocator
00000150 T _ZN23b2EdgeAndPolygonContact8EvaluateEP10b2ManifoldRK11b2TransformS4_
000000d0 T _ZN23b2EdgeAndPolygonContactC1EP9b2FixtureS1_
000000d0 T _ZN23b2EdgeAndPolygonContactC2EP9b2FixtureS1_
00000000 T _ZN23b2EdgeAndPolygonContactD0Ev
         U _ZN9b2ContactC2EP9b2FixtureiS1_i
00000000 T _ZN9b2ContactD2Ev
00000000 R _ZTI23b2EdgeAndPolygonContact
00000000 R _ZTI9b2Contact
00000000 R _ZTS23b2EdgeAndPolygonContact
00000000 R _ZTS9b2Contact
00000000 R _ZTV23b2EdgeAndPolygonContact
         U _ZTVN10__cxxabiv117__class_type_infoE
         U _ZTVN10__cxxabiv120__si_class_type_infoE
         U _ZdlPv
         U __imp__assert

b2EdgeShape.o:
00000000 a @feat.00
00000000 T _ZN11b2EdgeShape3SetERK6b2Vec2S2_
00000000 T _ZN11b2EdgeShapeD0Ev
         U _ZN16b2BlockAllocator8AllocateEi
00000000 T _ZN7b2ShapeD2Ev
00000370 T _ZNK11b2EdgeShape11ComputeAABBEP6b2AABBRK11b2Transformi
00000440 T _ZNK11b2EdgeShape11ComputeMassEP10b2MassDataf
00000080 T _ZNK11b2EdgeShape13GetChildCountEv
00000020 T _ZNK11b2EdgeShape5CloneEP16b2BlockAllocator
000000a0 T _ZNK11b2EdgeShape7RayCastEP15b2RayCastOutputRK14b2RayCastInputRK11b2Transformi
00000090 T _ZNK11b2EdgeShape9TestPointERK11b2TransformRK6b2Vec2
00000000 R _ZTI11b2EdgeShape
00000000 R _ZTI7b2Shape
00000000 R _ZTS11b2EdgeShape
00000000 R _ZTS7b2Shape
00000020 R _ZTV11b2EdgeShape
         U _ZTVN10__cxxabiv117__class_type_infoE
         U _ZTVN10__cxxabiv120__si_class_type_infoE
         U _ZdlPv

b2Fixture.o:
00000000 a @feat.00
         U _Z5b2LogPKcz
         U _ZN12b2BroadPhase10TouchProxyEi
         U _ZN12b2BroadPhase11CreateProxyERK6b2AABBPv
         U _ZN12b2BroadPhase12DestroyProxyEi
         U _ZN12b2BroadPhase9MoveProxyEiRK6b2AABBRK6b2Vec2
         U _ZN16b2BlockAllocator4FreeEPvi
         U _ZN16b2BlockAllocator8AllocateEi
00000340 T _ZN9b2Fixture11SynchronizeEP12b2BroadPhaseRK11b2TransformS4_
00000220 T _ZN9b2Fixture13CreateProxiesEP12b2BroadPhaseRK11b2Transform
00000460 T _ZN9b2Fixture13SetFilterDataERK8b2Filter
000002e0 T _ZN9b2Fixture14DestroyProxiesEP12b2BroadPhase
000005c0 T _ZN9b2Fixture4DumpEi
00000040 T _ZN9b2Fixture6CreateEP16b2BlockAllocatorP6b2BodyPK12b2FixtureDef
00000130 T _ZN9b2Fixture7DestroyEP16b2BlockAllocator
00000500 T _ZN9b2Fixture8RefilterEv
00000590 T _ZN9b2Fixture9SetSensorEb
00000000 T _ZN9b2FixtureC1Ev
00000000 T _ZN9b2FixtureC2Ev
         U __imp__assert

b2FrictionJoint.o:
00000000 a @feat.00
         U _Z5b2LogPKcz
000009c0 T _ZN15b2FrictionJoint11SetMaxForceEf
00000a40 T _ZN15b2FrictionJoint12SetMaxTorqueEf
00000110 T _ZN15b2FrictionJoint23InitVelocityConstraintsERK12b2SolverData
000008b0 T _ZN15b2FrictionJoint24SolvePositionConstraintsERK12b2SolverData
00000560 T _ZN15b2FrictionJoint24SolveVelocityConstraintsERK12b2SolverData
00000ac0 T _ZN15b2FrictionJoint4DumpEv
000000b0 T _ZN15b2FrictionJointC1EPK18b2FrictionJointDef
000000b0 T _ZN15b2FrictionJointC2EPK18b2FrictionJointDef
00000000 T _ZN15b2FrictionJointD0Ev
00000000 T _ZN18b2FrictionJointDef10InitializeEP6b2BodyS1_RK6b2Vec2
00000000 T _ZN7b2Joint11ShiftOriginERK6b2Vec2
         U _ZN7b2JointC2EPK10b2JointDef
00000000 T _ZN7b2JointD2Ev
000008c0 T _ZNK15b2FrictionJoint10GetAnchorAEv
00000920 T _ZNK15b2FrictionJoint10GetAnchorBEv
00000a30 T _ZNK15b2FrictionJoint11GetMaxForceEv
00000ab0 T _ZNK15b2FrictionJoint12GetMaxTorqueEv
00000980 T _ZNK15b2FrictionJoint16GetReactionForceEf
000009b0 T _ZNK15b2FrictionJoint17GetReactionTorqueEf
00000000 R _ZTI15b2FrictionJoint
00000000 R _ZTI7b2Joint
00000000 R _ZTS15b2FrictionJoint
00000000 R _ZTS7b2Joint
00000038 R _ZTV15b2FrictionJoint
         U _ZTVN10__cxxabiv117__class_type_infoE
         U _ZTVN10__cxxabiv120__si_class_type_infoE
         U _ZdlPv
         U __imp__assert
         U cosf
         U sinf

b2GearJoint.o:
00000000 a @feat.00
         U _Z5b2LogPKcz
000003c0 T _ZN11b2GearJoint23InitVelocityConstraintsERK12b2SolverData
00000f40 T _ZN11b2GearJoint24SolvePositionConstraintsERK12b2SolverData
00000bc0 T _ZN11b2GearJoint24SolveVelocityConstraintsERK12b2SolverData
000018c0 T _ZN11b2GearJoint4DumpEv
00001870 T _ZN11b2GearJoint8SetRatioEf
00000000 T _ZN11b2GearJointC1EPK14b2GearJointDef
00000000 T _ZN11b2GearJointC2EPK14b2GearJointDef
00000000 T _ZN11b2GearJointD0Ev
00000000 T _ZN7b2Joint11ShiftOriginERK6b2Vec2
         U _ZN7b2JointC2EPK10b2JointDef
00000000 T _ZN7b2JointD2Ev
00001750 T _ZNK11b2GearJoint10GetAnchorAEv
000017b0 T _ZNK11b2GearJoint10GetAnchorBEv
00001810 T _ZNK11b2GearJoint16GetReactionForceEf
00001850 T _ZNK11b2GearJoint17GetReactionTorqueEf
000018b0 T _ZNK11b2GearJoint8GetRatioEv
00000000 R _ZTI11b2GearJoint
00000000 R _ZTI7b2Joint
00000000 R _ZTS11b2GearJoint
00000000 R _ZTS7b2Joint
00000060 R _ZTV11b2GearJoint
         U _ZTVN10__cxxabiv117__class_type_infoE
         U _ZTVN10__cxxabiv120__si_class_type_infoE
         U _ZdlPv
         U __imp__assert
         U cosf
         U sinf

b2Island.o:
00000000 a @feat.00
00000018 r GCC_except_table1
00000060 r GCC_except_table3
000000fc r GCC_except_table5
         U _Unwind_Resume
         U _ZN15b2ContactSolver13StoreImpulsesEv
         U _ZN15b2ContactSolver24SolvePositionConstraintsEv
         U _ZN15b2ContactSolver24SolveVelocityConstraintsEv
         U _ZN15b2ContactSolver27SolveTOIPositionConstraintsEii
         U _ZN15b2ContactSolver29InitializeVelocityConstraintsEv
         U _ZN15b2ContactSolver9WarmStartEv
         U _ZN15b2ContactSolverC1EP18b2ContactSolverDef
         U _ZN15b2ContactSolverD1Ev
         U _ZN16b2StackAllocator4FreeEPv
         U _ZN16b2StackAllocator8AllocateEi
         U _ZN7b2Timer5ResetEv
         U _ZN7b2TimerC1Ev
00000100 T _ZN8b2Island5SolveEP9b2ProfileRK10b2TimeStepRK6b2Vec2b
00000a00 T _ZN8b2Island6ReportEPK27b2ContactVelocityConstraint
00000b40 T _ZN8b2Island8SolveTOIERK10b2TimeStepii
00000000 T _ZN8b2IslandC1EiiiP16b2StackAllocatorP17b2ContactListener
00000000 T _ZN8b2IslandC2EiiiP16b2StackAllocatorP17b2ContactListener
000000a0 T _ZN8b2IslandD1Ev
000000a0 T _ZN8b2IslandD2Ev
         U _ZNK7b2Timer15GetMillisecondsEv
         U _ZSt9terminatev
00000000 T __clang_call_terminate
         U __cxa_begin_catch
         U __gxx_personality_seh0
         U __imp__assert
         U cosf
         U sinf

b2Joint.o:
00000000 a @feat.00
         U _Z5b2LogPKcz
         U _ZN11b2GearJointC1EPK14b2GearJointDef
         U _ZN11b2RopeJointC1EPK14b2RopeJointDef
         U _ZN11b2WeldJointC1EPK14b2WeldJointDef
         U _ZN12b2MotorJointC1EPK15b2MotorJointDef
         U _ZN12b2MouseJointC1EPK15b2MouseJointDef
         U _ZN12b2WheelJointC1EPK15b2WheelJointDef
         U _ZN13b2PulleyJointC1EPK16b2PulleyJointDef
         U _ZN15b2DistanceJointC1EPK18b2DistanceJointDef
         U _ZN15b2FrictionJointC1EPK18b2FrictionJointDef
         U _ZN15b2RevoluteJointC1EPK18b2RevoluteJointDef
         U _ZN16b2BlockAllocator4FreeEPvi
         U _ZN16b2BlockAllocator8AllocateEi
         U _ZN16b2PrismaticJointC1EPK19b2PrismaticJointDef
00000000 T _ZN7b2Joint11ShiftOriginERK6b2Vec2
00000000 T _ZN7b2Joint4DumpEv
00000000 T _ZN7b2Joint6CreateEPK10b2JointDefP16b2BlockAllocator
000001a0 T _ZN7b2Joint7DestroyEPS_P16b2BlockAllocator
00000200 T _ZN7b2JointC2EPK10b2JointDef
00000000 T _ZN7b2JointD0Ev
00000000 T _ZN7b2JointD2Ev
00000280 T _ZNK7b2Joint8IsActiveEv
00000000 R _ZTI7b2Joint
00000000 R _ZTS7b2Joint
00000000 R _ZTV7b2Joint
         U _ZTVN10__cxxabiv117__class_type_infoE
         U __cxa_pure_virtual
         U __imp__assert

b2Math.o:
00000000 a @feat.00
000002d0 T _ZNK7b2Mat3312GetInverse22EPS_
00000350 T _ZNK7b2Mat3315GetSymInverse33EPS_
00000240 T _ZNK7b2Mat337Solve22ERK6b2Vec2
00000000 T _ZNK7b2Mat337Solve33ERK6b2Vec3
00000074 R b2Vec2_zero

b2MotorJoint.o:
00000000 a @feat.00
         U _Z5b2LogPKcz
00000a40 T _ZN12b2MotorJoint11SetMaxForceEf
00000ac0 T _ZN12b2MotorJoint12SetMaxTorqueEf
00000bd0 T _ZN12b2MotorJoint15SetLinearOffsetERK6b2Vec2
00000c50 T _ZN12b2MotorJoint16SetAngularOffsetEf
00000b40 T _ZN12b2MotorJoint19SetCorrectionFactorEf
000000e0 T _ZN12b2MotorJoint23InitVelocityConstraintsERK12b2SolverData
000009d0 T _ZN12b2MotorJoint24SolvePositionConstraintsERK12b2SolverData
00000640 T _ZN12b2MotorJoint24SolveVelocityConstraintsERK12b2SolverData
00000cc0 T _ZN12b2MotorJoint4DumpEv
00000070 T _ZN12b2MotorJointC1EPK15b2MotorJointDef
00000070 T _ZN12b2MotorJointC2EPK15b2MotorJointDef
00000000 T _ZN12b2MotorJointD0Ev
00000000 T _ZN15b2MotorJointDef10InitializeEP6b2BodyS1_
00000000 T _ZN7b2Joint11ShiftOriginERK6b2Vec2
         U _ZN7b2JointC2EPK10b2JointDef
00000000 T _ZN7b2JointD2Ev
000009e0 T _ZNK12b2MotorJoint10GetAnchorAEv
000009f0 T _ZNK12b2MotorJoint10GetAnchorBEv
00000ab0 T _ZNK12b2MotorJoint11GetMaxForceEv
00000b30 T _ZNK12b2MotorJoint12GetMaxTorqueEv
00000c40 T _ZNK12b2MotorJoint15GetLinearOffsetEv
00000cb0 T _ZNK12b2MotorJoint16GetAngularOffsetEv
00000a00 T _ZNK12b2MotorJoint16GetReactionForceEf
00000a30 T _ZNK12b2MotorJoint17GetReactionTorqueEf
00000bc0 T _ZNK12b2MotorJoint19GetCorrectionFactorEv
00000000 R _ZTI12b2MotorJoint
00000000 R _ZTI7b2Joint
00000000 R _ZTS12b2MotorJoint
00000000 R _ZTS7b2Joint
00000040 R _ZTV12b2MotorJoint
         U _ZTVN10__cxxabiv117__class_type_infoE
         U _ZTVN10__cxxabiv120__si_class_type_infoE
         U _ZdlPv
         U __imp__assert
         U cosf
         U sinf

b2MouseJoint.o:
00000000 a @feat.00
         U _Z5b2LogPKcz
00000270 T _ZN12b2MouseJoint11SetMaxForceEf
00000870 T _ZN12b2MouseJoint11ShiftOriginERK6b2Vec2
00000290 T _ZN12b2MouseJoint12SetFrequencyEf
000002b0 T _ZN12b2MouseJoint15SetDampingRatioEf
000002d0 T _ZN12b2MouseJoint23InitVelocityConstraintsERK12b2SolverData
000007b0 T _ZN12b2MouseJoint24SolvePositionConstraintsERK12b2SolverData
00000620 T _ZN12b2MouseJoint24SolveVelocityConstraintsERK12b2SolverData
00000000 T _ZN12b2MouseJoint4DumpEv
00000230 T _ZN12b2MouseJoint9SetTargetERK6b2Vec2
00000000 T _ZN12b2MouseJointC1EPK15b2MouseJointDef
00000000 T _ZN12b2MouseJointC2EPK15b2MouseJointDef
00000000 T _ZN12b2MouseJointD0Ev
         U _ZN7b2JointC2EPK10b2JointDef
00000000 T _ZN7b2JointD2Ev
000007c0 T _ZNK12b2MouseJoint10GetAnchorAEv
000007d0 T _ZNK12b2MouseJoint10GetAnchorBEv
00000280 T _ZNK12b2MouseJoint11GetMaxForceEv
000002a0 T _ZNK12b2MouseJoint12GetFrequencyEv
000002c0 T _ZNK12b2MouseJoint15GetDampingRatioEv
00000830 T _ZNK12b2MouseJoint16GetReactionForceEf
00000860 T _ZNK12b2MouseJoint17GetReactionTorqueEf
00000260 T _ZNK12b2MouseJoint9GetTargetEv
00000000 R _ZTI12b2MouseJoint
00000000 R _ZTI7b2Joint
00000000 R _ZTS12b2MouseJoint
00000000 R _ZTS7b2Joint
00000050 R _ZTV12b2MouseJoint
         U _ZTVN10__cxxabiv117__class_type_infoE
         U _ZTVN10__cxxabiv120__si_class_type_infoE
         U _ZdlPv
         U __imp__assert
         U cosf
         U sinf

b2PolygonAndCircleContact.o:
00000000 a @feat.00
         U _Z25b2CollidePolygonAndCircleP10b2ManifoldPK14b2PolygonShapeRK11b2TransformPK13b2CircleShapeS6_
         U _ZN16b2BlockAllocator4FreeEPvi
         U _ZN16b2BlockAllocator8AllocateEi
00000000 T _ZN25b2PolygonAndCircleContact6CreateEP9b2FixtureiS1_iP16b2BlockAllocator
000000a0 T _ZN25b2PolygonAndCircleContact7DestroyEP9b2ContactP16b2BlockAllocator
00000150 T _ZN25b2PolygonAndCircleContact8EvaluateEP10b2ManifoldRK11b2TransformS4_
000000d0 T _ZN25b2PolygonAndCircleContactC1EP9b2FixtureS1_
000000d0 T _ZN25b2PolygonAndCircleContactC2EP9b2FixtureS1_
00000000 T _ZN25b2PolygonAndCircleContactD0Ev
         U _ZN9b2ContactC2EP9b2FixtureiS1_i
00000000 T _ZN9b2ContactD2Ev
00000000 R _ZTI25b2PolygonAndCircleContact
00000000 R _ZTI9b2Contact
00000000 R _ZTS25b2PolygonAndCircleContact
00000000 R _ZTS9b2Contact
00000000 R _ZTV25b2PolygonAndCircleContact
         U _ZTVN10__cxxabiv117__class_type_infoE
         U _ZTVN10__cxxabiv120__si_class_type_infoE
         U _ZdlPv
         U __imp__assert

b2PolygonContact.o:
00000000 a @feat.00
         U _Z17b2CollidePolygonsP10b2ManifoldPK14b2PolygonShapeRK11b2TransformS3_S6_
         U _ZN16b2BlockAllocator4FreeEPvi
         U _ZN16b2BlockAllocator8AllocateEi
00000000 T _ZN16b2PolygonContact6CreateEP9b2FixtureiS1_iP16b2BlockAllocator
000000a0 T _ZN16b2PolygonContact7DestroyEP9b2ContactP16b2BlockAllocator
00000150 T _ZN16b2PolygonContact8EvaluateEP10b2ManifoldRK11b2TransformS4_
000000d0 T _ZN16b2PolygonContactC1EP9b2FixtureS1_
000000d0 T _ZN16b2PolygonContactC2EP9b2FixtureS1_
00000000 T _ZN16b2PolygonContactD0Ev
         U _ZN9b2ContactC2EP9b2FixtureiS1_i
00000000 T _ZN9b2ContactD2Ev
00000000 R _ZTI16b2PolygonContact
00000000 R _ZTI9b2Contact
00000000 R _ZTS16b2PolygonContact
00000000 R _ZTS9b2Contact
00000000 R _ZTV16b2PolygonContact
         U _ZTVN10__cxxabiv117__class_type_infoE
         U _ZTVN10__cxxabiv120__si_class_type_infoE
         U _ZdlPv
         U __imp__assert

b2PolygonShape.o:
00000000 a @feat.00
00000270 T _ZN14b2PolygonShape3SetEPK6b2Vec2i
00000070 T _ZN14b2PolygonShape8SetAsBoxEff
000000e0 T _ZN14b2PolygonShape8SetAsBoxEffRK6b2Vec2f
00000000 T _ZN14b2PolygonShapeD0Ev
         U _ZN16b2BlockAllocator8AllocateEi
00000000 T _ZN7b2ShapeD2Ev
00000de0 T _ZNK14b2PolygonShape11ComputeAABBEP6b2AABBRK11b2Transformi
00000ef0 T _ZNK14b2PolygonShape11ComputeMassEP10b2MassDataf
00000260 T _ZNK14b2PolygonShape13GetChildCountEv
00000000 T _ZNK14b2PolygonShape5CloneEP16b2BlockAllocator
00000b40 T _ZNK14b2PolygonShape7RayCastEP15b2RayCastOutputRK14b2RayCastInputRK11b2Transformi
00001240 T _ZNK14b2PolygonShape8ValidateEv
00000a70 T _ZNK14b2PolygonShape9TestPointERK11b2TransformRK6b2Vec2
00000000 R _ZTI14b2PolygonShape
00000000 R _ZTI7b2Shape
00000000 R _ZTS14b2PolygonShape
00000000 R _ZTS7b2Shape
000001b0 R _ZTV14b2PolygonShape
         U _ZTVN10__cxxabiv117__class_type_infoE
         U _ZTVN10__cxxabiv120__si_class_type_infoE
         U _ZdlPv
         U __imp__assert
         U cosf
         U memcpy
         U sinf

b2PrismaticJoint.o:
00000000 a @feat.00
         U _Z5b2LogPKcz
00001a00 T _ZN16b2PrismaticJoint11EnableLimitEb
00001b40 T _ZN16b2PrismaticJoint11EnableMotorEb
00001bb0 T _ZN16b2PrismaticJoint13SetMotorSpeedEf
00001c10 T _ZN16b2PrismaticJoint16SetMaxMotorForceEf
00000220 T _ZN16b2PrismaticJoint23InitVelocityConstraintsERK12b2SolverData
00000dd0 T _ZN16b2PrismaticJoint24SolvePositionConstraintsERK12b2SolverData
00000870 T _ZN16b2PrismaticJoint24SolveVelocityConstraintsERK12b2SolverData
00001c80 T _ZN16b2PrismaticJoint4DumpEv
00001a80 T _ZN16b2PrismaticJoint9SetLimitsEff
00000110 T _ZN16b2PrismaticJointC1EPK19b2PrismaticJointDef
00000110 T _ZN16b2PrismaticJointC2EPK19b2PrismaticJointDef
00000000 T _ZN16b2PrismaticJointD0Ev
00000000 T _ZN19b2PrismaticJointDef10InitializeEP6b2BodyS1_RK6b2Vec2S4_
00000000 T _ZN7b2Joint11ShiftOriginERK6b2Vec2
         U _ZN7b2JointC2EPK10b2JointDef
00000000 T _ZN7b2JointD2Ev
00001600 T _ZNK16b2PrismaticJoint10GetAnchorAEv
00001660 T _ZNK16b2PrismaticJoint10GetAnchorBEv
00001850 T _ZNK16b2PrismaticJoint13GetJointSpeedEv
00001a60 T _ZNK16b2PrismaticJoint13GetLowerLimitEv
00001c70 T _ZNK16b2PrismaticJoint13GetMotorForceEf
00001a70 T _ZNK16b2PrismaticJoint13GetUpperLimitEv
000019f0 T _ZNK16b2PrismaticJoint14IsLimitEnabledEv
00001b30 T _ZNK16b2PrismaticJoint14IsMotorEnabledEv
000016c0 T _ZNK16b2PrismaticJoint16GetReactionForceEf
00001720 T _ZNK16b2PrismaticJoint17GetReactionTorqueEf
00001730 T _ZNK16b2PrismaticJoint19GetJointTranslationEv
         U _ZNK7b2Mat337Solve22ERK6b2Vec2
         U _ZNK7b2Mat337Solve33ERK6b2Vec3
00000000 R _ZTI16b2PrismaticJoint
00000000 R _ZTI7b2Joint
00000000 R _ZTS16b2PrismaticJoint
00000000 R _ZTS7b2Joint
000000a0 R _ZTV16b2PrismaticJoint
         U _ZTVN10__cxxabiv117__class_type_infoE
         U _ZTVN10__cxxabiv120__si_class_type_infoE
         U _ZdlPv
         U __imp__assert
         U cosf
         U sinf

b2PulleyJoint.o:
00000000 a @feat.00
         U _Z5b2LogPKcz
000010e0 T _ZN13b2PulleyJoint11ShiftOriginERK6b2Vec2
00000200 T _ZN13b2PulleyJoint23InitVelocityConstraintsERK12b2SolverData
000008e0 T _ZN13b2PulleyJoint24SolvePositionConstraintsERK12b2SolverData
00000680 T _ZN13b2PulleyJoint24SolveVelocityConstraintsERK12b2SolverData
00000f50 T _ZN13b2PulleyJoint4DumpEv
00000150 T _ZN13b2PulleyJointC1EPK16b2PulleyJointDef
00000150 T _ZN13b2PulleyJointC2EPK16b2PulleyJointDef
00000000 T _ZN13b2PulleyJointD0Ev
00000000 T _ZN16b2PulleyJointDef10InitializeEP6b2BodyS1_RK6b2Vec2S4_S4_S4_f
         U _ZN7b2JointC2EPK10b2JointDef
00000000 T _ZN7b2JointD2Ev
00000d10 T _ZNK13b2PulleyJoint10GetAnchorAEv
00000d70 T _ZNK13b2PulleyJoint10GetAnchorBEv
00000e40 T _ZNK13b2PulleyJoint10GetLengthAEv
00000e50 T _ZNK13b2PulleyJoint10GetLengthBEv
00000e20 T _ZNK13b2PulleyJoint16GetGroundAnchorAEv
00000e30 T _ZNK13b2PulleyJoint16GetGroundAnchorBEv
00000dd0 T _ZNK13b2PulleyJoint16GetReactionForceEf
00000e70 T _ZNK13b2PulleyJoint17GetCurrentLengthAEv
00000ee0 T _ZNK13b2PulleyJoint17GetCurrentLengthBEv
00000e10 T _ZNK13b2PulleyJoint17GetReactionTorqueEf
00000e60 T _ZNK13b2PulleyJoint8GetRatioEv
00000000 R _ZTI13b2PulleyJoint
00000000 R _ZTI7b2Joint
00000000 R _ZTS13b2PulleyJoint
00000000 R _ZTS7b2Joint
000000b8 R _ZTV13b2PulleyJoint
         U _ZTVN10__cxxabiv117__class_type_infoE
         U _ZTVN10__cxxabiv120__si_class_type_infoE
         U _ZdlPv
         U __imp__assert
         U cosf
         U sinf

b2RevoluteJoint.o:
00000000 a @feat.00
         U _Z5b2LogPKcz
000013c0 T _ZN15b2RevoluteJoint11EnableLimitEb
00001270 T _ZN15b2RevoluteJoint11EnableMotorEb
000012f0 T _ZN15b2RevoluteJoint13SetMotorSpeedEf
00001350 T _ZN15b2RevoluteJoint17SetMaxMotorTorqueEf
00000150 T _ZN15b2RevoluteJoint23InitVelocityConstraintsERK12b2SolverData
00000bd0 T _ZN15b2RevoluteJoint24SolvePositionConstraintsERK12b2SolverData
000006c0 T _ZN15b2RevoluteJoint24SolveVelocityConstraintsERK12b2SolverData
000014f0 T _ZN15b2RevoluteJoint4DumpEv
00001440 T _ZN15b2RevoluteJoint9SetLimitsEff
000000c0 T _ZN15b2RevoluteJointC1EPK18b2RevoluteJointDef
000000c0 T _ZN15b2RevoluteJointC2EPK18b2RevoluteJointDef
00000000 T _ZN15b2RevoluteJointD0Ev
00000000 T _ZN18b2RevoluteJointDef10InitializeEP6b2BodyS1_RK6b2Vec2
00000000 T _ZN7b2Joint11ShiftOriginERK6b2Vec2
         U _ZN7b2JointC2EPK10b2JointDef
00000000 T _ZN7b2JointD2Ev
00001120 T _ZNK15b2RevoluteJoint10GetAnchorAEv
00001180 T _ZNK15b2RevoluteJoint10GetAnchorBEv
00001220 T _ZNK15b2RevoluteJoint13GetJointAngleEv
00001240 T _ZNK15b2RevoluteJoint13GetJointSpeedEv
00001420 T _ZNK15b2RevoluteJoint13GetLowerLimitEv
00001430 T _ZNK15b2RevoluteJoint13GetUpperLimitEv
000012e0 T _ZNK15b2RevoluteJoint14GetMotorTorqueEf
000013b0 T _ZNK15b2RevoluteJoint14IsLimitEnabledEv
00001260 T _ZNK15b2RevoluteJoint14IsMotorEnabledEv
000011e0 T _ZNK15b2RevoluteJoint16GetReactionForceEf
00001210 T _ZNK15b2RevoluteJoint17GetReactionTorqueEf
         U _ZNK7b2Mat337Solve22ERK6b2Vec2
         U _ZNK7b2Mat337Solve33ERK6b2Vec3
00000000 R _ZTI15b2RevoluteJoint
00000000 R _ZTI7b2Joint
00000000 R _ZTS15b2RevoluteJoint
00000000 R _ZTS7b2Joint
00000060 R _ZTV15b2RevoluteJoint
         U _ZTVN10__cxxabiv117__class_type_infoE
         U _ZTVN10__cxxabiv120__si_class_type_infoE
         U _ZdlPv
         U __imp__assert
         U cosf
         U sinf

b2Rope.o:
00000000 a @feat.00
0000000c r GCC_except_table1
         U _Z6b2FreePv
         U _Z7b2Alloci
00000080 T _ZN6b2Rope10InitializeEPK9b2RopeDef
000003b0 T _ZN6b2Rope4StepEfi
000007a0 T _ZN6b2Rope7SolveC2Ev
00000930 T _ZN6b2Rope7SolveC3Ev
00000c80 T _ZN6b2Rope8SetAngleEf
00000000 T _ZN6b2RopeC1Ev
00000000 T _ZN6b2RopeC2Ev
00000030 T _ZN6b2RopeD1Ev
00000030 T _ZN6b2RopeD2Ev
00000ce0 T _ZNK6b2Rope4DrawEP6b2Draw
         U _ZSt9terminatev
00000000 T __clang_call_terminate
         U __cxa_begin_catch
         U __gxx_personality_seh0
         U __imp__assert
         U atan2f
         U expf

b2RopeJoint.o:
00000000 a @feat.00
         U _Z5b2LogPKcz
00000060 T _ZN11b2RopeJoint23InitVelocityConstraintsERK12b2SolverData
00000710 T _ZN11b2RopeJoint24SolvePositionConstraintsERK12b2SolverData
000004b0 T _ZN11b2RopeJoint24SolveVelocityConstraintsERK12b2SolverData
00000b00 T _ZN11b2RopeJoint4DumpEv
00000000 T _ZN11b2RopeJointC1EPK14b2RopeJointDef
00000000 T _ZN11b2RopeJointC2EPK14b2RopeJointDef
00000000 T _ZN11b2RopeJointD0Ev
00000000 T _ZN7b2Joint11ShiftOriginERK6b2Vec2
         U _ZN7b2JointC2EPK10b2JointDef
00000000 T _ZN7b2JointD2Ev
000009e0 T _ZNK11b2RopeJoint10GetAnchorAEv
00000a40 T _ZNK11b2RopeJoint10GetAnchorBEv
00000ae0 T _ZNK11b2RopeJoint12GetMaxLengthEv
00000af0 T _ZNK11b2RopeJoint13GetLimitStateEv
00000aa0 T _ZNK11b2RopeJoint16GetReactionForceEf
00000ad0 T _ZNK11b2RopeJoint17GetReactionTorqueEf
00000000 R _ZTI11b2RopeJoint
00000000 R _ZTI7b2Joint
00000000 R _ZTS11b2RopeJoint
00000000 R _ZTS7b2Joint
00000040 R _ZTV11b2RopeJoint
         U _ZTVN10__cxxabiv117__class_type_infoE
         U _ZTVN10__cxxabiv120__si_class_type_infoE
         U _ZdlPv
         U cosf
         U sinf

b2Settings.o:
00000000 a @feat.00
00000020 T _Z5b2LogPKcz
00000010 T _Z6b2FreePv
00000000 T _Z7b2Alloci
00000000 D b2_version
         U free
         U malloc
         U vprintf

b2StackAllocator.o:
00000000 a @feat.00
0000000c r GCC_except_table1
         U _Z6b2FreePv
         U _Z7b2Alloci
00000120 T _ZN16b2StackAllocator4FreeEPv
00000070 T _ZN16b2StackAllocator8AllocateEi
00000000 T _ZN16b2StackAllocatorC1Ev
00000000 T _ZN16b2StackAllocatorC2Ev
00000020 T _ZN16b2StackAllocatorD1Ev
00000020 T _ZN16b2StackAllocatorD2Ev
000001c0 T _ZNK16b2StackAllocator16GetMaxAllocationEv
         U _ZSt9terminatev
00000000 T __clang_call_terminate
         U __cxa_begin_catch
         U __gxx_personality_seh0
         U __imp__assert

b2TimeOfImpact.o:
00000000 a @feat.00
         U _Z10b2DistanceP16b2DistanceOutputP14b2SimplexCachePK15b2DistanceInput
00000000 T _Z14b2TimeOfImpactP11b2TOIOutputPK10b2TOIInput
00000000 T _ZN20b2SeparationFunction10InitializeEPK14b2SimplexCachePK15b2DistanceProxyRK7b2SweepS5_S8_f
         U _ZN7b2TimerC1Ev
00000000 T _ZNK20b2SeparationFunction17FindMinSeparationEPiS0_f
00000000 T _ZNK20b2SeparationFunction8EvaluateEiif
         U _ZNK7b2Timer15GetMillisecondsEv
         U __imp__assert
00000008 B b2_toiCalls
0000000c B b2_toiIters
00000010 B b2_toiMaxIters
00000018 B b2_toiMaxRootIters
00000004 B b2_toiMaxTime
00000014 B b2_toiRootIters
00000000 B b2_toiTime
         U cosf
         U floorf
         U sinf

b2Timer.o:
00000000 a @feat.00
00000000 B _ZN7b2Timer14s_invFrequencyE
00000080 T _ZN7b2Timer5ResetEv
00000000 T _ZN7b2TimerC1Ev
00000000 T _ZN7b2TimerC2Ev
000000b0 T _ZNK7b2Timer15GetMillisecondsEv
         U __imp_QueryPerformanceCounter
         U __imp_QueryPerformanceFrequency

b2WeldJoint.o:
00000000 a @feat.00
         U _Z5b2LogPKcz
00000130 T _ZN11b2WeldJoint23InitVelocityConstraintsERK12b2SolverData
00000ae0 T _ZN11b2WeldJoint24SolvePositionConstraintsERK12b2SolverData
000006c0 T _ZN11b2WeldJoint24SolveVelocityConstraintsERK12b2SolverData
000010e0 T _ZN11b2WeldJoint4DumpEv
000000c0 T _ZN11b2WeldJointC1EPK14b2WeldJointDef
000000c0 T _ZN11b2WeldJointC2EPK14b2WeldJointDef
00000000 T _ZN11b2WeldJointD0Ev
00000000 T _ZN14b2WeldJointDef10InitializeEP6b2BodyS1_RK6b2Vec2
00000000 T _ZN7b2Joint11ShiftOriginERK6b2Vec2
         U _ZN7b2JointC2EPK10b2JointDef
00000000 T _ZN7b2JointD2Ev
00000fe0 T _ZNK11b2WeldJoint10GetAnchorAEv
00001040 T _ZNK11b2WeldJoint10GetAnchorBEv
000010a0 T _ZNK11b2WeldJoint16GetReactionForceEf
000010d0 T _ZNK11b2WeldJoint17GetReactionTorqueEf
         U _ZNK7b2Mat3312GetInverse22EPS_
         U _ZNK7b2Mat3315GetSymInverse33EPS_
         U _ZNK7b2Mat337Solve22ERK6b2Vec2
         U _ZNK7b2Mat337Solve33ERK6b2Vec3
00000000 R _ZTI11b2WeldJoint
00000000 R _ZTI7b2Joint
00000000 R _ZTS11b2WeldJoint
00000000 R _ZTS7b2Joint
00000058 R _ZTV11b2WeldJoint
         U _ZTVN10__cxxabiv117__class_type_infoE
         U _ZTVN10__cxxabiv120__si_class_type_infoE
         U _ZdlPv
         U cosf
         U sinf

b2WheelJoint.o:
00000000 a @feat.00
         U _Z5b2LogPKcz
00001130 T _ZN12b2WheelJoint11EnableMotorEb
000011a0 T _ZN12b2WheelJoint13SetMotorSpeedEf
00001200 T _ZN12b2WheelJoint17SetMaxMotorTorqueEf
000001c0 T _ZN12b2WheelJoint23InitVelocityConstraintsERK12b2SolverData
00000b60 T _ZN12b2WheelJoint24SolvePositionConstraintsERK12b2SolverData
00000830 T _ZN12b2WheelJoint24SolveVelocityConstraintsERK12b2SolverData
00001270 T _ZN12b2WheelJoint4DumpEv
00000100 T _ZN12b2WheelJointC1EPK15b2WheelJointDef
00000100 T _ZN12b2WheelJointC2EPK15b2WheelJointDef
00000000 T _ZN12b2WheelJointD0Ev
00000000 T _ZN15b2WheelJointDef10InitializeEP6b2BodyS1_RK6b2Vec2S4_
00000000 T _ZN7b2Joint11ShiftOriginERK6b2Vec2
         U _ZN7b2JointC2EPK10b2JointDef
00000000 T _ZN7b2JointD2Ev
00000eb0 T _ZNK12b2WheelJoint10GetAnchorAEv
00000f10 T _ZNK12b2WheelJoint10GetAnchorBEv
00001100 T _ZNK12b2WheelJoint13GetJointSpeedEv
00001260 T _ZNK12b2WheelJoint14GetMotorTorqueEf
00001120 T _ZNK12b2WheelJoint14IsMotorEnabledEv
00000f70 T _ZNK12b2WheelJoint16GetReactionForceEf
00000fd0 T _ZNK12b2WheelJoint17GetReactionTorqueEf
00000fe0 T _ZNK12b2WheelJoint19GetJointTranslationEv
00000000 R _ZTI12b2WheelJoint
00000000 R _ZTI7b2Joint
00000000 R _ZTS12b2WheelJoint
00000000 R _ZTS7b2Joint
00000060 R _ZTV12b2WheelJoint
         U _ZTVN10__cxxabiv117__class_type_infoE
         U _ZTVN10__cxxabiv120__si_class_type_infoE
         U _ZdlPv
         U cosf
         U sinf

b2World.o:
00000000 a @feat.00
00000010 r GCC_except_table0
00000038 r GCC_except_table1
000000a0 r GCC_except_table12
0000011c r GCC_except_table13
00000018 r GCC_except_table27
0000000c r GCC_except_table28
00000044 r GCC_except_table29
         U _Unwind_Resume
         U _Z14b2TimeOfImpactP11b2TOIOutputPK10b2TOIInput
         U _Z5b2LogPKcz
         U _Z6b2FreePv
         U _Z7b2Alloci
         U _ZN12b2BroadPhaseD1Ev
         U _ZN13b2DynamicTree11ShiftOriginERK6b2Vec2
         U _ZN15b2DistanceProxy3SetEPK7b2Shapei
00000000 T _ZN15b2GrowableStackIiLi256EED2Ev
         U _ZN16b2BlockAllocator4FreeEPvi
         U _ZN16b2BlockAllocator8AllocateEi
         U _ZN16b2BlockAllocatorC1Ev
         U _ZN16b2BlockAllocatorD1Ev
         U _ZN16b2ContactManager15FindNewContactsEv
         U _ZN16b2ContactManager7CollideEv
         U _ZN16b2ContactManager7DestroyEP9b2Contact
         U _ZN16b2ContactManagerC1Ev
         U _ZN16b2StackAllocator4FreeEPv
         U _ZN16b2StackAllocator8AllocateEi
         U _ZN16b2StackAllocatorC1Ev
         U _ZN16b2StackAllocatorD1Ev
         U _ZN6b2Body19SynchronizeFixturesEv
         U _ZN6b2Body4DumpEv
         U _ZN6b2BodyC1EPK9b2BodyDefP7b2World
         U _ZN6b2BodyD1Ev
         U _ZN7b2Joint6CreateEPK10b2JointDefP16b2BlockAllocator
         U _ZN7b2Joint7DestroyEPS_P16b2BlockAllocator
         U _ZN7b2TimerC1Ev
00000190 T _ZN7b2World10CreateBodyEPK9b2BodyDef
00001bc0 T _ZN7b2World11ClearForcesEv
00000590 T _ZN7b2World11CreateJointEPK10b2JointDef
00000210 T _ZN7b2World11DestroyBodyEP6b2Body
000026f0 T _ZN7b2World11ShiftOriginERK6b2Vec2
000003e0 T _ZN7b2World12DestroyJointEP7b2Joint
00000180 T _ZN7b2World12SetDebugDrawEP6b2Draw
000023a0 T _ZN7b2World13DrawDebugDataEv
000006b0 T _ZN7b2World16SetAllowSleepingEb
00000160 T _ZN7b2World16SetContactFilterEP15b2ContactFilter
00000170 T _ZN7b2World18SetContactListenerEP17b2ContactListener
00000150 T _ZN7b2World22SetDestructionListenerEP21b2DestructionListener
000027c0 T _ZN7b2World4DumpEv
000019f0 T _ZN7b2World4StepEfii
00000700 T _ZN7b2World5SolveERK10b2TimeStep
00000c50 T _ZN7b2World8SolveTOIERK10b2TimeStep
00002240 T _ZN7b2World9DrawJointEP7b2Joint
00001c70 T _ZN7b2World9DrawShapeEP9b2FixtureRK11b2TransformRK7b2Color
00000000 T _ZN7b2WorldC1ERK6b2Vec2
00000000 T _ZN7b2WorldC2ERK6b2Vec2
000000d0 T _ZN7b2WorldD1Ev
000000d0 T _ZN7b2WorldD2Ev
         U _ZN8b2Island5SolveEP9b2ProfileRK10b2TimeStepRK6b2Vec2b
         U _ZN8b2Island8SolveTOIERK10b2TimeStepii
         U _ZN8b2IslandC1EiiiP16b2StackAllocatorP17b2ContactListener
         U _ZN8b2IslandD1Ev
         U _ZN9b2Contact6UpdateEP17b2ContactListener
         U _ZN9b2Fixture14DestroyProxiesEP12b2BroadPhase
         U _ZN9b2Fixture7DestroyEP16b2BlockAllocator
         U _ZNK13b2DynamicTree12GetAreaRatioEv
         U _ZNK13b2DynamicTree13GetMaxBalanceEv
00000000 T _ZNK13b2DynamicTree5QueryI19b2WorldQueryWrapperEEvPT_RK6b2AABB
00000000 T _ZNK13b2DynamicTree7RayCastI21b2WorldRayCastWrapperEEvPT_RK14b2RayCastInput
         U _ZNK13b2DynamicTree9GetHeightEv
         U _ZNK13b2PulleyJoint16GetGroundAnchorAEv
         U _ZNK13b2PulleyJoint16GetGroundAnchorBEv
         U _ZNK6b2Draw8GetFlagsEv
         U _ZNK7b2Timer15GetMillisecondsEv
000026b0 T _ZNK7b2World13GetProxyCountEv
000026c0 T _ZNK7b2World13GetTreeHeightEv
000026d0 T _ZNK7b2World14GetTreeBalanceEv
000026e0 T _ZNK7b2World14GetTreeQualityEv
00001c20 T _ZNK7b2World7RayCastEP17b2RayCastCallbackRK6b2Vec2S4_
00001bf0 T _ZNK7b2World9QueryAABBEP15b2QueryCallbackRK6b2AABB
         U _ZSt9terminatev
00000000 T __clang_call_terminate
         U __cxa_begin_catch
         U __gxx_personality_seh0
         U __imp__assert
         U cosf
         U memcpy
         U sinf

b2WorldCallbacks.o:
00000000 a @feat.00
00000000 T _ZN15b2ContactFilter13ShouldCollideEP9b2FixtureS1_
00000000 T _ZN15b2ContactFilterD0Ev
00000000 T _ZN15b2ContactFilterD2Ev
00000000 R _ZTI15b2ContactFilter
00000000 R _ZTS15b2ContactFilter
00000000 R _ZTV15b2ContactFilter
         U _ZTVN10__cxxabiv117__class_type_infoE
         U _ZdlPv

cJSON.o:
00000000 a @feat.00
         U __imp__assert
         U __imp_tolower
000017a0 t add_item_to_object
00000910 t buffer_skip_whitespace
00002180 T cJSON_AddArrayToObject
00001c10 T cJSON_AddBoolToObject
00001b60 T cJSON_AddFalseToObject
00001740 T cJSON_AddItemToArray
00001790 T cJSON_AddItemToObject
00001900 T cJSON_AddItemToObjectCS
00001a00 T cJSON_AddNullToObject
00001ce0 T cJSON_AddNumberToObject
000020d0 T cJSON_AddObjectToObject
00001f70 T cJSON_AddRawToObject
00001e10 T cJSON_AddStringToObject
00001ab0 T cJSON_AddTrueToObject
00003430 T cJSON_Compare
000021f0 T cJSON_CreateArray
00001c90 T cJSON_CreateBool
00002d40 T cJSON_CreateDoubleArray
00001bd0 T cJSON_CreateFalse
00002b70 T cJSON_CreateFloatArray
00002a10 T cJSON_CreateIntArray
00001a70 T cJSON_CreateNull
00001d90 T cJSON_CreateNumber
00002140 T cJSON_CreateObject
00002030 T cJSON_CreateRaw
000029b0 T cJSON_CreateRawFrom
00001ed0 T cJSON_CreateString
00002f10 T cJSON_CreateStringArray
00001b20 T cJSON_CreateTrue
000023d0 T cJSON_DeleteAllItem
00002330 T cJSON_DeleteItemFromArray
000025b0 T cJSON_DeleteItemFromObject
000025d0 T cJSON_DeleteItemFromObjectCaseSensitive
000022a0 T cJSON_DetachItemFromArray
00002400 T cJSON_DetachItemFromObject
00002510 T cJSON_DetachItemFromObjectCaseSensitive
00002230 T cJSON_DetachItemViaPointer
000030f0 T cJSON_Duplicate
00001410 T cJSON_GetArrayItem
000013f0 T cJSON_GetArraySize
00000000 T cJSON_GetErrorPtr
00000040 T cJSON_GetNumberValue
00001450 T cJSON_GetObjectItem
00001630 T cJSON_GetObjectItemCaseSensitive
00000010 T cJSON_GetStringValue
00001680 T cJSON_HasObjectItem
000000b0 T cJSON_InitHooks
00002670 T cJSON_InsertItemInArray
000033f0 T cJSON_IsArray
000033d0 T cJSON_IsBool
000033b0 T cJSON_IsFalse
000033a0 T cJSON_IsInvalid
000033e0 T cJSON_IsNull
00000060 T cJSON_IsNumber
00003400 T cJSON_IsObject
00003410 T cJSON_IsRaw
00000030 T cJSON_IsString
000033c0 T cJSON_IsTrue
00003270 T cJSON_Minify
00000970 T cJSON_Parse
000009b0 T cJSON_ParseWithLength
000002f0 T cJSON_ParseWithLengthOpts
000002b0 T cJSON_ParseWithOpts
000009c0 T cJSON_Print
00000b00 T cJSON_PrintBuffered
00001380 T cJSON_PrintPreallocated
00000af0 T cJSON_PrintUnformatted
00000140 T cJSON_Ref
00000150 T cJSON_Release
000027c0 T cJSON_ReplaceItemInArray
00002880 T cJSON_ReplaceItemInObject
000029a0 T cJSON_ReplaceItemInObjectCaseSensitive
00002730 T cJSON_ReplaceItemViaPointer
000001c0 T cJSON_SetNumberHelper
00000200 T cJSON_SetValuestring
00000070 T cJSON_Version
00000010 b cJSON_Version.version
000002a0 T cJSON_free
00003600 T cJSON_malloc
00003e80 t ensure
         U free
00001510 t get_object_item
00000000 b global_error.0
00000008 b global_error.1
00000000 d global_hooks
         U malloc
         U memcpy
00003d90 t parse_hex4
00003aa0 t parse_object
00003610 t parse_string
000004f0 t parse_value
000009d0 t print
00003f70 t print_string_ptr
00000b90 t print_value
         U realloc
00002890 t replace_item_in_object
         U sprintf
         U sscanf
         U strcmp
         U strcpy
         U strlen
         U strncmp
         U strtod

cjson_fpconv.o:
00000000 a @feat.00
         U __imp___acrt_iob_func
         U __imp__assert
         U abort
00000160 T fpconv_g_fmt
00000250 T fpconv_init
00000000 T fpconv_strtod
         U free
         U fwrite
00000000 d locale_decimal_point
         U malloc
         U memcpy
         U snprintf
         U strchr
         U strtod

cjson_strbuf.o:
00000000 a @feat.00
         U __imp___acrt_iob_func
00000050 t die
         U exit
         U fprintf
         U fputc
         U free
         U malloc
         U realloc
00000370 T strbuf_append_fmt
000003e0 T strbuf_append_fmt_retry
000002f0 T strbuf_append_string
00000150 T strbuf_free
000001c0 T strbuf_free_to_string
00000000 T strbuf_init
000000b0 T strbuf_new
00000240 T strbuf_resize
00000120 T strbuf_set_increment
         U vfprintf
         U vsnprintf

cJSON_Utils.o:
00000000 a @feat.00
         U __imp_tolower
000004b0 t apply_patch
00000ad0 T cJSONUtils_AddPatchToArray
00000450 T cJSONUtils_ApplyPatches
00000a70 T cJSONUtils_ApplyPatchesCaseSensitive
00000000 T cJSONUtils_FindPointerFromObjectTo
000013d0 T cJSONUtils_GenerateMergePatch
00001570 T cJSONUtils_GenerateMergePatchCaseSensitive
00000ca0 T cJSONUtils_GeneratePatches
000011c0 T cJSONUtils_GeneratePatchesCaseSensitive
000001a0 T cJSONUtils_GetPointer
00000440 T cJSONUtils_GetPointerCaseSensitive
00001280 T cJSONUtils_MergePatch
000013c0 T cJSONUtils_MergePatchCaseSensitive
00001220 T cJSONUtils_SortObject
00001250 T cJSONUtils_SortObjectCaseSensitive
         U cJSON_AddItemToArray
         U cJSON_AddItemToObject
         U cJSON_CreateArray
         U cJSON_CreateNull
         U cJSON_CreateObject
         U cJSON_CreateString
         U cJSON_DeleteItemFromObject
         U cJSON_DeleteItemFromObjectCaseSensitive
         U cJSON_DetachItemFromObject
         U cJSON_DetachItemFromObjectCaseSensitive
         U cJSON_Duplicate
         U cJSON_GetObjectItem
         U cJSON_GetObjectItemCaseSensitive
         U cJSON_IsArray
         U cJSON_IsNull
         U cJSON_IsObject
         U cJSON_IsString
         U cJSON_Release
         U cJSON_free
         U cJSON_malloc
00001600 t compare_json
00000af0 t compose_patch
00000d00 t create_patches
00001580 t decode_array_index_from_pointer
000018c0 t detach_path
000013e0 t generate_merge_patch
000001b0 t get_item_from_pointer
000015f0 t get_object_item
00001a90 t insert_item_in_array
         U memcpy
00001290 t merge_patch
00001860 t overwrite_item
00001b10 t sort_list
         U sprintf
         U strcat
         U strcmp
         U strlen
         U strrchr

drystal_audio.o:
00000000 a @feat.00
         U alDeleteSources
         U alGenSources
         U alGetError
         U alGetSourcei
         U alGetString
         U alSourceStop
         U alSourcef
         U alSourcei
         U alcCloseDevice
         U alcCreateContext
         U alcDestroyContext
         U alcMakeContextCurrent
         U alcOpenDevice
00000300 T audio_free
00000450 T audio_get_free_source
000007e0 T audio_get_music_volume
000007f0 T audio_get_sound_volume
00000000 T audio_init_if_needed
00000600 T audio_set_music_volume
000006f0 T audio_set_sound_volume
00000800 T audio_try_free_sound
000001c0 T audio_update
00000190 b context
00000198 b device
00000000 d globalMusicVolume
00000004 d globalSoundVolume
00000000 b initialized
         U log_internal
         U music_update
         U sound_free
00000010 b sources

drystal_audio_api.o:
00000000 a @feat.00
         U luaL_newmetatable
         U lua_pushcclosure
         U lua_pushstring
         U lua_pushvalue
         U lua_setfield
         U mlua_free_music
         U mlua_free_sound
         U mlua_load_music
         U mlua_load_sound
         U mlua_pause_music
         U mlua_play_music
         U mlua_play_sound
         U mlua_set_music_volume
         U mlua_set_pitch_music
         U mlua_set_sound_volume
         U mlua_set_volume_music
         U mlua_stop_music
00000000 T register_audio

drystal_audio_bind.o:
00000000 a @feat.00
         U __imp__assert
         U audio_set_music_volume
         U audio_set_sound_volume
         U luaL_checknumber
         U luaL_error
00000080 T mlua_set_music_volume
00000000 T mlua_set_sound_volume

drystal_body_bind.o:
00000000 R .refptr.pixels_per_meter
00000000 a @feat.00
00001090 T _Z14mlua_dump_bodyP9lua_State
000010f0 T _Z14mlua_free_bodyP9lua_State
00000230 T _Z15pop_body_secureP9lua_Statei
00000950 T _Z18mlua_get_mass_bodyP9lua_State
000005d0 T _Z19mlua_get_angle_bodyP9lua_State
00000570 T _Z19mlua_set_angle_bodyP9lua_State
00000850 T _Z20mlua_set_active_bodyP9lua_State
000008d0 T _Z20mlua_set_bullet_bodyP9lua_State
00000bb0 T _Z21mlua_apply_force_bodyP9lua_State
00000fe0 T _Z22mlua_apply_torque_bodyP9lua_State
000003a0 T _Z22mlua_get_position_bodyP9lua_State
000002f0 T _Z22mlua_set_position_bodyP9lua_State
000009c0 T _Z25mlua_set_mass_center_bodyP9lua_State
00000b40 T _Z28mlua_get_fixed_rotation_bodyP9lua_State
00000750 T _Z28mlua_get_linear_damping_bodyP9lua_State
00000ac0 T _Z28mlua_set_fixed_rotation_bodyP9lua_State
000006f0 T _Z28mlua_set_linear_damping_bodyP9lua_State
00000800 T _Z29mlua_get_angular_damping_bodyP9lua_State
00000270 T _Z29mlua_get_center_position_bodyP9lua_State
000004f0 T _Z29mlua_get_linear_velocity_bodyP9lua_State
000007a0 T _Z29mlua_set_angular_damping_bodyP9lua_State
00000420 T _Z29mlua_set_linear_velocity_bodyP9lua_State
00000d60 T _Z30mlua_apply_linear_impulse_bodyP9lua_State
000006a0 T _Z30mlua_get_angular_velocity_bodyP9lua_State
00000620 T _Z30mlua_set_angular_velocity_bodyP9lua_State
00000f20 T _Z31mlua_apply_angular_impulse_bodyP9lua_State
00000180 T _Z8pop_bodyP9lua_Statei
00000000 T _Z9push_bodyP9lua_StateP4Body
         U _ZN6b2Body11SetMassDataEPK10b2MassData
         U _ZN6b2Body12SetTransformERK6b2Vec2f
         U _ZN6b2Body16SetFixedRotationEb
         U _ZN6b2Body4DumpEv
         U _ZN6b2Body9SetActiveEb
         U _ZdlPv
         U __imp__assert
         U log_internal
         U log_oom_and_exit
         U luaL_argerror
         U luaL_checknumber
         U luaL_error
         U luaL_ref
         U luaL_setmetatable
         U lua_createtable
         U lua_getfield
         U lua_gettop
         U lua_newuserdata
         U lua_pushboolean
         U lua_pushnumber
         U lua_pushvalue
         U lua_rawgeti
         U lua_rotate
         U lua_setfield
         U lua_setmetatable
         U lua_settop
         U lua_toboolean
         U lua_touserdata
         U lua_type
         U pixels_per_meter

drystal_buffer.o:
00000000 a @feat.00
         U __imp__assert
         U __imp_glBindBuffer
         U __imp_glBufferData
         U __imp_glDeleteBuffers
         U __imp_glDisableVertexAttribArray
         U __imp_glDrawArrays
         U __imp_glEnableVertexAttribArray
         U __imp_glGenBuffers
         U __imp_glUniform1f
         U __imp_glUniform2f
         U __imp_glUniformMatrix2fv
         U __imp_glUseProgram
         U __imp_glVertexAttribPointer
00000050 T buffer_allocate
00000220 T buffer_check_empty
00000100 T buffer_check_not_full
000002f0 T buffer_check_not_use_texture
00000270 T buffer_check_use_texture
000005f0 T buffer_draw
000000b0 T buffer_free
00000000 T buffer_new
000003c0 T buffer_push_color
00000440 T buffer_push_tex_coord
00000350 T buffer_push_vertex
00000520 t buffer_upload
000004b0 T buffer_upload_and_free
         U check_opengl_oom
         U free
         U log_internal
         U xcalloc
         U xmalloc
         U xrealloc

drystal_buffer_bind.o:
00000000 a @feat.00
         U __imp__assert
         U buffer_upload_and_free
         U display_draw_buffer
         U display_free_buffer
         U display_new_buffer
         U display_use_buffer
         U display_use_default_buffer
         U log_oom_and_exit
         U luaL_argerror
         U luaL_checkinteger
         U luaL_checknumber
         U luaL_error
         U luaL_ref
         U luaL_setmetatable
         U lua_createtable
         U lua_getfield
         U lua_gettop
         U lua_newuserdata
         U lua_pushvalue
         U lua_rawgeti
         U lua_rotate
         U lua_setfield
         U lua_setmetatable
         U lua_settop
         U lua_touserdata
         U lua_type
00000340 T mlua_draw_buffer
000004d0 T mlua_free_buffer
00000230 T mlua_new_buffer
000003f0 T mlua_reset_buffer
00000460 T mlua_upload_and_free_buffer
000002d0 T mlua_use_buffer
00000330 T mlua_use_default_buffer
00000180 T pop_buffer
00000000 T push_buffer

drystal_camera.o:
00000000 a @feat.00
         U __imp__assert
00000000 b cameraStack
00000800 b cameraStackIndex
00000020 T camera_free
00000000 T camera_new
000001e0 T camera_pop
00000150 T camera_push
00000110 T camera_reset
00000260 T camera_stack_is_empty
000001d0 T camera_stack_is_full
00000030 T camera_update_matrix
         U cosf
         U free
         U sinf
         U xcalloc

drystal_camera_bind.o:
00000000 a @feat.00
         U __imp__assert
         U camera_stack_is_empty
         U camera_stack_is_full
         U display_get_camera
         U display_pop_camera
         U display_push_camera
         U display_reset_camera
         U display_set_camera_angle
         U display_set_camera_position
         U display_set_camera_zoom
         U luaL_checklstring
         U luaL_checknumber
         U luaL_error
         U lua_pushnumber
         U lua_rawset
00000120 T mlua_camera__index
00000000 T mlua_camera__newindex
00000250 T mlua_camera_pop
00000200 T mlua_camera_push
000001f0 T mlua_camera_reset
         U strcmp

drystal_display.o:
00000000 R .refptr.DEFAULT_FRAGMENT_SHADER_COLOR
00000000 R .refptr.DEFAULT_FRAGMENT_SHADER_TEX
00000000 R .refptr.DEFAULT_VERTEX_SHADER
00000000 R .refptr.SHADER_PREFIX
00000000 a @feat.00
         U DEFAULT_FRAGMENT_SHADER_COLOR
         U DEFAULT_FRAGMENT_SHADER_TEX
         U DEFAULT_VERTEX_SHADER
         U SDL_CreateWindow
         U SDL_DestroyWindow
         U SDL_GL_CreateContext
         U SDL_GL_DeleteContext
         U SDL_GL_SetAttribute
         U SDL_GL_SetSwapInterval
         U SDL_GL_SwapWindow
         U SDL_GetError
         U SDL_GetWindowPosition
         U SDL_GetWindowSize
         U SDL_InitSubSystem
         U SDL_QuitSubSystem
         U SDL_SetWindowFullscreen
         U SDL_SetWindowPosition
         U SDL_SetWindowSize
         U SDL_SetWindowTitle
         U SDL_ShowCursor
         U SHADER_PREFIX
         U __imp__assert
         U __imp_glAttachShader
         U __imp_glBindAttribLocation
         U __imp_glBindFramebuffer
         U __imp_glBindTexture
         U __imp_glBlendEquation
         U __imp_glBlendFunc
         U __imp_glClear
         U __imp_glClearColor
         U __imp_glCompileShader
         U __imp_glCreateProgram
         U __imp_glCreateShader
         U __imp_glEnable
         U __imp_glGetError
         U __imp_glGetProgramInfoLog
         U __imp_glGetProgramiv
         U __imp_glGetShaderInfoLog
         U __imp_glGetShaderiv
         U __imp_glHint
         U __imp_glIsShader
         U __imp_glLinkProgram
         U __imp_glShaderSource
         U __imp_glViewport
         U buffer_allocate
         U buffer_check_empty
         U buffer_check_not_full
         U buffer_check_not_use_texture
         U buffer_check_use_texture
         U buffer_draw
         U buffer_free
         U buffer_new
         U buffer_push_color
         U buffer_push_tex_coord
         U buffer_push_vertex
         U camera_free
         U camera_new
         U camera_pop
         U camera_push
         U camera_reset
         U camera_update_matrix
         U ceil
         U cosf
00000000 b display
00001860 T display_create_surface
00000c40 T display_draw_background
000029e0 T display_draw_buffer
000011c0 T display_draw_from
00001f60 T display_draw_line
00000890 T display_draw_on
00001950 T display_draw_point
00001df0 T display_draw_point_tex
000013a0 T display_draw_quad
00002080 T display_draw_surface
000019f0 T display_draw_triangle
00000cb0 T display_flip
000003d0 T display_free
00002a60 T display_free_buffer
000004c0 T display_free_shader
000018b0 T display_free_surface
000005f0 T display_get_alpha
000017d0 T display_get_camera
00000560 T display_get_color
00002a50 T display_get_current_buffer
00001850 T display_get_draw_from
00001840 T display_get_draw_on
00001770 T display_get_pixel
000016a0 T display_get_screen
00000000 T display_init
000016c0 T display_is_debug
000018a0 T display_load_surface
00002970 T display_new_buffer
000024f0 T display_new_shader
00000770 T display_new_surface
00001800 T display_pop_camera
000017e0 T display_push_camera
00001360 T display_reset_camera
00000920 T display_resize
00000a90 T display_screen2scene
00001320 T display_set_alpha
000016d0 T display_set_blend_mode
000015d0 T display_set_camera_angle
00001610 T display_set_camera_position
00001670 T display_set_camera_zoom
00001290 T display_set_color
00001730 T display_set_filter
00000670 T display_set_fullscreen
00000630 T display_set_title
00000c30 T display_show_cursor
000016b0 T display_toggle_debug_mode
00001560 T display_use_buffer
00001150 T display_use_default_buffer
00001220 T display_use_default_shader
00002900 T display_use_shader
         U exit
         U free
         U getGLError
00002880 t getShaderError
         U ldexp
         U log
         U log_internal
         U shader_free
         U shader_new
         U sinf
         U surface_draw_from
         U surface_draw_on
         U surface_free
         U surface_get_pixel
         U surface_load
         U surface_new
         U surface_set_filter
         U xmalloc

drystal_display_bind.o:
00000000 a @feat.00
         U __imp__assert
         U __imp__errno
         U display_draw_background
         U display_draw_from
         U display_draw_line
         U display_draw_on
         U display_draw_point
         U display_draw_point_tex
         U display_draw_quad
         U display_draw_surface
         U display_draw_triangle
         U display_free_surface
         U display_get_current_buffer
         U display_get_draw_from
         U display_get_draw_on
         U display_get_pixel
         U display_get_screen
         U display_load_surface
         U display_new_surface
         U display_resize
         U display_screen2scene
         U display_set_alpha
         U display_set_blend_mode
         U display_set_color
         U display_set_filter
         U display_set_fullscreen
         U display_set_title
         U display_show_cursor
         U dlua_get_drystal_field
         U log_oom_and_exit
         U luaL_argerror
         U luaL_checkinteger
         U luaL_checklstring
         U luaL_checknumber
         U luaL_error
         U luaL_optnumber
         U luaL_ref
         U luaL_setmetatable
         U lua_copy
         U lua_createtable
         U lua_getfield
         U lua_getmetatable
         U lua_gettable
         U lua_gettop
         U lua_isnumber
         U lua_isstring
         U lua_newuserdata
         U lua_pushfstring
         U lua_pushinteger
         U lua_pushnil
         U lua_pushnumber
         U lua_pushstring
         U lua_pushvalue
         U lua_rawgeti
         U lua_rotate
         U lua_setfield
         U lua_setmetatable
         U lua_settop
         U lua_toboolean
         U lua_touserdata
         U lua_type
00000c50 T mlua_draw_background
000009b0 T mlua_draw_from_surface
00000e30 T mlua_draw_line
00000940 T mlua_draw_on_surface
00000c60 T mlua_draw_point
00000d10 T mlua_draw_point_tex
00001330 T mlua_draw_quad
000010a0 T mlua_draw_surface
00000f70 T mlua_draw_triangle
00000900 T mlua_free_surface
00000ad0 T mlua_get_pixel_surface
00000760 T mlua_load_surface
00000840 T mlua_new_surface
00000560 T mlua_resize
00000610 T mlua_screen2scene
000003d0 T mlua_set_alpha
000004e0 T mlua_set_blend_mode
00000230 T mlua_set_color
00000a20 T mlua_set_filter_surface
00000430 T mlua_set_fullscreen
000004a0 T mlua_set_title
00000520 T mlua_show_cursor
000006b0 T mlua_surface_class_index
00000180 T pop_surface
00000000 T push_surface
         U strerror

drystal_dlua.o:
00000000 a @feat.00
         U __imp___acrt_iob_func
         U __imp__assert
         U call_lua_function
00000000 b dlua.0
00000008 b dlua.1
0000000c b dlua.2
00000010 b dlua.3
000000c0 T dlua_add_arg
000008c0 T dlua_call_atexit
00000890 T dlua_call_draw
00000800 T dlua_call_init
00000830 T dlua_call_update
00000650 T dlua_foreach
00000080 T dlua_free
00000190 T dlua_get_drystal_field
00000220 T dlua_get_function
000000b0 T dlua_get_lua_state
00000000 T dlua_init
000002e0 T dlua_load_code
000008f0 T dlua_reload_code
         U engine_stop
         U fprintf
         U graphics_index
         U load_luafiles
         U log_internal
         U luaL_checklstring
         U luaL_checkversion_
         U luaL_len
         U luaL_loadfilex
         U luaL_newmetatable
         U luaL_newstate
         U luaL_openlibs
         U luaL_ref
         U luaL_requiref
         U luaL_setfuncs
         U luaL_unref
         U lua_close
         U lua_copy
         U lua_createtable
         U lua_getfield
         U lua_getglobal
         U lua_gettop
         U lua_next
         U lua_pushboolean
         U lua_pushcclosure
         U lua_pushnil
         U lua_pushnumber
         U lua_pushstring
         U lua_pushvalue
         U lua_rawget
         U lua_rawgeti
         U lua_rawseti
         U lua_rotate
         U lua_setfield
         U lua_setglobal
         U lua_setmetatable
         U lua_settop
         U lua_toboolean
         U lua_tolstring
         U lua_touserdata
         U lua_type
000004f0 t luaopen_drystal
000000d0 r luaopen_drystal.lib
00000ac0 t mlua_drystal_index
00000a90 t mlua_load_code
00000a40 t mlua_log_debug
00000990 t mlua_log_error
00000a00 t mlua_log_info
000009c0 t mlua_log_warning
00000980 t mlua_stop
         U register_audio
         U register_event
         U register_font
         U register_graphics
         U register_particle
         U register_physics
         U register_storage
         U register_utils
         U register_web
         U strcmp
         U traceback

drystal_engine.o:
00000000 a @feat.00
         U SDL_GetError
         U SDL_Init
         U SDL_Quit
         U audio_free
         U audio_update
         U clock_gettime
         U display_flip
         U display_free
         U display_init
         U dlua_call_atexit
         U dlua_call_draw
         U dlua_call_init
         U dlua_call_update
         U dlua_free
         U dlua_init
         U dlua_load_code
00000000 b engine.0
00000004 b engine.1
00000008 b engine.2
0000000c b engine.3
00000010 b engine.4
00000014 b engine.5
000000d0 T engine_free
00000000 T engine_init
00000100 T engine_is_loaded
00000110 T engine_load
00000150 T engine_loop
000002e0 T engine_stop
00000300 T engine_toggle_draw
00000310 T engine_toggle_update
00000210 T engine_update
         U event_destroy
         U event_init
         U event_update
         U log_internal
         U msleep

drystal_event.o:
00000000 a @feat.00
         U SDL_GetError
         U SDL_GetMouseState
         U SDL_InitSubSystem
         U SDL_PollEvent
         U SDL_QuitSubSystem
         U SDL_SetRelativeMouseMode
         U SDL_StartTextInput
         U __imp__assert
         U call_lua_function
         U display_toggle_debug_mode
         U dlua_get_function
         U dlua_get_lua_state
         U dlua_reload_code
         U engine_stop
         U engine_toggle_draw
         U engine_toggle_update
00001860 T event_destroy
00000430 T event_init
00001870 T event_set_relative_mode
000003c0 T event_small_update
00000000 T event_update
00000000 b keys_table_ref
         U log_internal
         U luaL_ref
         U lua_createtable
         U lua_gettop
         U lua_isstring
         U lua_pushinteger
         U lua_pushnumber
         U lua_pushstring
         U lua_rawget
         U lua_rawgeti
         U lua_rotate
         U lua_settable
         U lua_settop
00001880 t push_keyname

drystal_event_api.o:
00000000 a @feat.00
         U lua_createtable
         U lua_pushcclosure
         U lua_pushnumber
         U lua_setfield
         U mlua_set_relative_mode
00000000 T register_event

drystal_event_bind.o:
00000000 a @feat.00
         U __imp__assert
         U event_set_relative_mode
         U lua_toboolean
00000000 T mlua_set_relative_mode

drystal_font.o:
00000000 a @feat.00
         U __imp__assert
         U display_create_surface
         U display_draw_from
         U display_draw_quad
         U display_free_surface
         U display_get_alpha
         U display_get_color
         U display_get_draw_from
         U display_set_alpha
         U display_set_color
         U display_set_filter
         U fclose
         U fileno
00000480 T font_draw
00000250 T font_draw_plain
00000210 T font_free
00001350 T font_get_textsize
000015e0 T font_get_textsize_plain
00000000 T font_load
         U fopen
         U free
         U fseek
         U ftell
         U memset
         U mmap
         U munmap
         U parse
         U pop_parser
         U push_parser
         U stbtt_BakeFontBitmap
         U stbtt_GetBakedQuad
         U xmalloc

drystal_font_api.o:
00000000 a @feat.00
         U luaL_newmetatable
         U lua_createtable
         U lua_pushcclosure
         U lua_pushnumber
         U lua_pushstring
         U lua_pushvalue
         U lua_setfield
         U mlua_draw_font
         U mlua_draw_plain_font
         U mlua_free_font
         U mlua_load_font
         U mlua_sizeof_font
         U mlua_sizeof_plain_font
00000000 T register_font

drystal_font_bind.o:
00000000 a @feat.00
         U __imp__assert
         U font_draw
         U font_draw_plain
         U font_free
         U font_get_textsize
         U font_get_textsize_plain
         U font_load
         U log_oom_and_exit
         U luaL_argerror
         U luaL_checklstring
         U luaL_checknumber
         U luaL_fileresult
         U luaL_optinteger
         U luaL_ref
         U luaL_setmetatable
         U lua_createtable
         U lua_getfield
         U lua_gettop
         U lua_newuserdata
         U lua_pushnumber
         U lua_pushvalue
         U lua_rawgeti
         U lua_rotate
         U lua_setfield
         U lua_setmetatable
         U lua_settop
         U lua_touserdata
         U lua_type
00000230 T mlua_draw_font
000002f0 T mlua_draw_plain_font
00000530 T mlua_free_font
00000380 T mlua_load_font
00000410 T mlua_sizeof_font
000004a0 T mlua_sizeof_plain_font
00000180 T pop_font
00000000 T push_font

drystal_graphics_api.o:
00000000 a @feat.00
         U display_get_draw_from
         U display_get_draw_on
         U display_get_screen
00000910 T graphics_index
         U luaL_checklstring
         U luaL_newmetatable
         U lua_createtable
         U lua_pushcclosure
         U lua_pushnumber
         U lua_pushstring
         U lua_pushvalue
         U lua_setfield
         U lua_setmetatable
         U mlua_camera__index
         U mlua_camera__newindex
         U mlua_camera_pop
         U mlua_camera_push
         U mlua_camera_reset
         U mlua_draw_background
         U mlua_draw_buffer
         U mlua_draw_from_surface
         U mlua_draw_line
         U mlua_draw_on_surface
         U mlua_draw_point
         U mlua_draw_point_tex
         U mlua_draw_quad
         U mlua_draw_surface
         U mlua_draw_triangle
         U mlua_feed_shader
         U mlua_free_buffer
         U mlua_free_shader
         U mlua_free_surface
         U mlua_get_pixel_surface
         U mlua_load_surface
         U mlua_new_buffer
         U mlua_new_shader
         U mlua_new_surface
         U mlua_reset_buffer
         U mlua_resize
         U mlua_screen2scene
         U mlua_set_alpha
         U mlua_set_blend_mode
         U mlua_set_color
         U mlua_set_filter_surface
         U mlua_set_fullscreen
         U mlua_set_title
         U mlua_show_cursor
         U mlua_surface_class_index
         U mlua_upload_and_free_buffer
         U mlua_use_buffer
         U mlua_use_default_buffer
         U mlua_use_default_shader
         U mlua_use_shader
         U push_surface
00000000 T register_graphics
         U strcmp

drystal_joint_bind.o:
00000000 R .refptr.pixels_per_meter
00000000 a @feat.00
00001630 T _Z15mlua_free_jointP9lua_State
00000780 T _Z15push_gear_jointP9lua_StateP5Joint
00000000 T _Z15push_rope_jointP9lua_StateP5Joint
00000b30 T _Z16pop_joint_secureP9lua_Statei
00000480 T _Z16push_mouse_jointP9lua_StateP5Joint
00000180 T _Z19push_distance_jointP9lua_StateP5Joint
00000900 T _Z19push_friction_jointP9lua_StateP5Joint
00000300 T _Z19push_revolute_jointP9lua_StateP5Joint
00000600 T _Z20push_prismatic_jointP9lua_StateP5Joint
000013e0 T _Z25mlua_get_ratio_gear_jointP9lua_State
00001360 T _Z25mlua_set_ratio_gear_jointP9lua_State
00000b70 T _Z27mlua_set_target_mouse_jointP9lua_State
00000c60 T _Z30mlua_set_length_distance_jointP9lua_State
00000db0 T _Z30mlua_set_max_length_rope_jointP9lua_State
000015c0 T _Z33mlua_get_max_force_friction_jointP9lua_State
00000d10 T _Z33mlua_set_frequency_distance_jointP9lua_State
00001540 T _Z33mlua_set_max_force_friction_jointP9lua_State
000014d0 T _Z34mlua_get_max_torque_friction_jointP9lua_State
00001450 T _Z34mlua_set_max_torque_friction_jointP9lua_State
00000f50 T _Z35mlua_set_motor_speed_revolute_jointP9lua_State
00000e60 T _Z36mlua_set_angle_limits_revolute_jointP9lua_State
00001100 T _Z36mlua_set_motor_speed_prismatic_jointP9lua_State
000012f0 T _Z37mlua_is_limit_enabled_prismatic_jointP9lua_State
00001280 T _Z37mlua_is_motor_enabled_prismatic_jointP9lua_State
00001180 T _Z37mlua_set_enable_limit_prismatic_jointP9lua_State
00001080 T _Z37mlua_set_enable_motor_prismatic_jointP9lua_State
00001200 T _Z40mlua_set_max_motor_force_prismatic_jointP9lua_State
00000a80 T _Z9pop_jointP9lua_Statei
         U _ZN11b2GearJoint8SetRatioEf
         U _ZN12b2MouseJoint9SetTargetERK6b2Vec2
         U _ZN15b2FrictionJoint11SetMaxForceEf
         U _ZN15b2FrictionJoint12SetMaxTorqueEf
         U _ZN15b2RevoluteJoint11EnableLimitEb
         U _ZN15b2RevoluteJoint11EnableMotorEb
         U _ZN15b2RevoluteJoint13SetMotorSpeedEf
         U _ZN15b2RevoluteJoint17SetMaxMotorTorqueEf
         U _ZN15b2RevoluteJoint9SetLimitsEff
         U _ZN16b2PrismaticJoint11EnableLimitEb
         U _ZN16b2PrismaticJoint11EnableMotorEb
         U _ZN16b2PrismaticJoint13SetMotorSpeedEf
         U _ZN16b2PrismaticJoint16SetMaxMotorForceEf
         U _ZNK11b2GearJoint8GetRatioEv
         U _ZNK15b2FrictionJoint11GetMaxForceEv
         U _ZNK15b2FrictionJoint12GetMaxTorqueEv
         U _ZNK16b2PrismaticJoint14IsLimitEnabledEv
         U _ZNK16b2PrismaticJoint14IsMotorEnabledEv
         U _ZdlPv
         U __imp__assert
         U log_internal
         U log_oom_and_exit
         U luaL_argerror
         U luaL_checknumber
         U luaL_error
         U luaL_ref
         U luaL_setmetatable
         U lua_createtable
         U lua_getfield
         U lua_gettop
         U lua_newuserdata
         U lua_pushboolean
         U lua_pushnumber
         U lua_pushvalue
         U lua_rawgeti
         U lua_rotate
         U lua_setfield
         U lua_setmetatable
         U lua_settop
         U lua_toboolean
         U lua_touserdata
         U lua_type
         U pixels_per_meter

drystal_log.o:
00000000 a @feat.00
         U __imp___acrt_iob_func
         U exit
         U fprintf
         U fputc
         U fwrite
00000040 T log_internal
00000000 T log_oom_and_exit
         U stderr_use_colors
         U vfprintf

drystal_lua_util.o:
00000000 a @feat.00
         U __imp___acrt_iob_func
         U __imp__assert
000000d0 T call_lua_function
         U engine_free
         U exit
         U fprintf
         U lua_callk
         U lua_getfield
         U lua_getglobal
         U lua_gettop
         U lua_pcallk
         U lua_pushboolean
         U lua_pushcclosure
         U lua_pushinteger
         U lua_rotate
         U lua_settop
         U lua_tolstring
         U stderr_use_colors
00000000 T traceback

drystal_main_native.o:
00000000 a @feat.00
         U ___chkstk_ms
         U __imp___acrt_iob_func
         U __main
         U dlua_add_arg
         U endswith
         U engine_free
         U engine_init
         U engine_load
         U engine_loop
         U free
         U fwrite
         U is_directory
00000000 T main
         U puts
         U strcmp
         U strjoin
         U xstrdup

drystal_music.o:
00000000 a @feat.00
         U ___chkstk_ms
         U __imp__assert
         U alBufferData
         U alDeleteBuffers
         U alGenBuffers
         U alGetError
         U alGetSourcei
         U alGetString
         U alSourcePause
         U alSourcePlay
         U alSourceQueueBuffers
         U alSourceStop
         U alSourceUnqueueBuffers
         U alSourcef
         U alSourcei
         U audio_get_free_source
         U audio_get_music_volume
         U audio_init_if_needed
         U call_lua_function
         U dlua_get_lua_state
         U free
         U log_internal
         U luaL_unref
         U lua_rawgeti
00000820 T music_free
00000890 T music_load
000009d0 T music_load_from_file
00000560 T music_pause
00000000 T music_play
00000760 T music_set_pitch
00000690 T music_set_volume
00000620 T music_stop
00000b50 t music_stream
00000a90 T music_update
         U stb_vorbis_close
         U stb_vorbis_get_info
         U stb_vorbis_get_samples_short_interleaved
         U stb_vorbis_open_filename
         U stb_vorbis_seek_start
00000f50 t vmc_feed_buffer
00000ee0 t vmc_free
00000f10 t vmc_rewind
         U xcalloc
         U xmalloc

drystal_music_bind.o:
00000000 a @feat.00
         U __imp__assert
         U free
00000610 t lmc_feed_buffer
000005b0 t lmc_free
00000600 t lmc_rewind
         U log_oom_and_exit
         U luaL_argerror
         U luaL_checkinteger
         U luaL_checknumber
         U luaL_checktype
         U luaL_error
         U luaL_fileresult
         U luaL_optinteger
         U luaL_ref
         U luaL_setmetatable
         U luaL_unref
         U lua_callk
         U lua_createtable
         U lua_getfield
         U lua_gettop
         U lua_isstring
         U lua_newuserdata
         U lua_pushinteger
         U lua_pushvalue
         U lua_rawgeti
         U lua_rotate
         U lua_setfield
         U lua_setmetatable
         U lua_settop
         U lua_toboolean
         U lua_tolstring
         U lua_touserdata
         U lua_type
00000570 T mlua_free_music
00000230 T mlua_load_music
00000530 T mlua_pause_music
00000450 T mlua_play_music
00000340 T mlua_set_pitch_music
000003c0 T mlua_set_volume_music
000004f0 T mlua_stop_music
         U music_free
         U music_load
         U music_load_from_file
         U music_pause
         U music_play
         U music_set_pitch
         U music_set_volume
         U music_stop
00000180 T pop_music
00000000 T push_music
         U xmalloc

drystal_opengl_util.o:
00000000 a @feat.00
         U __imp_glGetError
00000000 T check_opengl_oom
00000020 T getGLError
         U log_oom_and_exit

drystal_parser.o:
00000000 a @feat.00
         U __imp__assert
         U atoi
00000d00 t change_BIG
00000ab0 t change_alpha
00000cd0 t change_big
00000be0 t change_blue
00000b80 t change_green
00000d30 t change_italic
00000d90 t change_nooutline
00000ca0 t change_normal
00000e80 t change_outb
00000e20 t change_outg
00000d60 t change_outline
00000dc0 t change_outr
00000b20 t change_red
00000ee0 t change_shadowx
00000f40 t change_shadowy
00000c70 t change_small
00000c40 t change_tiny
00000600 b g_indexes
00000000 d g_indexparser
00000000 b g_states
00000070 r keywords
         U log_internal
00000000 T parse
00000a70 T pop_parser
000009f0 T push_parser
         U strlen

drystal_particle.o:
00000000 a @feat.00
         U __imp__assert
         U cosf
00000000 T particle_update
         U sinf

drystal_particle_api.o:
00000000 a @feat.00
         U luaL_newmetatable
         U lua_pushcclosure
         U lua_pushstring
         U lua_pushvalue
         U lua_setfield
         U mlua_add_alpha_system
         U mlua_add_color_system
         U mlua_add_size_system
         U mlua_clear_alphas_system
         U mlua_clear_colors_system
         U mlua_clear_sizes_system
         U mlua_clone_system
         U mlua_draw_system
         U mlua_emit_system
         U mlua_free_system
         U mlua_get_emission_rate_system
         U mlua_get_max_direction_system
         U mlua_get_max_initial_acceleration_system
         U mlua_get_max_initial_velocity_system
         U mlua_get_max_lifetime_system
         U mlua_get_min_direction_system
         U mlua_get_min_initial_acceleration_system
         U mlua_get_min_initial_velocity_system
         U mlua_get_min_lifetime_system
         U mlua_get_offset_system
         U mlua_get_position_system
         U mlua_new_system
         U mlua_reset_system
         U mlua_set_emission_rate_system
         U mlua_set_max_direction_system
         U mlua_set_max_initial_acceleration_system
         U mlua_set_max_initial_velocity_system
         U mlua_set_max_lifetime_system
         U mlua_set_min_direction_system
         U mlua_set_min_initial_acceleration_system
         U mlua_set_min_initial_velocity_system
         U mlua_set_min_lifetime_system
         U mlua_set_offset_system
         U mlua_set_position_system
         U mlua_set_texture_system
         U mlua_start_system
         U mlua_stop_system
         U mlua_update_system
00000000 T register_particle

drystal_physics_api.o:
00000000 a @feat.00
         U _Z10mlua_queryP9lua_State
         U _Z12mlua_raycastP9lua_State
         U _Z13mlua_gc_shapeP9lua_State
         U _Z13mlua_new_bodyP9lua_State
         U _Z14mlua_dump_bodyP9lua_State
         U _Z14mlua_free_bodyP9lua_State
         U _Z14mlua_new_jointP9lua_State
         U _Z14mlua_new_shapeP9lua_State
         U _Z15mlua_free_jointP9lua_State
         U _Z16mlua_get_gravityP9lua_State
         U _Z16mlua_set_gravityP9lua_State
         U _Z17mlua_destroy_bodyP9lua_State
         U _Z17mlua_init_physicsP9lua_State
         U _Z17mlua_on_collisionP9lua_State
         U _Z18mlua_destroy_jointP9lua_State
         U _Z18mlua_get_mass_bodyP9lua_State
         U _Z19mlua_get_angle_bodyP9lua_State
         U _Z19mlua_set_angle_bodyP9lua_State
         U _Z19mlua_update_physicsP9lua_State
         U _Z20mlua_set_active_bodyP9lua_State
         U _Z20mlua_set_bullet_bodyP9lua_State
         U _Z21mlua_apply_force_bodyP9lua_State
         U _Z21mlua_set_sensor_shapeP9lua_State
         U _Z22mlua_apply_torque_bodyP9lua_State
         U _Z22mlua_get_density_shapeP9lua_State
         U _Z22mlua_get_position_bodyP9lua_State
         U _Z22mlua_set_density_shapeP9lua_State
         U _Z22mlua_set_position_bodyP9lua_State
         U _Z23mlua_get_friction_shapeP9lua_State
         U _Z23mlua_set_friction_shapeP9lua_State
         U _Z25mlua_get_pixels_per_meterP9lua_State
         U _Z25mlua_get_ratio_gear_jointP9lua_State
         U _Z25mlua_set_mass_center_bodyP9lua_State
         U _Z25mlua_set_pixels_per_meterP9lua_State
         U _Z25mlua_set_ratio_gear_jointP9lua_State
         U _Z26mlua_get_restitution_shapeP9lua_State
         U _Z26mlua_set_restitution_shapeP9lua_State
         U _Z27mlua_set_target_mouse_jointP9lua_State
         U _Z28mlua_get_fixed_rotation_bodyP9lua_State
         U _Z28mlua_get_linear_damping_bodyP9lua_State
         U _Z28mlua_set_fixed_rotation_bodyP9lua_State
         U _Z28mlua_set_linear_damping_bodyP9lua_State
         U _Z29mlua_get_angular_damping_bodyP9lua_State
         U _Z29mlua_get_center_position_bodyP9lua_State
         U _Z29mlua_get_linear_velocity_bodyP9lua_State
         U _Z29mlua_set_angular_damping_bodyP9lua_State
         U _Z29mlua_set_linear_velocity_bodyP9lua_State
         U _Z30mlua_apply_linear_impulse_bodyP9lua_State
         U _Z30mlua_get_angular_velocity_bodyP9lua_State
         U _Z30mlua_set_angular_velocity_bodyP9lua_State
         U _Z30mlua_set_length_distance_jointP9lua_State
         U _Z30mlua_set_max_length_rope_jointP9lua_State
         U _Z31mlua_apply_angular_impulse_bodyP9lua_State
         U _Z33mlua_get_max_force_friction_jointP9lua_State
         U _Z33mlua_set_frequency_distance_jointP9lua_State
         U _Z33mlua_set_max_force_friction_jointP9lua_State
         U _Z34mlua_get_max_torque_friction_jointP9lua_State
         U _Z34mlua_set_max_torque_friction_jointP9lua_State
         U _Z35mlua_set_motor_speed_revolute_jointP9lua_State
         U _Z36mlua_set_angle_limits_revolute_jointP9lua_State
         U _Z36mlua_set_motor_speed_prismatic_jointP9lua_State
         U _Z37mlua_is_limit_enabled_prismatic_jointP9lua_State
         U _Z37mlua_is_motor_enabled_prismatic_jointP9lua_State
         U _Z37mlua_set_enable_limit_prismatic_jointP9lua_State
         U _Z37mlua_set_enable_motor_prismatic_jointP9lua_State
         U luaL_newmetatable
         U lua_pushcclosure
         U lua_pushstring
         U lua_pushvalue
         U lua_setfield
00000000 T register_physics

drystal_shader.o:
00000000 a @feat.00
00000010 D DEFAULT_FRAGMENT_SHADER_COLOR
00000018 D DEFAULT_FRAGMENT_SHADER_TEX
00000008 D DEFAULT_VERTEX_SHADER
00000000 D SHADER_PREFIX
         U __imp__assert
         U __imp_glDeleteProgram
         U __imp_glDeleteShader
         U __imp_glGetIntegerv
         U __imp_glGetUniformLocation
         U __imp_glUniform1f
         U __imp_glUseProgram
         U free
         U log_internal
00000170 T shader_feed
00000120 T shader_free
00000000 T shader_new
         U xmalloc

drystal_shader_bind.o:
00000000 a @feat.00
         U __imp__assert
         U display_free_shader
         U display_new_shader
         U display_use_default_shader
         U display_use_shader
         U free
         U log_oom_and_exit
         U luaL_argerror
         U luaL_checklstring
         U luaL_checknumber
         U luaL_ref
         U luaL_setmetatable
         U lua_createtable
         U lua_getfield
         U lua_gettop
         U lua_newuserdata
         U lua_pushnil
         U lua_pushstring
         U lua_pushvalue
         U lua_rawgeti
         U lua_rotate
         U lua_setfield
         U lua_setmetatable
         U lua_settop
         U lua_tolstring
         U lua_touserdata
         U lua_type
00000380 T mlua_feed_shader
000003f0 T mlua_free_shader
00000230 T mlua_new_shader
00000370 T mlua_use_default_shader
00000330 T mlua_use_shader
00000180 T pop_shader
00000000 T push_shader
         U shader_feed

drystal_shape_bind.o:
00000000 R .refptr._ZTV12b2ChainShape
00000000 R .refptr._ZTV13b2CircleShape
00000000 R .refptr._ZTV14b2PolygonShape
00000000 R .refptr.pixels_per_meter
00000000 a @feat.00
00000000 T _Z10push_shapeP9lua_StateP5Shape
00000800 T _Z13mlua_gc_shapeP9lua_State
00000230 T _Z14mlua_new_shapeP9lua_State
000007a0 T _Z21mlua_set_sensor_shapeP9lua_State
00000660 T _Z22mlua_get_density_shapeP9lua_State
00000620 T _Z22mlua_set_density_shapeP9lua_State
00000760 T _Z23mlua_get_friction_shapeP9lua_State
00000720 T _Z23mlua_set_friction_shapeP9lua_State
000006e0 T _Z26mlua_get_restitution_shapeP9lua_State
000006a0 T _Z26mlua_set_restitution_shapeP9lua_State
00000180 T _Z9pop_shapeP9lua_Statei
         U _ZN12b2ChainShape10CreateLoopEPK6b2Vec2i
         U _ZN14b2PolygonShape8SetAsBoxEffRK6b2Vec2f
         U _ZTV12b2ChainShape
         U _ZTV13b2CircleShape
         U _ZTV14b2PolygonShape
         U _ZdaPv
         U _ZdlPv
         U _Znay
         U _Znwy
         U __imp__assert
         U log_internal
         U log_oom_and_exit
         U luaL_argerror
         U luaL_checklstring
         U luaL_checknumber
         U luaL_ref
         U luaL_setmetatable
         U lua_createtable
         U lua_getfield
         U lua_gettop
         U lua_newuserdata
         U lua_pushnumber
         U lua_pushvalue
         U lua_rawgeti
         U lua_rotate
         U lua_setfield
         U lua_setmetatable
         U lua_settop
         U lua_toboolean
         U lua_touserdata
         U lua_type
         U pixels_per_meter
         U strcmp

drystal_sound.o:
00000000 a @feat.00
         U ___chkstk_ms
         U __imp__assert
         U alBufferData
         U alDeleteBuffers
         U alGenBuffers
         U alGetError
         U alGetString
         U alSource3f
         U alSourcePlay
         U alSourcef
         U alSourcei
         U audio_get_free_source
         U audio_get_sound_volume
         U audio_init_if_needed
         U audio_try_free_sound
         U free
         U load_wav
         U log_internal
00000380 T sound_free
00000210 T sound_load
00000000 T sound_load_from_file
00000100 t sound_new
00000440 T sound_play
         U xcalloc
         U xstrdup

drystal_sound_bind.o:
00000000 a @feat.00
         U ___chkstk_ms
         U __imp__assert
         U log_oom_and_exit
         U luaL_argerror
         U luaL_checknumber
         U luaL_error
         U luaL_fileresult
         U luaL_len
         U luaL_ref
         U luaL_setmetatable
         U lua_callk
         U lua_createtable
         U lua_getfield
         U lua_gettable
         U lua_gettop
         U lua_isstring
         U lua_newuserdata
         U lua_pushnil
         U lua_pushnumber
         U lua_pushstring
         U lua_pushvalue
         U lua_rawgeti
         U lua_rotate
         U lua_setfield
         U lua_setmetatable
         U lua_settop
         U lua_tolstring
         U lua_touserdata
         U lua_type
00000660 T mlua_free_sound
00000230 T mlua_load_sound
00000530 T mlua_play_sound
00000180 T pop_sound
00000000 T push_sound
         U sound_free
         U sound_load
         U sound_load_from_file
         U sound_play

drystal_storage.o:
00000000 a @feat.00
         U __imp__assert
         U call_lua_function
         U fclose
         U fileno
         U fopen
         U fputs
         U fseek
         U ftell
         U json_decode
         U json_encode
         U log_oom_and_exit
         U luaL_checklstring
         U luaL_newstate
         U lua_close
         U lua_createtable
         U lua_gettable
         U lua_gettop
         U lua_pushcclosure
         U lua_pushstring
         U lua_pushvalue
         U lua_setfield
         U lua_settop
         U lua_type
         U mmap
         U munmap
00000000 T storage_fetch
00000200 T storage_store
         U xstrdup

drystal_storage_api.o:
00000000 a @feat.00
         U lua_pushcclosure
         U lua_setfield
         U mlua_fetch
         U mlua_store
00000000 T register_storage

drystal_storage_bind.o:
00000000 a @feat.00
         U __imp__assert
         U call_lua_function
         U free
         U json_decode
         U json_encode
         U luaL_checklstring
         U lua_pushcclosure
         U lua_pushnil
         U lua_pushstring
         U lua_pushvalue
00000090 T mlua_fetch
00000000 T mlua_store
         U storage_fetch
         U storage_store

drystal_surface.o:
00000000 a @feat.00
         U __imp__assert
         U __imp_glBindFramebuffer
         U __imp_glBindTexture
         U __imp_glCheckFramebufferStatus
         U __imp_glClear
         U __imp_glClearColor
         U __imp_glDeleteFramebuffers
         U __imp_glDeleteTextures
         U __imp_glFramebufferTexture2D
         U __imp_glGenFramebuffers
         U __imp_glGenTextures
         U __imp_glGenerateMipmap
         U __imp_glGetError
         U __imp_glReadPixels
         U __imp_glTexImage2D
         U __imp_glTexParameteri
         U __imp_glTexSubImage2D
         U __intrinsic_setjmpex
         U ceil
         U exit
         U fclose
         U fopen
         U fread
         U free
         U getGLError
         U ldexp
         U log
         U log_internal
         U log_oom_and_exit
         U png_create_info_struct
         U png_create_read_struct
         U png_destroy_read_struct
         U png_get_IHDR
         U png_get_bit_depth
         U png_get_color_type
         U png_get_valid
         U png_init_io
000008e0 t png_load
         U png_read_end
         U png_read_image
         U png_read_info
         U png_read_update_info
         U png_set_gray_1_2_4_to_8
         U png_set_packing
         U png_set_palette_to_rgb
         U png_set_sig_bytes
         U png_set_strip_16
         U png_set_tRNS_to_alpha
         U png_sig_cmp
00000210 t surface_create_fbo
000003a0 T surface_draw_from
00000350 T surface_draw_on
000002f0 T surface_free
000004d0 T surface_get_pixel
00000750 T surface_load
00000000 T surface_new
00000400 T surface_set_filter
         U xcalloc
         U xmalloc
         U xstrdup

drystal_system.o:
00000000 a @feat.00
         U __imp__assert
         U display_draw_from
         U display_draw_point
         U display_draw_point_tex
         U display_get_draw_from
         U display_set_alpha
         U display_set_color
         U free
         U log_internal
         U memcpy
         U particle_update
         U rand
00000ca0 T system_add_alpha
00000bf0 T system_add_color
00000b80 T system_add_size
00000d90 T system_clear_alphas
00000d50 T system_clear_colors
00000d20 T system_clear_sizes
000000f0 T system_clone
000002b0 T system_draw
00000790 T system_emit
00000160 T system_free
00000000 T system_new
000001f0 T system_reset
00000dd0 T system_set_texture
00000190 T system_start
000001c0 T system_stop
00000a30 T system_update
         U xcalloc
         U xmalloc
         U xrealloc

drystal_system_bind.o:
00000000 a @feat.00
         U __imp__assert
         U log_oom_and_exit
         U luaL_argerror
         U luaL_checknumber
         U luaL_optinteger
         U luaL_optnumber
         U luaL_ref
         U luaL_setmetatable
         U lua_createtable
         U lua_getfield
         U lua_gettop
         U lua_newuserdata
         U lua_pushnumber
         U lua_pushvalue
         U lua_rawgeti
         U lua_rotate
         U lua_setfield
         U lua_setmetatable
         U lua_settop
         U lua_touserdata
         U lua_type
000012d0 T mlua_add_alpha_system
00001170 T mlua_add_color_system
000010d0 T mlua_add_size_system
000013f0 T mlua_clear_alphas_system
000013b0 T mlua_clear_colors_system
00001370 T mlua_clear_sizes_system
000014c0 T mlua_clone_system
00001050 T mlua_draw_system
00000f40 T mlua_emit_system
00001510 T mlua_free_system
00000e20 T mlua_get_emission_rate_system
00000a60 T mlua_get_max_direction_system
00000be0 T mlua_get_max_initial_acceleration_system
00000d60 T mlua_get_max_initial_velocity_system
000008e0 T mlua_get_max_lifetime_system
000009a0 T mlua_get_min_direction_system
00000b20 T mlua_get_min_initial_acceleration_system
00000ca0 T mlua_get_min_initial_velocity_system
00000820 T mlua_get_min_lifetime_system
000007b0 T mlua_get_offset_system
000006c0 T mlua_get_position_system
00000230 T mlua_new_system
00001010 T mlua_reset_system
00000e80 T mlua_set_emission_rate_system
00000ac0 T mlua_set_max_direction_system
00000c40 T mlua_set_max_initial_acceleration_system
00000dc0 T mlua_set_max_initial_velocity_system
00000940 T mlua_set_max_lifetime_system
00000a00 T mlua_set_min_direction_system
00000b80 T mlua_set_min_initial_acceleration_system
00000d00 T mlua_set_min_initial_velocity_system
00000880 T mlua_set_min_lifetime_system
00000730 T mlua_set_offset_system
00000640 T mlua_set_position_system
00001430 T mlua_set_texture_system
00000f90 T mlua_start_system
00000fd0 T mlua_stop_system
00000ee0 T mlua_update_system
         U pop_surface
00000180 T pop_system
00000000 T push_system
         U rand
         U system_add_alpha
         U system_add_color
         U system_add_size
         U system_clear_alphas
         U system_clear_colors
         U system_clear_sizes
         U system_clone
         U system_draw
         U system_emit
         U system_free
         U system_new
         U system_reset
         U system_set_texture
         U system_start
         U system_stop
         U system_update

drystal_util.o:
00000000 a @feat.00
         U ___chkstk_ms
         U __imp__assert
         U __imp__errno
         U __imp__stat64
         U calloc
00000320 T endswith
00000410 T files_are_same
000003b0 T is_directory
         U isatty
         U log_oom_and_exit
         U malloc
         U memcmp
         U mkdir
000000f0 T mkdir_p
000002d0 T msleep
         U nanosleep
00000040 T on_tty
00000000 b on_tty.cached_on_tty
         U realloc
00000000 T stderr_use_colors
         U strchr
         U strcmp
         U strcpy
         U strdup
000001f0 T strjoin
         U strlen
000000b0 T xcalloc
000000d0 T xmalloc
00000480 T xrealloc
00000090 T xstrdup

drystal_utils_api.o:
00000000 a @feat.00
         U json_decode
         U json_encode
         U lua_cjson_init
         U lua_pushcclosure
         U lua_setfield
00000000 T register_utils

drystal_web.o:
00000000 a @feat.00

drystal_web_api.o:
00000000 a @feat.00
         U lua_pushboolean
         U lua_pushcclosure
         U lua_setfield
         U mlua_run_js
         U mlua_wget
00000000 T register_web

drystal_web_bind.o:
00000000 a @feat.00
         U __imp__assert
         U luaL_error
00000000 T mlua_run_js
00000040 T mlua_wget

drystal_world_bind.o:
00000000 a @feat.00
0000001c r GCC_except_table1
0000009c r GCC_except_table10
0000007c r GCC_except_table8
         U _Unwind_Resume
00000d00 T _Z10mlua_queryP9lua_State
00000b00 T _Z12mlua_raycastP9lua_State
00000e90 T _Z13mlua_new_bodyP9lua_State
000011d0 T _Z14mlua_new_jointP9lua_State
         U _Z15pop_body_secureP9lua_Statei
         U _Z15push_gear_jointP9lua_StateP5Joint
         U _Z15push_rope_jointP9lua_StateP5Joint
00000250 T _Z16mlua_get_gravityP9lua_State
000001c0 T _Z16mlua_set_gravityP9lua_State
         U _Z16pop_joint_secureP9lua_Statei
         U _Z16push_mouse_jointP9lua_StateP5Joint
00001130 T _Z17mlua_destroy_bodyP9lua_State
00000000 T _Z17mlua_init_physicsP9lua_State
000009b0 T _Z17mlua_on_collisionP9lua_State
00001a60 T _Z18mlua_destroy_jointP9lua_State
00000350 T _Z19mlua_update_physicsP9lua_State
         U _Z19push_distance_jointP9lua_StateP5Joint
         U _Z19push_friction_jointP9lua_StateP5Joint
         U _Z19push_revolute_jointP9lua_StateP5Joint
         U _Z20push_prismatic_jointP9lua_StateP5Joint
00000330 T _Z25mlua_get_pixels_per_meterP9lua_State
000002e0 T _Z25mlua_set_pixels_per_meterP9lua_State
         U _Z9pop_shapeP9lua_Statei
         U _Z9push_bodyP9lua_StateP4Body
00000018 b _ZL16destroyed_bodies
00000010 b _ZL16destroyed_joints
00000008 b _ZL16time_accumulator
00000000 d _ZL19destructionListener
00000000 b _ZL5world
00000760 T _ZN14CustomListener10EndContactEP9b2Contact
00000600 T _ZN14CustomListener10pushBodiesEP9b2Contact
00000640 T _ZN14CustomListener12BeginContactEP9b2Contact
000007e0 T _ZN14CustomListener8PreSolveEP9b2ContactPK10b2Manifold
00000930 T _ZN14CustomListener9PostSolveEP9b2ContactPK16b2ContactImpulse
000004f0 T _ZN14CustomListenerC1EP9lua_Stateiiii
000004f0 T _ZN14CustomListenerC2EP9lua_Stateiiii
00000590 T _ZN14CustomListenerD0Ev
00000520 T _ZN14CustomListenerD1Ev
00000520 T _ZN14CustomListenerD2Ev
00000000 T _ZN15b2QueryCallbackD2Ev
         U _ZN15b2WorldManifold10InitializeEPK10b2ManifoldRK11b2TransformfS5_f
00000000 T _ZN17b2RayCastCallbackD2Ev
         U _ZN18b2DistanceJointDef10InitializeEP6b2BodyS1_RK6b2Vec2S4_
00000000 T _ZN19CustomQueryCallback13ReportFixtureEP9b2Fixture
00000000 T _ZN19CustomQueryCallbackD0Ev
00000000 T _ZN21CustomRayCastCallback13ReportFixtureEP9b2FixtureRK6b2Vec2S4_f
00000000 T _ZN21CustomRayCastCallbackD0Ev
00000000 T _ZN21b2DestructionListenerD2Ev
00000000 T _ZN25CustomDestructionListener10SayGoodbyeEP7b2Joint
00000000 T _ZN25CustomDestructionListener10SayGoodbyeEP9b2Fixture
00000000 T _ZN25CustomDestructionListenerD0Ev
         U _ZN6b2Body13CreateFixtureEPK12b2FixtureDef
         U _ZN7b2World10CreateBodyEPK9b2BodyDef
         U _ZN7b2World11CreateJointEPK10b2JointDef
         U _ZN7b2World11DestroyBodyEP6b2Body
         U _ZN7b2World12DestroyJointEP7b2Joint
         U _ZN7b2World18SetContactListenerEP17b2ContactListener
         U _ZN7b2World22SetDestructionListenerEP21b2DestructionListener
         U _ZN7b2World4StepEfii
         U _ZN7b2WorldC1ERK6b2Vec2
         U _ZN7b2WorldD1Ev
         U _ZNK7b2World7RayCastEP17b2RayCastCallbackRK6b2Vec2S4_
         U _ZNK7b2World9QueryAABBEP15b2QueryCallbackRK6b2AABB
         U _ZSt9terminatev
00000000 R _ZTI14CustomListener
00000000 R _ZTI15b2QueryCallback
00000000 R _ZTI17b2ContactListener
00000000 R _ZTI17b2RayCastCallback
00000000 R _ZTI19CustomQueryCallback
00000000 R _ZTI21CustomRayCastCallback
00000000 R _ZTI21b2DestructionListener
00000000 R _ZTI25CustomDestructionListener
00000000 R _ZTS14CustomListener
00000000 R _ZTS15b2QueryCallback
00000000 R _ZTS17b2ContactListener
00000000 R _ZTS17b2RayCastCallback
00000000 R _ZTS19CustomQueryCallback
00000000 R _ZTS21CustomRayCastCallback
00000000 R _ZTS21b2DestructionListener
00000000 R _ZTS25CustomDestructionListener
00000130 R _ZTV14CustomListener
00000000 R _ZTV19CustomQueryCallback
00000000 R _ZTV21CustomRayCastCallback
00000000 R _ZTV25CustomDestructionListener
         U _ZTVN10__cxxabiv117__class_type_infoE
         U _ZTVN10__cxxabiv120__si_class_type_infoE
         U _ZdlPv
         U _Znwy
         U ___chkstk_ms
00000000 T __clang_call_terminate
         U __cxa_begin_catch
         U __gxx_personality_seh0
         U __imp__assert
         U call_lua_function
         U log_internal
         U luaL_checklstring
         U luaL_checknumber
         U luaL_error
         U luaL_optnumber
         U luaL_ref
         U luaL_unref
         U lua_createtable
         U lua_gettop
         U lua_isnumber
         U lua_pushnumber
         U lua_pushvalue
         U lua_rawgeti
         U lua_settable
         U lua_toboolean
00000008 D pixels_per_meter
         U strcmp

ft2_autofit.o:
00000000 a @feat.00
         U FT_DivFix
         U FT_Get_Advance
         U FT_Get_Char_Index
         U FT_Get_Next_Char
         U FT_GlyphLoader_Add
         U FT_GlyphLoader_CheckPoints
         U FT_GlyphLoader_CheckSubGlyphs
         U FT_GlyphLoader_CopyPoints
         U FT_GlyphLoader_Done
         U FT_GlyphLoader_New
         U FT_GlyphLoader_Rewind
         U FT_Load_Glyph
         U FT_Matrix_Invert
         U FT_MulDiv
         U FT_Outline_Get_CBox
         U FT_Outline_Get_Orientation
         U FT_Outline_Transform
         U FT_Outline_Translate
         U FT_Select_Charmap
         U FT_Set_Charmap
         U FT_Vector_Transform
00002a80 t af_autofitter_done
00002a00 t af_autofitter_init
00001098 R af_autofitter_interface
00002790 t af_autofitter_load_glyph
00000908 R af_beng_dflt_style_class
000004c0 R af_beng_script_class
00000ed0 R af_beng_uniranges
00000030 R af_blue_strings
000002c0 R af_blue_stringsets
00006ac0 t af_cjk_compute_stem_width
000064c0 t af_cjk_hint_edges
00002030 t af_cjk_hints_apply
00005c40 t af_cjk_hints_detect_features
00001fb0 t af_cjk_hints_init
00005770 t af_cjk_metrics_check_digits
00001810 t af_cjk_metrics_init
00005310 t af_cjk_metrics_init_widths
00001f70 t af_cjk_metrics_scale
00005ab0 t af_cjk_metrics_scale_dim
00000a80 R af_cjk_writing_system_class
00000660 R af_cyrl_c2cp_style_class
00000674 R af_cyrl_c2sc_style_class
00000714 R af_cyrl_dflt_style_class
00000688 R af_cyrl_ordn_style_class
0000069c R af_cyrl_pcap_style_class
000003e0 R af_cyrl_script_class
000006b0 R af_cyrl_sinf_style_class
000006c4 R af_cyrl_smcp_style_class
000006d8 R af_cyrl_subs_style_class
000006ec R af_cyrl_sups_style_class
00000700 R af_cyrl_titl_style_class
00000d50 R af_cyrl_uniranges
000008cc R af_deva_dflt_style_class
00000400 R af_deva_script_class
00000d80 R af_deva_uniranges
00000030 t af_dummy_hints_apply
00000000 t af_dummy_hints_init
00000a10 R af_dummy_writing_system_class
000079a0 t af_face_globals_free
000075f0 t af_face_globals_new
00002750 T af_get_char_index
00002740 T af_get_coverage
00002b60 t af_get_interface
00004a20 t af_glyph_hints_align_strong_points
00004d20 t af_glyph_hints_align_weak_points
00002b70 t af_glyph_hints_reload
00000728 R af_grek_c2cp_style_class
0000073c R af_grek_c2sc_style_class
000007dc R af_grek_dflt_style_class
00000750 R af_grek_ordn_style_class
00000764 R af_grek_pcap_style_class
00000420 R af_grek_script_class
00000778 R af_grek_sinf_style_class
0000078c R af_grek_smcp_style_class
000007a0 R af_grek_subs_style_class
000007b4 R af_grek_sups_style_class
000007c8 R af_grek_titl_style_class
00000db0 R af_grek_uniranges
0000091c R af_gujr_dflt_style_class
000004e0 R af_gujr_script_class
00000ee0 R af_gujr_uniranges
00000930 R af_guru_dflt_style_class
00000500 R af_guru_script_class
00000ef0 R af_guru_uniranges
000009f8 R af_hani_dflt_style_class
00000640 R af_hani_script_class
00000f90 R af_hani_uniranges
000007f0 R af_hebr_dflt_style_class
00000440 R af_hebr_script_class
00000dd0 R af_hebr_uniranges
00006910 t af_hint_normal_stem
00002730 t af_indic_hints_apply
000026b0 t af_indic_hints_init
00002600 t af_indic_metrics_init
00002670 t af_indic_metrics_scale
00000ab8 R af_indic_writing_system_class
000051f0 t af_iup_interp
00000944 R af_knda_dflt_style_class
00000520 R af_knda_script_class
00000f00 R af_knda_uniranges
00004f60 t af_latin_compute_stem_width
00004350 t af_latin_hint_edges
00001430 t af_latin_hints_apply
000031f0 t af_latin_hints_compute_segments
00003e60 t af_latin_hints_detect_features
000013a0 t af_latin_hints_init
00003630 t af_latin_hints_link_segments
000000b0 t af_latin_metrics_init
00001360 t af_latin_metrics_scale
00003ae0 t af_latin_metrics_scale_dim
00000a48 R af_latin_writing_system_class
00000804 R af_latn_c2cp_style_class
00000818 R af_latn_c2sc_style_class
000008b8 R af_latn_dflt_style_class
0000082c R af_latn_ordn_style_class
00000840 R af_latn_pcap_style_class
00000460 R af_latn_script_class
00000854 R af_latn_sinf_style_class
00000868 R af_latn_smcp_style_class
0000087c R af_latn_subs_style_class
00000890 R af_latn_sups_style_class
000008a4 R af_latn_titl_style_class
00000df0 R af_latn_uniranges
00000958 R af_limb_dflt_style_class
00000540 R af_limb_script_class
00000f10 R af_limb_uniranges
00006cf0 t af_loader_load_g
0000096c R af_mlym_dflt_style_class
00000560 R af_mlym_script_class
00000f20 R af_mlym_uniranges
000008e0 R af_none_dflt_style_class
00000480 R af_none_script_class
00000eb0 R af_none_uniranges
00000980 R af_orya_dflt_style_class
00000580 R af_orya_script_class
00000f30 R af_orya_uniranges
00007b90 t af_property_get
00007a70 t af_property_set
00000b20 R af_script_classes
00001130 r af_service_properties
00001100 r af_services
00000994 R af_sinh_dflt_style_class
000005a0 R af_sinh_script_class
00000f40 R af_sinh_uniranges
00003890 t af_sort_and_quantize_widths
00000bd0 R af_style_classes
000009a8 R af_sund_dflt_style_class
000005c0 R af_sund_script_class
00000f50 R af_sund_uniranges
000009bc R af_sylo_dflt_style_class
000005e0 R af_sylo_script_class
00000f60 R af_sylo_uniranges
000009d0 R af_taml_dflt_style_class
00000600 R af_taml_script_class
00000f70 R af_taml_uniranges
000008f4 R af_telu_dflt_style_class
000004a0 R af_telu_script_class
00000ec0 R af_telu_uniranges
000009e4 R af_tibt_dflt_style_class
00000620 R af_tibt_script_class
00000f80 R af_tibt_uniranges
00000af0 R af_writing_system_classes
000010c8 R autofit_module_class
         U ft_corner_is_flat
         U ft_mem_alloc
         U ft_mem_free
         U ft_mem_realloc
         U ft_service_list_lookup
         U memcpy
         U memset
         U strcmp

ft2_bdf.o:
00000000 a @feat.00
00000bb0 t BDF_Face_Done
00000010 t BDF_Face_Init
00000c90 t BDF_Glyph_Load
00000dc0 t BDF_Size_Request
00000e80 t BDF_Size_Select
         U FT_CMap_New
         U FT_MulDiv
         U FT_Select_Metrics
         U FT_Stream_Seek
         U FT_Stream_TryRead
00004080 t _bdf_add_property
000058e0 t _bdf_atol
00003dc0 t _bdf_atos
000036d0 t _bdf_atoul
00003ea0 t _bdf_list_join
000033a0 t _bdf_list_split
00004b60 t _bdf_parse_glyphs
00003790 t _bdf_parse_properties
00002480 t _bdf_parse_start
000002b0 r _bdf_properties
00003f50 t _bdf_set_default_spacing
00000f30 r a2i
00005a00 t bdf_cmap_char_index
00005a50 t bdf_cmap_char_next
00000248 r bdf_cmap_class
000059f0 t bdf_cmap_done
000059d0 t bdf_cmap_init
000000c8 R bdf_driver_class
00000000 t bdf_driver_requester
00002da0 t bdf_free_font
00000ee0 t bdf_get_bdf_property
00000ec0 t bdf_get_charset_id
00001030 t bdf_get_font_property
00001120 t bdf_interpret_style
000001a0 r bdf_service_bdf
00000170 r bdf_services
000059b0 t by_encoding
00000f10 r ddigits
00000ee9 r empty
         U ft_glyphslot_set_bitmap
         U ft_mem_alloc
         U ft_mem_free
         U ft_mem_realloc
         U ft_mem_strdup
         U ft_service_list_lookup
         U ft_synthesize_vertical_metrics
000030c0 t hash_init
00003120 t hash_insert
00000ef0 r hdigits
         U memcpy
         U memmove
00000ff9 r nibble_mask
         U qsort
         U sprintf
         U strcmp
         U strlen
         U strncmp

ft2_cff.o:
00000000 a @feat.00
0000afc0 t CFF_Load_FD_Select
         U FT_CMap_New
         U FT_DivFix
         U FT_Get_Module
         U FT_Get_Module_Interface
         U FT_GlyphLoader_Add
         U FT_GlyphLoader_CheckPoints
         U FT_GlyphLoader_Rewind
         U FT_Matrix_Multiply_Scaled
         U FT_MulDiv
         U FT_Outline_Get_CBox
         U FT_Outline_Transform
         U FT_Outline_Translate
         U FT_Request_Metrics
         U FT_RoundFix
         U FT_Select_Metrics
         U FT_Stream_EnterFrame
         U FT_Stream_ExitFrame
         U FT_Stream_ExtractFrame
         U FT_Stream_GetUShort
         U FT_Stream_Pos
         U FT_Stream_Read
         U FT_Stream_ReadChar
         U FT_Stream_ReadFields
         U FT_Stream_ReadUShort
         U FT_Stream_ReleaseFrame
         U FT_Stream_Seek
         U FT_Stream_Skip
         U FT_Vector_Transform
         U FT_Vector_Transform_Scaled
         U ___chkstk_ms
00009110 t cf2_arrstack_push
00003fc0 t cf2_builder_cubeTo
00003f20 t cf2_builder_lineTo
00003e80 t cf2_builder_moveTo
00007220 t cf2_computeDarkening
00002f90 t cf2_decoder_parse_charstrings
00007ef0 t cf2_doFlex
00007430 t cf2_doStems
000083d0 t cf2_freeSeacComponent
00003e70 t cf2_free_instance
000082e0 t cf2_getSeacComponent
00008270 t cf2_glyphpath_closeOpenPath
00009210 t cf2_glyphpath_computeOffset
00007b10 t cf2_glyphpath_curveTo
00007820 t cf2_glyphpath_lineTo
00007730 t cf2_glyphpath_moveTo
000093d0 t cf2_glyphpath_pushPrevElem
00008440 t cf2_hintmap_build
00009e20 t cf2_hintmap_insertHint
00009d10 t cf2_hintmap_map
00004200 t cf2_interpT2CharString
000009b7 r cf2_interpT2CharString.readFromStack
000009c3 r cf2_interpT2CharString.readFromStack.14
000009cf r cf2_interpT2CharString.readFromStack.15
000009db r cf2_interpT2CharString.readFromStack.16
00007650 t cf2_stack_getReal
000076c0 t cf2_stack_popFixed
00007e90 t cf2_stack_popInt
000040e0 t cff_builder_start_point
0000b0b0 t cff_charset_load
00001980 t cff_cmap_encoding_char_index
000019a0 t cff_cmap_encoding_char_next
00000760 R cff_cmap_encoding_class_rec
00001970 t cff_cmap_encoding_done
00001950 t cff_cmap_encoding_init
00001a80 t cff_cmap_unicode_char_index
00001aa0 t cff_cmap_unicode_char_next
000007b0 R cff_cmap_unicode_class_rec
00001a50 t cff_cmap_unicode_done
000019f0 t cff_cmap_unicode_init
000006b8 R cff_driver_class
00000030 t cff_driver_done
00000000 t cff_driver_init
0000b650 t cff_encoding_load
000014b0 r cff_expert_charset
000016b0 r cff_expert_encoding
00001600 r cff_expertsubset_charset
00000f00 t cff_face_done
000000a0 t cff_face_init
00000c30 r cff_field_handlers
00000c10 r cff_font_load.cff_header_fields
000015e0 t cff_get_advances
000020d0 t cff_get_cid_from_glyph_index
00001ef0 t cff_get_cmap_info
00001da0 t cff_get_glyph_name
00000040 t cff_get_interface
000020a0 t cff_get_is_cid
000015b0 t cff_get_kerning
00001e30 t cff_get_name_index
00001d90 t cff_get_ps_name
00001f80 t cff_get_ros
00001560 t cff_glyph_load
00003be0 t cff_index_access_element
0000b060 t cff_index_done
0000a4e0 t cff_index_get_name
0000a890 t cff_index_get_pointers
0000a6f0 t cff_index_init
000012e0 r cff_isoadobe_charset
0000a0e0 t cff_make_private_dict
0000c910 t cff_parse_cid_ros
0000c6f0 t cff_parse_font_bbox
0000c480 t cff_parse_font_matrix
0000c790 t cff_parse_private_dict
0000cb50 t cff_parse_real
0000bcc0 t cff_parser_run
00002270 t cff_property_get
00002110 t cff_property_set
00001ac0 t cff_ps_get_font_info
00001d80 t cff_ps_has_glyph_names
00000938 r cff_service_cid_info
00000928 r cff_service_get_cmap_info
00000908 r cff_service_glyph_dict
00000960 r cff_service_properties
000008b0 r cff_service_ps_info
000008f0 r cff_service_ps_name
00000800 r cff_services
0000cff0 t cff_sid_to_glyph_name
00001460 t cff_size_done
00001320 t cff_size_init
000016d0 t cff_size_request
00001830 t cff_size_select
00001550 t cff_slot_done
000014f0 t cff_slot_init
00002310 t cff_slot_load
000009f0 r cff_standard_encoding
0000ad10 t cff_subfont_load
0000cf00 t do_fixed
         U ft_mem_alloc
         U ft_mem_free
         U ft_mem_qalloc
         U ft_mem_realloc
         U ft_mem_strcpyn
         U ft_mem_strdup
         U ft_module_get_service
         U ft_service_list_lookup
         U ft_synthesize_vertical_metrics
         U memcpy
         U memmove
         U memset
000012b0 r power_tens
0000a640 t remove_style
0000a580 t remove_subset_prefix
         U strcmp
         U strlen
         U strncmp

ft2_ftapi.o:
00000000 a @feat.00
00000070 T FT_Access_Frame
00000050 T FT_Extract_Frame
00000080 T FT_Forget_Frame
00000000 T FT_New_Memory_Stream
00000030 T FT_Read_Stream
00000040 T FT_Read_Stream_At
00000060 T FT_Release_Frame
00000010 T FT_Seek_Stream
00000020 T FT_Skip_Stream
         U FT_Stream_EnterFrame
         U FT_Stream_ExitFrame
         U FT_Stream_ExtractFrame
         U FT_Stream_OpenMemory
         U FT_Stream_Read
         U FT_Stream_ReadAt
         U FT_Stream_ReleaseFrame
         U FT_Stream_Seek
         U FT_Stream_Skip

ft2_ftbase.o:
00000000 a @feat.00
00007560 T FT_Activate_Size
000078f0 T FT_Add_Module
0000d880 T FT_Angle_Diff
0000d180 T FT_Atan2
00005190 T FT_Attach_File
000051d0 T FT_Attach_Stream
000067c0 T FT_CMap_Done
00006980 T FT_CMap_New
000008e0 T FT_CeilFix
0000ccf0 T FT_Cos
00001230 T FT_DivFix
00004e60 T FT_Done_Face
00003460 T FT_Done_GlyphSlot
000084c0 T FT_Done_Library
00005410 T FT_Done_Size
00006ca0 T FT_Face_GetCharVariantIndex
00006dd0 T FT_Face_GetCharVariantIsDefault
00007090 T FT_Face_GetCharsOfVariant
00006ec0 T FT_Face_GetVariantSelectors
00006fa0 T FT_Face_GetVariantsOfChar
00000910 T FT_FloorFix
00000000 T FT_Get_Advance
00000170 T FT_Get_Advances
00006710 T FT_Get_CMap_Format
00007500 T FT_Get_CMap_Language_ID
00003980 T FT_Get_Char_Index
00006780 T FT_Get_Charmap_Index
00006b40 T FT_Get_First_Char
00007230 T FT_Get_Glyph_Name
000063a0 T FT_Get_Kerning
00008020 T FT_Get_Module
00008090 T FT_Get_Module_Interface
00007180 T FT_Get_Name_Index
00006c10 T FT_Get_Next_Char
00007320 T FT_Get_Postscript_Name
000075e0 T FT_Get_Renderer
0000c280 T FT_Get_Sfnt_Name
0000c260 T FT_Get_Sfnt_Name_Count
000073a0 T FT_Get_Sfnt_Table
00008860 T FT_Get_SubGlyph_Info
000064c0 T FT_Get_Track_Kerning
00008780 T FT_Get_TrueType_Engine_Type
00002ac0 T FT_GlyphLoader_Add
00002290 T FT_GlyphLoader_CheckPoints
000028e0 T FT_GlyphLoader_CheckSubGlyphs
00002bf0 T FT_GlyphLoader_CopyPoints
00002060 T FT_GlyphLoader_CreateExtra
00001f30 T FT_GlyphLoader_Done
00001cf0 T FT_GlyphLoader_New
00002a40 T FT_GlyphLoader_Prepare
00001e10 T FT_GlyphLoader_Reset
00001db0 T FT_GlyphLoader_Rewind
00000930 T FT_Hypot
00008480 T FT_Library_Version
00004cc0 T FT_List_Add
0000db50 T FT_List_Finalize
000053a0 T FT_List_Find
0000dab0 T FT_List_Insert
0000daf0 T FT_List_Iterate
000053d0 T FT_List_Remove
00007700 T FT_List_Up
00003930 T FT_Load_Char
00000300 T FT_Load_Glyph
00007400 T FT_Load_Sfnt_Table
00007590 T FT_Lookup_Renderer
00005540 T FT_Match_Size
000014a0 T FT_Matrix_Invert
00001370 T FT_Matrix_Multiply
000019b0 T FT_Matrix_Multiply_Scaled
00000f20 T FT_MulDiv
000010a0 T FT_MulDiv_No_Round
00001210 T FT_MulFix
000039a0 T FT_New_Face
000030d0 T FT_New_GlyphSlot
000083a0 T FT_New_Library
00004480 T FT_New_Memory_Face
00004d00 T FT_New_Size
000039e0 T FT_Open_Face
000035a0 T FT_Outline_Check
00008f10 T FT_Outline_Copy
000088d0 T FT_Outline_Decompose
00008fb0 T FT_Outline_Done
00008e50 T FT_Outline_Done_Internal
000097e0 T FT_Outline_Embolden
000097f0 T FT_Outline_EmboldenXY
00009660 T FT_Outline_Get_Bitmap
00009050 T FT_Outline_Get_CBox
0000a640 T FT_Outline_Get_Orientation
00008ef0 T FT_Outline_New
00008ca0 T FT_Outline_New_Internal
00009510 T FT_Outline_Render
00009460 T FT_Outline_Reverse
000036d0 T FT_Outline_Transform
000037a0 T FT_Outline_Translate
00008290 T FT_Property_Get
000081a0 T FT_Property_Set
0000b0b0 T FT_Raccess_Get_DataOffsets
0000ad00 T FT_Raccess_Get_HeaderInfo
0000bb60 T FT_Raccess_Guess
00005380 T FT_Reference_Face
00008380 T FT_Reference_Library
00007b30 T FT_Remove_Module
00003900 T FT_Render_Glyph
00007750 T FT_Render_Glyph_Internal
00005a50 T FT_Request_Metrics
00006120 T FT_Request_Size
000008b0 T FT_RoundFix
00006540 T FT_Select_Charmap
000056e0 T FT_Select_Metrics
000060c0 T FT_Select_Size
000061c0 T FT_Set_Char_Size
00006630 T FT_Set_Charmap
00008760 T FT_Set_Debug_Hook
000062c0 T FT_Set_Pixel_Sizes
00007620 T FT_Set_Renderer
00003500 T FT_Set_Transform
00007480 T FT_Sfnt_Table_Info
0000ce30 T FT_Sin
00002f40 T FT_Stream_Close
0000c590 T FT_Stream_EnterFrame
0000c700 T FT_Stream_ExitFrame
0000c490 T FT_Stream_ExtractFrame
00002ef0 T FT_Stream_Free
0000c740 T FT_Stream_GetChar
0000c800 T FT_Stream_GetULong
0000c820 T FT_Stream_GetULongLE
0000c7c0 T FT_Stream_GetUOffset
0000c760 T FT_Stream_GetUShort
0000c790 T FT_Stream_GetUShortLE
00002dd0 T FT_Stream_New
         U FT_Stream_Open
00002ed0 T FT_Stream_OpenMemory
0000c3c0 T FT_Stream_Pos
0000af60 T FT_Stream_Read
0000c3d0 T FT_Stream_ReadAt
0000c840 T FT_Stream_ReadChar
0000ca20 T FT_Stream_ReadFields
0000b5e0 T FT_Stream_ReadULong
0000c9b0 T FT_Stream_ReadULongLE
0000c920 T FT_Stream_ReadUOffset
0000b030 T FT_Stream_ReadUShort
0000c8b0 T FT_Stream_ReadUShortLE
0000c690 T FT_Stream_ReleaseFrame
000047b0 T FT_Stream_Seek
0000afe0 T FT_Stream_Skip
0000c440 T FT_Stream_TryRead
0000cf30 T FT_Tan
0000d860 T FT_Vector_From_Polar
00000950 T FT_Vector_Length
0000d680 T FT_Vector_Polarize
0000d3e0 T FT_Vector_Rotate
00003860 T FT_Vector_Transform
00001ac0 T FT_Vector_Transform_Scaled
0000d290 T FT_Vector_Unit
0000dd80 t IsMacResource
         U __imp_longjmp
000000f0 t _ft_face_scale_advances
00004f10 t destroy_face
00007f10 t ft_add_renderer
00001c50 T ft_corner_is_flat
00001b50 T ft_corner_orientation
00003040 T ft_glyphslot_alloc_bitmap
00003280 t ft_glyphslot_done
00002f60 T ft_glyphslot_free_bitmap
00003620 t ft_glyphslot_grid_fit_metrics
00002fd0 T ft_glyphslot_set_bitmap
00001d60 T ft_mem_alloc
0000d9a0 T ft_mem_dup
00001f20 T ft_mem_free
0000c6d0 T ft_mem_qalloc
0000d8d0 T ft_mem_qrealloc
00002150 T ft_mem_realloc
0000da70 T ft_mem_strcpyn
0000da00 T ft_mem_strdup
00008110 T ft_module_get_service
00000110 R ft_raccess_guess_table
0000b650 t ft_raccess_sort_ref_by_id
00002d20 T ft_service_list_lookup
00005660 T ft_synthesize_vertical_metrics
00000210 r ft_trig_arctan_table
00002db0 T ft_validator_error
00002d80 T ft_validator_init
00002da0 T ft_validator_run
         U memcpy
         U memmove
0000dd40 t memory_stream_close
         U memset
000044d0 t open_face
00004800 t open_face_PS_from_sfnt_stream
0000dbf0 t open_face_from_buffer
         U qsort
0000b670 t raccess_guess_apple_double
0000e4b0 t raccess_guess_apple_generic
0000b6a0 t raccess_guess_apple_single
0000b860 t raccess_guess_darwin_hfsplus
0000b7c0 t raccess_guess_darwin_newvfs
0000b6d0 t raccess_guess_darwin_ufs_export
0000b940 t raccess_guess_linux_cap
0000b980 t raccess_guess_linux_double
0000ba70 t raccess_guess_linux_netatalk
0000b900 t raccess_guess_vfat
0000e770 t raccess_make_file_name
         U strcat
         U strcmp
         U strlen
         U strncpy
         U strrchr

ft2_ftbbox.o:
00000000 a @feat.00
000006a0 t BBox_Conic_To
00000850 t BBox_Cubic_Check
00000790 t BBox_Cubic_To
00000690 t BBox_Line_To
00000640 t BBox_Move_To
         U FT_MulDiv
         U FT_Outline_Decompose
00000000 T FT_Outline_Get_BBox
00000040 r bbox_interface

ft2_ftbdf.o:
00000000 a @feat.00
00000000 T FT_Get_BDF_Charset_ID
000000b0 T FT_Get_BDF_Property

ft2_ftbitmap.o:
00000000 a @feat.00
00000c40 T FT_Bitmap_Convert
00000020 T FT_Bitmap_Copy
00001420 T FT_Bitmap_Done
000002c0 T FT_Bitmap_Embolden
00000000 T FT_Bitmap_New
00001480 T FT_GlyphSlot_Own_Bitmap
         U ft_mem_free
         U ft_mem_qalloc
         U ft_mem_qrealloc
         U memcpy
         U memset

ft2_ftbzip2.o:
00000000 a @feat.00
00000000 T FT_Stream_OpenBzip2

ft2_ftcache.o:
00000000 a @feat.00
00000c70 T FTC_CMapCache_Lookup
00000b10 T FTC_CMapCache_New
00000f20 t FTC_Cache_NewNode
00001340 T FTC_ImageCache_Lookup
00001680 T FTC_ImageCache_LookupScaler
00001130 T FTC_ImageCache_New
00000550 T FTC_Manager_Done
000002f0 T FTC_Manager_LookupFace
00000000 T FTC_Manager_LookupSize
000003c0 T FTC_Manager_New
00000820 T FTC_Manager_RemoveFaceID
000006d0 T FTC_Manager_Reset
000001a0 t FTC_MruList_New
00000ae0 T FTC_Node_Unref
00001be0 T FTC_SBitCache_Lookup
00001f60 T FTC_SBitCache_LookupScaler
000019d0 T FTC_SBitCache_New
         U FT_Activate_Size
         U FT_Done_Face
         U FT_Done_Glyph
         U FT_Done_Size
         U FT_Get_Char_Index
         U FT_Get_Glyph
         U FT_Load_Glyph
         U FT_New_Size
         U FT_Set_Char_Size
         U FT_Set_Charmap
         U FT_Set_Pixel_Sizes
         U ft_mem_alloc
         U ft_mem_free
         U ft_mem_realloc
00001620 t ftc_basic_family_compare
00003760 t ftc_basic_family_get_count
00002f80 t ftc_basic_family_init
00003820 t ftc_basic_family_load_bitmap
00002fc0 t ftc_basic_family_load_glyph
00002cd0 t ftc_basic_gnode_compare_faceid
00000090 r ftc_basic_image_cache_class
00000120 r ftc_basic_image_family_class
000000d8 r ftc_basic_sbit_cache_class
00000150 r ftc_basic_sbit_family_class
00002ac0 t ftc_cache_done
00002a60 t ftc_cache_init
00002770 t ftc_cache_resize
00000050 r ftc_cmap_cache_class
00000ef0 t ftc_cmap_node_compare
00002a50 t ftc_cmap_node_free
00002950 t ftc_cmap_node_new
00002a30 t ftc_cmap_node_remove_faceid
00002a20 t ftc_cmap_node_weight
00000000 r ftc_face_list_class
000003b0 t ftc_face_node_compare
000023b0 t ftc_face_node_done
00002350 t ftc_face_node_init
00002ee0 t ftc_gcache_done
00002e40 t ftc_gcache_init
00002cb0 t ftc_gnode_compare
00002d80 t ftc_inode_free
00002be0 t ftc_inode_new
00002c60 t ftc_inode_weight
00002690 t ftc_node_destroy
00003700 t ftc_sbit_copy_bitmap
00002560 t ftc_scaler_lookup_size
00000028 r ftc_size_list_class
00000140 t ftc_size_node_compare
00002550 t ftc_size_node_done
000024e0 t ftc_size_node_init
00002500 t ftc_size_node_reset
00003270 t ftc_snode_compare
00003480 t ftc_snode_free
00003560 t ftc_snode_load
00003040 t ftc_snode_new
000031b0 t ftc_snode_weight
         U memcpy

ft2_ftcid.o:
00000000 a @feat.00
00000140 T FT_Get_CID_From_Glyph_Index
000000c0 T FT_Get_CID_Is_Internally_CID_Keyed
00000000 T FT_Get_CID_Registry_Ordering_Supplement

ft2_ftdebug.o:
00000000 a @feat.00
00000010 T FT_Trace_Get_Count
00000020 T FT_Trace_Get_Name
00000000 T ft_debug_init

ft2_ftfstype.o:
00000000 a @feat.00
00000000 T FT_Get_FSType_Flags
         U FT_Get_Sfnt_Table

ft2_ftgasp.o:
00000000 a @feat.00
00000000 T FT_Get_Gasp

ft2_ftglyph.o:
00000000 a @feat.00
         U FT_Bitmap_Copy
         U FT_Bitmap_Done
         U FT_Bitmap_New
00000320 T FT_Done_Glyph
00000360 T FT_Get_Glyph
00000240 T FT_Glyph_Copy
000004b0 T FT_Glyph_Get_CBox
00000540 T FT_Glyph_To_Bitmap
00000460 T FT_Glyph_Transform
         U FT_Lookup_Renderer
         U FT_Outline_Copy
         U FT_Outline_Done
         U FT_Outline_Get_CBox
         U FT_Outline_New
         U FT_Outline_Transform
         U FT_Outline_Translate
         U FT_Render_Glyph_Internal
         U FT_Vector_Transform
000000c0 t ft_bitmap_glyph_bbox
00000020 R ft_bitmap_glyph_class
000000a0 t ft_bitmap_glyph_copy
00000090 t ft_bitmap_glyph_done
00000000 t ft_bitmap_glyph_init
         U ft_mem_alloc
         U ft_mem_free
000001f0 t ft_outline_glyph_bbox
00000058 R ft_outline_glyph_class
00000160 t ft_outline_glyph_copy
00000150 t ft_outline_glyph_done
000000f0 t ft_outline_glyph_init
00000200 t ft_outline_glyph_prepare
000001b0 t ft_outline_glyph_transform

ft2_ftgxval.o:
00000000 a @feat.00
00000100 T FT_ClassicKern_Free
00000090 T FT_ClassicKern_Validate
00000070 T FT_TrueTypeGX_Free
00000000 T FT_TrueTypeGX_Validate
         U ft_mem_free
         U ft_module_get_service

ft2_ftgzip.o:
00000000 a @feat.00
00000780 T FT_Gzip_Uncompress
00000000 T FT_Stream_OpenGzip
         U FT_Stream_Pos
         U FT_Stream_Read
         U FT_Stream_ReadChar
         U FT_Stream_ReadULong
         U FT_Stream_ReadUShortLE
         U FT_Stream_Seek
         U FT_Stream_Skip
00000860 t ft_gzip_alloc
000002a0 t ft_gzip_check_header
000003f0 t ft_gzip_file_io
00000880 t ft_gzip_free
00000700 t ft_gzip_stream_close
00000770 t ft_gzip_stream_io
         U ft_mem_alloc
         U ft_mem_free
         U ft_mem_qalloc
         U inflate
         U inflateEnd
         U inflateInit2_
         U inflateReset
         U memcpy

ft2_ftinit.o:
00000000 R .refptr.autofit_module_class
00000000 R .refptr.bdf_driver_class
00000000 R .refptr.cff_driver_class
00000000 R .refptr.ft_raster1_renderer_class
00000000 R .refptr.ft_smooth_lcd_renderer_class
00000000 R .refptr.ft_smooth_lcdv_renderer_class
00000000 R .refptr.ft_smooth_renderer_class
00000000 R .refptr.pcf_driver_class
00000000 R .refptr.pfr_driver_class
00000000 R .refptr.psaux_module_class
00000000 R .refptr.pshinter_module_class
00000000 R .refptr.psnames_module_class
00000000 R .refptr.sfnt_module_class
00000000 R .refptr.t1_driver_class
00000000 R .refptr.t1cid_driver_class
00000000 R .refptr.t42_driver_class
00000000 R .refptr.tt_driver_class
00000000 R .refptr.winfnt_driver_class
00000000 a @feat.00
00000000 T FT_Add_Default_Modules
         U FT_Add_Module
00000170 T FT_Done_FreeType
         U FT_Done_Library
         U FT_Done_Memory
00000120 T FT_Init_FreeType
         U FT_New_Library
         U FT_New_Memory
         U autofit_module_class
         U bdf_driver_class
         U cff_driver_class
         U ft_raster1_renderer_class
         U ft_smooth_lcd_renderer_class
         U ft_smooth_lcdv_renderer_class
         U ft_smooth_renderer_class
         U pcf_driver_class
         U pfr_driver_class
         U psaux_module_class
         U pshinter_module_class
         U psnames_module_class
         U sfnt_module_class
         U t1_driver_class
         U t1cid_driver_class
         U t42_driver_class
         U tt_driver_class
         U winfnt_driver_class

ft2_ftlcdfil.o:
00000000 a @feat.00
00000010 T FT_Library_SetLcdFilter
00000000 T FT_Library_SetLcdFilterWeights

ft2_ftlzw.o:
00000000 a @feat.00
00000000 T FT_Stream_OpenLZW
         U FT_Stream_Read
         U FT_Stream_Seek
         U FT_Stream_TryRead
000003f0 t ft_lzw_stream_close
00000220 t ft_lzw_stream_io
000005c0 T ft_lzwstate_done
00000ca0 t ft_lzwstate_get_code
00000520 T ft_lzwstate_init
00000680 T ft_lzwstate_io
000004f0 T ft_lzwstate_reset
         U ft_mem_alloc
         U ft_mem_free
         U ft_mem_realloc
         U memcpy
         U memmove

ft2_ftmm.o:
00000000 a @feat.00
000000b0 T FT_Get_MM_Var
00000000 T FT_Get_Multi_Master
000002c0 T FT_Set_MM_Blend_Coordinates
00000160 T FT_Set_MM_Design_Coordinates
00000370 T FT_Set_Var_Blend_Coordinates
00000210 T FT_Set_Var_Design_Coordinates

ft2_ftotval.o:
00000000 a @feat.00
000000c0 T FT_OpenType_Free
00000000 T FT_OpenType_Validate
         U ft_mem_free
         U ft_module_get_service

ft2_ftpatent.o:
00000000 a @feat.00
00000000 T FT_Face_CheckTrueTypePatents
00000310 T FT_Face_SetUnpatentedHinting
         U FT_Stream_EnterFrame
         U FT_Stream_ExitFrame
         U FT_Stream_ReadUShort
         U FT_Stream_Seek
         U FT_Stream_Skip
00000320 t _tt_check_patents_in_range

ft2_ftpfr.o:
00000000 a @feat.00
         U FT_Get_Kerning
000001c0 T FT_Get_PFR_Advance
00000100 T FT_Get_PFR_Kerning
00000000 T FT_Get_PFR_Metrics

ft2_ftstroke.o:
00000000 R .refptr.ft_outline_glyph_class
00000000 a @feat.00
         U FT_Angle_Diff
         U FT_Atan2
         U FT_Cos
         U FT_DivFix
         U FT_Done_Glyph
         U FT_Glyph_Copy
00003570 T FT_Glyph_Stroke
00003760 T FT_Glyph_StrokeBorder
         U FT_MulDiv
         U FT_MulFix
         U FT_Outline_Done
00000000 T FT_Outline_GetInsideBorder
00000020 T FT_Outline_GetOutsideBorder
         U FT_Outline_Get_Orientation
         U FT_Outline_New
         U FT_Sin
00001da0 T FT_Stroker_BeginSubPath
00000650 T FT_Stroker_ConicTo
000010a0 T FT_Stroker_CubicTo
00000170 T FT_Stroker_Done
00001e00 T FT_Stroker_EndSubPath
00002be0 T FT_Stroker_Export
000028d0 T FT_Stroker_ExportBorder
000026e0 T FT_Stroker_GetBorderCounts
000027a0 T FT_Stroker_GetCounts
00000240 T FT_Stroker_LineTo
00000040 T FT_Stroker_New
000031e0 T FT_Stroker_ParseOutline
00000140 T FT_Stroker_Rewind
000000e0 T FT_Stroker_Set
         U FT_Tan
         U FT_Vector_From_Polar
         U FT_Vector_Length
         U ft_mem_alloc
         U ft_mem_free
         U ft_mem_realloc
         U ft_outline_glyph_class
00000fa0 t ft_stroke_border_conicto
00001c90 t ft_stroke_border_cubicto
00000500 t ft_stroke_border_lineto
00003920 t ft_stroker_arcto
000021a0 t ft_stroker_cap
00002320 t ft_stroker_inside
00002430 t ft_stroker_outside
000003c0 t ft_stroker_subpath_start
         U memcpy

ft2_ftsynth.o:
00000000 a @feat.00
         U FT_Bitmap_Embolden
00000040 T FT_GlyphSlot_Embolden
00000000 T FT_GlyphSlot_Oblique
         U FT_GlyphSlot_Own_Bitmap
         U FT_MulFix
         U FT_Outline_EmboldenXY
         U FT_Outline_Transform

ft2_ftsystem.o:
00000000 a @feat.00
000001b0 T FT_Done_Memory
00000140 T FT_New_Memory
00000000 T FT_Stream_Open
         U fclose
         U fopen
         U fread
         U free
         U fseek
00000180 t ft_alloc
00000110 t ft_ansi_stream_close
000000c0 t ft_ansi_stream_io
000001a0 t ft_free
00000190 t ft_realloc
         U ftell
         U malloc
         U realloc

ft2_fttype1.o:
00000000 a @feat.00
00000000 T FT_Get_PS_Font_Info
000000c0 T FT_Get_PS_Font_Private
00000130 T FT_Get_PS_Font_Value
00000070 T FT_Has_PS_Glyph_Names

ft2_ftwinfnt.o:
00000000 a @feat.00
00000000 T FT_Get_WinFNT_Header

ft2_ftxf86.o:
00000000 a @feat.00
00000000 T FT_Get_X11_Font_Format

ft2_gxvalid.o:
00000000 a @feat.00
         U FT_Get_Sfnt_Name
         U FT_Get_Sfnt_Name_Count
         U FT_Load_Glyph
         U FT_Load_Sfnt_Table
         U __intrinsic_setjmpex
00000128 r ckernvalid_interface
00008240 t classic_kern_validate
         U ft_mem_alloc
         U ft_mem_free
         U ft_service_list_lookup
         U ft_validator_error
         U ft_validator_init
00002fc0 t gxv_BinSrchHeader_validate
00002520 t gxv_LookupTable_fmt0_validate
00002640 t gxv_LookupTable_fmt2_validate
000028e0 t gxv_LookupTable_fmt4_validate
00002c40 t gxv_LookupTable_fmt6_validate
00002e00 t gxv_LookupTable_fmt8_validate
00004a50 t gxv_StateTable_subtable_setup
000041d0 t gxv_StateTable_validate
00006490 t gxv_XClassTable_lookupfmt4_transit
00006450 t gxv_XClassTable_lookupval_validate
000063f0 t gxv_XStateTable_subtable_setup
00005f50 t gxv_XStateTable_validate
000024c0 t gxv_bsln_LookupFmt4_transit
00002470 t gxv_bsln_LookupValue_validate
00002100 t gxv_bsln_parts_fmt0_validate
00002150 t gxv_bsln_parts_fmt1_validate
00002270 t gxv_bsln_parts_fmt2_validate
00002390 t gxv_bsln_parts_fmt3_validate
00001330 t gxv_bsln_validate
00006760 t gxv_compare_ulong_offset
00004d30 t gxv_compare_ushort_offset
00000130 r gxv_feat_registry
00000f10 t gxv_feat_validate
000041c0 t gxv_just_classTable_entry_validate
000036e0 t gxv_just_justData_validate
00004190 t gxv_just_pcTable_LookupValue_entry_validate
00001660 t gxv_just_validate
00004160 t gxv_just_wdcTable_LookupValue_validate
00007910 t gxv_kern_subtable_fmt1_entry_validate
00007890 t gxv_kern_subtable_fmt1_subtable_setup
00007840 t gxv_kern_subtable_fmt1_valueTable_load
000079a0 t gxv_kern_subtable_fmt2_clstbl_validate
00006cb0 t gxv_kern_validate_generic
000081e0 t gxv_lcar_LookupFmt4_transit
000080b0 t gxv_lcar_LookupValue_validate
00001fe0 t gxv_lcar_validate
00000e80 t gxv_load_table
00000088 R gxv_module_class
00004d50 t gxv_mort_featurearray_validate
00005400 t gxv_mort_subtable_type0_entry_validate
00004f60 t gxv_mort_subtable_type0_validate
00005550 t gxv_mort_subtable_type1_entry_validate
00005480 t gxv_mort_subtable_type1_substitutionTable_load
000054d0 t gxv_mort_subtable_type1_subtable_setup
00004fe0 t gxv_mort_subtable_type1_validate
000056f0 t gxv_mort_subtable_type2_entry_validate
000055e0 t gxv_mort_subtable_type2_opttable_load
00005650 t gxv_mort_subtable_type2_subtable_setup
00005170 t gxv_mort_subtable_type2_validate
000057f0 t gxv_mort_subtable_type4_lookupfmt4_transit
000057c0 t gxv_mort_subtable_type4_lookupval_validate
000052a0 t gxv_mort_subtable_type4_validate
00005900 t gxv_mort_subtable_type5_entry_validate
00005850 t gxv_mort_subtable_type5_subtable_setup
00005370 t gxv_mort_subtable_type5_validate
000018a0 t gxv_mort_validate
00005f30 t gxv_morx_subtable_type0_entry_validate
000059e0 t gxv_morx_subtable_type0_validate
000068d0 t gxv_morx_subtable_type1_LookupFmt4_transit
000068b0 t gxv_morx_subtable_type1_LookupValue_validate
00006850 t gxv_morx_subtable_type1_entry_validate
00006780 t gxv_morx_subtable_type1_substitutionTable_load
000067d0 t gxv_morx_subtable_type1_subtable_setup
00005a60 t gxv_morx_subtable_type1_validate
00006a30 t gxv_morx_subtable_type2_entry_validate
00006930 t gxv_morx_subtable_type2_opttable_load
00006990 t gxv_morx_subtable_type2_subtable_setup
00005ca0 t gxv_morx_subtable_type2_validate
00005dc0 t gxv_morx_subtable_type4_validate
00006bd0 t gxv_morx_subtable_type5_entry_validate
00006b00 t gxv_morx_subtable_type5_insertionGlyphList_load
00006b50 t gxv_morx_subtable_type5_subtable_setup
00005e90 t gxv_morx_subtable_type5_validate
00001ae0 t gxv_morx_validate
00007ee0 t gxv_opbd_LookupFmt4_transit
00007b60 t gxv_opbd_LookupValue_validate
00001d20 t gxv_opbd_validate
00008050 t gxv_prop_LookupFmt4_transit
00008040 t gxv_prop_LookupValue_validate
00007ef0 t gxv_prop_property_validate
00001e80 t gxv_prop_validate
000064f0 t gxv_set_length_by_ulong_offset
00004ac0 t gxv_set_length_by_ushort_offset
00003220 t gxv_trak_trackData_validate
00001410 t gxv_trak_validate
00000010 t gxv_validate
00000000 t gxvalid_get_service
00000108 r gxvalid_interface
000000c0 r gxvalid_services
         U memset
         U qsort

ft2_otvalid.o:
00000000 a @feat.00
         U FT_Load_Sfnt_Table
         U __intrinsic_setjmpex
         U ft_mem_alloc
         U ft_mem_free
         U ft_service_list_lookup
         U ft_validator_error
         U ft_validator_init
00004b70 t otv_AlternateSubst_validate
00003b80 t otv_Anchor_validate
00001b70 t otv_Axis_validate
000022c0 t otv_BaseCoord_validate
000054f0 t otv_CaretValue_validate
00003300 t otv_ChainContextPos_validate
00004d70 t otv_ChainContextSubst_validate
000039b0 t otv_ClassDef_validate
00003210 t otv_ContextPos_validate
00004c80 t otv_ContextSubst_validate
000034a0 t otv_Coverage_validate
00002eb0 t otv_CursivePos_validate
00002360 t otv_Device_validate
000033f0 t otv_ExtensionPos_validate
00004e60 t otv_ExtensionSubst_validate
00002420 t otv_FeatureList_validate
00000c00 t otv_GDEF_validate
00005e30 t otv_GPOS_subtable_validate
00000940 t otv_GPOS_validate
00000aa0 t otv_GSUB_validate
00000f00 t otv_JSTF_validate
00005580 t otv_JstfPriority_validate
00004bf0 t otv_LigatureSubst_validate
00005280 t otv_Ligature_validate
00004860 t otv_Lookup_validate
00001370 t otv_MATH_validate
00003080 t otv_MarkBasePos_validate
00003100 t otv_MarkLigPos_validate
00003190 t otv_MarkMarkPos_validate
00005f80 t otv_MathGlyphConstruction_validate
00005e50 t otv_MathItalicsCorrectionInfo_validate
00002090 t otv_MinMax_validate
00004af0 t otv_MultipleSubst_validate
00005330 t otv_O_x_Ox
000029d0 t otv_PairPos_validate
00004f20 t otv_ReverseChainSingleSubst_validate
00002550 t otv_ScriptList_validate
00002840 t otv_SinglePos_validate
00004930 t otv_SingleSubst_validate
00003700 t otv_ValueRecord_validate
00000090 r otv_gpos_validate_funcs
000000e0 r otv_gsub_validate_funcs
00000010 R otv_module_class
00003fe0 t otv_u_C_x_Ox
00004550 t otv_u_O_O_O_O_x_Onx
00003cc0 t otv_u_O_O_u_O_O
000041a0 t otv_u_O_O_x_Onx
00004680 t otv_u_x_Ox_y_Oy_z_Oz_p_sp
000042a0 t otv_u_x_y_Ox_sy
00000010 t otv_validate
00003f30 t otv_x_Ox
00003e20 t otv_x_sxy
000051e0 t otv_x_ux
000043a0 t otv_x_ux_y_uy_z_uz_p_sp
000040a0 t otv_x_y_ux_sy
00000000 t otvalid_get_service
00000088 r otvalid_interface
00000050 r otvalid_services

ft2_pcf.o:
00000000 a @feat.00
         U FT_CMap_New
         U FT_Select_Metrics
         U FT_Stream_Close
         U FT_Stream_EnterFrame
         U FT_Stream_ExitFrame
         U FT_Stream_GetULong
         U FT_Stream_GetULongLE
         U FT_Stream_GetUShort
         U FT_Stream_GetUShortLE
         U FT_Stream_OpenGzip
         U FT_Stream_OpenLZW
         U FT_Stream_Read
         U FT_Stream_ReadFields
         U FT_Stream_ReadULong
         U FT_Stream_ReadULongLE
         U FT_Stream_ReadUShort
         U FT_Stream_ReadUShortLE
         U FT_Stream_Seek
         U FT_Stream_Skip
00000160 t PCF_Face_Done
00000010 t PCF_Face_Init
00000310 t PCF_Glyph_Load
00000800 t PCF_Size_Request
000008c0 t PCF_Size_Select
         U ft_glyphslot_alloc_bitmap
         U ft_mem_alloc
         U ft_mem_free
         U ft_mem_realloc
         U ft_mem_strdup
         U ft_service_list_lookup
         U ft_synthesize_vertical_metrics
         U memcpy
00000390 r pcf_accel_header
00000350 r pcf_accel_msb_header
00002f90 t pcf_cmap_char_index
00002fe0 t pcf_cmap_char_next
00000218 r pcf_cmap_class
00002f80 t pcf_cmap_done
00002f60 t pcf_cmap_init
00000410 r pcf_compressed_metric_header
00000108 R pcf_driver_class
00000000 t pcf_driver_requester
000009d0 t pcf_find_property
00001950 t pcf_get_accel
00000930 t pcf_get_bdf_property
00000910 t pcf_get_charset_id
00001af0 t pcf_get_encodings
00002ee0 t pcf_get_metric
00001e40 t pcf_interpret_style
00000a30 t pcf_load_font
000003f0 r pcf_metric_header
000003d0 r pcf_metric_msb_header
00000330 r pcf_property_header
00000310 r pcf_property_msb_header
000001e8 r pcf_service_bdf
000001b0 r pcf_services
000002f0 r pcf_table_header
000002e0 r pcf_toc_header
         U strcmp
         U strlen

ft2_pfr.o:
00000000 a @feat.00
         U FT_CMap_New
         U FT_DivFix
         U FT_GlyphLoader_Add
         U FT_GlyphLoader_CheckPoints
         U FT_GlyphLoader_Rewind
         U FT_MulDiv
         U FT_MulFix
         U FT_Outline_Get_CBox
         U FT_Stream_EnterFrame
         U FT_Stream_ExitFrame
         U FT_Stream_Pos
         U FT_Stream_ReadFields
         U FT_Stream_ReadUOffset
         U FT_Stream_ReadUShort
         U FT_Stream_Seek
         U FT_Stream_Skip
         U ft_glyphslot_alloc_bitmap
         U ft_mem_alloc
         U ft_mem_free
         U ft_mem_realloc
         U ft_service_list_lookup
         U memcpy
00001dc0 t pfr_aux_name_load
00000060 t pfr_cmap_char_index
000000c0 t pfr_cmap_char_next
00000090 R pfr_cmap_class_rec
00000050 t pfr_cmap_done
00000000 t pfr_cmap_init
000000e8 R pfr_driver_class
00001e60 t pfr_extra_item_load_bitmap_info
00002330 t pfr_extra_item_load_font_id
000024e0 t pfr_extra_item_load_kerning_pairs
000023a0 t pfr_extra_item_load_stem_snaps
00001cc0 t pfr_extra_items_parse
00000fc0 t pfr_face_done
00001a30 t pfr_face_get_kerning
00000160 t pfr_face_init
00001c80 t pfr_get_advance
00001930 t pfr_get_kerning
00001990 t pfr_get_metrics
00000150 t pfr_get_service
000039e0 t pfr_glyph_curve_to
00003940 t pfr_glyph_end
00002c20 t pfr_glyph_load_rec
00000200 r pfr_header_fields
000028e0 t pfr_load_bitmap_bits
00002620 t pfr_load_bitmap_metrics
000001d0 r pfr_metrics_service_rec
00000280 r pfr_phy_font_extra_items
00000190 r pfr_services
00001190 t pfr_slot_done
00001140 t pfr_slot_init
00001200 t pfr_slot_load

ft2_psaux.o:
00000000 a @feat.00
         U FT_DivFix
         U FT_GlyphLoader_Add
         U FT_GlyphLoader_CheckPoints
         U FT_GlyphLoader_CheckSubGlyphs
         U FT_GlyphLoader_Prepare
         U FT_GlyphLoader_Rewind
         U FT_RoundFix
00005180 t PS_Conv_ToFixed
00004f50 t PS_Conv_ToInt
00005c40 t afm_compare_kern_pairs
000013b0 r afm_key_table
00003b10 t afm_parser_done
000010b0 R afm_parser_funcs
00003ab0 t afm_parser_init
00003b40 t afm_parser_parse
00005970 t afm_parser_read_vals
00005b60 t afm_stream_read_one
00005be0 t afm_stream_skip_spaces
000012a0 r ft_char_table
         U ft_mem_alloc
         U ft_mem_free
         U ft_mem_qalloc
         U ft_mem_realloc
         U ft_module_get_service
         U memcpy
         U memset
00000640 t ps_parser_done
00000ff0 R ps_parser_funcs
000005d0 t ps_parser_init
00001550 t ps_parser_load_field
00001e10 t ps_parser_load_field_table
000006d0 t ps_parser_skip_PS_token
00000650 t ps_parser_skip_spaces
00000a60 t ps_parser_to_bytes
00000c80 t ps_parser_to_coord_array
000009e0 t ps_parser_to_fixed
000010b0 t ps_parser_to_fixed_array
00000960 t ps_parser_to_int
00001150 t ps_parser_to_token
00001430 t ps_parser_to_token_array
000002a0 t ps_table_add
000000d0 t ps_table_done
00000fd0 R ps_table_funcs
00000000 t ps_table_new
00000570 t ps_table_release
000054e0 t ps_tofixedarray
00005960 t psaux_get_glyph_name
00001230 r psaux_interface
00001268 R psaux_module_class
         U qsort
00004e70 t skip_literal_string
00004cd0 t skip_procedure
         U strcmp
         U strncmp
00001320 r t1_args_count
00002240 t t1_builder_add_contour
00002140 t t1_builder_add_point
000021b0 t t1_builder_add_point1
00002110 t t1_builder_check_points
00002400 t t1_builder_close_contour
000020e0 t t1_builder_done
00001058 R t1_builder_funcs
00002010 t t1_builder_init
000022c0 t t1_builder_start_point
00001208 R t1_cmap_classes
00004ba0 t t1_cmap_custom_char_index
00004bc0 t t1_cmap_custom_char_next
00001168 R t1_cmap_custom_class_rec
00004b90 t t1_cmap_custom_done
00004b60 t t1_cmap_custom_init
00001118 R t1_cmap_expert_class_rec
00004b20 t t1_cmap_expert_init
000010c8 R t1_cmap_standard_class_rec
00004990 t t1_cmap_standard_init
000049f0 t t1_cmap_std_char_index
00004a70 t t1_cmap_std_char_next
000049d0 t t1_cmap_std_done
00004c90 t t1_cmap_unicode_char_index
00004cb0 t t1_cmap_unicode_char_next
000011b8 R t1_cmap_unicode_class_rec
00004c60 t t1_cmap_unicode_done
00004c20 t t1_cmap_unicode_init
00002610 t t1_decoder_done
00001098 R t1_decoder_funcs
00002490 t t1_decoder_init
00002640 t t1_decoder_parse_charstrings
000058c0 t t1_decrypt

ft2_pshinter.o:
00000000 a @feat.00
         U FT_DivFix
         U FT_MulDiv
         U FT_RoundFix
         U ft_corner_is_flat
         U ft_corner_orientation
         U ft_mem_alloc
         U ft_mem_free
         U ft_mem_realloc
         U memmove
000044c0 t ps_dimension_add_t1stem
00004c30 t ps_dimension_done
00004090 t ps_dimension_end
000049c0 t ps_dimension_set_mask_bits
00002310 t ps_hinter_done
00002200 t ps_hinter_init
00000000 T ps_hints_apply
00003a40 t ps_hints_close
00003f30 t ps_hints_t1reset
00003b10 t ps_hints_t1stem3
00004940 t ps_hints_t2counter
000048c0 t ps_hints_t2mask
00003510 t psh_blues_set_zones
000034c0 t psh_globals_destroy
00002e30 t psh_globals_new
00001460 t psh_globals_set_scale
00001ba0 t psh_glyph_interpolate_normal_points
00001fa0 t psh_glyph_interpolate_other_points
00001aa0 t psh_glyph_interpolate_strong_points
000026d0 t psh_hint_align
00002b70 t psh_hint_table_find_strong_points
00002370 t psh_hint_table_init
00002e00 t pshinter_get_globals_funcs
00002e10 t pshinter_get_t1_funcs
00002e20 t pshinter_get_t2_funcs
00000030 r pshinter_interface
00000048 R pshinter_module_class
00003a00 t t1_hints_open
00003a90 t t1_hints_stem
00004750 t t2_hints_open
00004790 t t2_hints_stems

ft2_psnames.o:
00000000 a @feat.00
00000b50 t compare_uni_maps
00000480 r ft_adobe_glyph_list
0000df40 r ft_extra_glyph_names
00000a30 t ft_get_adobe_glyph_index
0000ee10 r ft_mac_names
         U ft_mem_free
         U ft_mem_realloc
         U ft_service_list_lookup
0000f020 r ft_sid_names
0000dfa0 r ft_standard_glyph_names
000009d0 t ps_get_macintosh_name
00000a00 t ps_get_standard_strings
00000010 t ps_unicode_value
00000890 t ps_unicodes_char_index
00000920 t ps_unicodes_char_next
000002a0 t ps_unicodes_init
00000008 r pscmaps_interface
0000f330 r pscmaps_services
00000000 t psnames_get_service
00000048 R psnames_module_class
         U qsort
         U strcmp
00000280 r t1_expert_encoding
00000080 r t1_standard_encoding

ft2_raster.o:
00000000 a @feat.00
00002b40 t Bezier_Up
000021c0 t Conic_To
00002540 t Cubic_To
         U FT_MulDiv
         U FT_MulDiv_No_Round
         U FT_Outline_Get_CBox
         U FT_Outline_Transform
         U FT_Outline_Translate
00001b80 t Horizontal_Sweep_Drop
00001af0 t Horizontal_Sweep_Init
00001b00 t Horizontal_Sweep_Span
00001d50 t Horizontal_Sweep_Step
00001d60 t Line_To
00002920 t Line_Up
00000500 t Render_Glyph
000009d0 t Render_Single_Pass
00002ad0 t Split_Conic
00002d00 t Split_Cubic
00000810 t Vertical_Sweep_Drop
000006a0 t Vertical_Sweep_Init
000006f0 t Vertical_Sweep_Span
000009c0 t Vertical_Sweep_Step
000001d0 t ft_black_done
00000000 t ft_black_new
000000a0 t ft_black_render
00000040 t ft_black_reset
00000090 t ft_black_set_mode
         U ft_mem_alloc
         U ft_mem_free
         U ft_mem_realloc
000004b0 t ft_raster1_get_cbox
000001e0 t ft_raster1_init
00000210 t ft_raster1_render
000000a8 R ft_raster1_renderer_class
000004e0 t ft_raster1_set_mode
00000450 t ft_raster1_transform
00000118 R ft_raster5_renderer_class
00000070 R ft_standard_raster
         U memset

ft2_sfnt.o:
00000000 a @feat.00
         U FT_Bitmap_Convert
         U FT_Bitmap_Done
         U FT_Bitmap_New
         U FT_CMap_New
         U FT_Get_Module_Interface
         U FT_Gzip_Uncompress
         U FT_Match_Size
         U FT_Stream_Close
         U FT_Stream_EnterFrame
         U FT_Stream_ExitFrame
         U FT_Stream_ExtractFrame
         U FT_Stream_Free
         U FT_Stream_GetULong
         U FT_Stream_GetUShort
         U FT_Stream_OpenMemory
         U FT_Stream_Pos
         U FT_Stream_Read
         U FT_Stream_ReadAt
         U FT_Stream_ReadChar
         U FT_Stream_ReadFields
         U FT_Stream_ReadULong
         U FT_Stream_ReadUShort
         U FT_Stream_ReleaseFrame
         U FT_Stream_Seek
         U FT_Stream_Skip
         U __intrinsic_setjmpex
00000ac0 r check_table_dir.table_dir_entry_fields
00006ad0 t compare_offsets
         U ft_glyphslot_alloc_bitmap
         U ft_glyphslot_set_bitmap
         U ft_mem_alloc
         U ft_mem_free
         U ft_mem_realloc
         U ft_mem_strcpyn
         U ft_module_get_service
         U ft_service_list_lookup
         U ft_validator_error
         U ft_validator_init
00008790 t get_sfnt_table
000082a0 t load_post_names
         U memchr
         U memcpy
         U qsort
00004df0 t sfnt_done_face
00000760 r sfnt_find_encoding.tt_encodings
00008c10 t sfnt_get_charset_id
00008b70 t sfnt_get_glyph_name
000029d0 t sfnt_get_interface
00008bb0 t sfnt_get_name_index
00008880 t sfnt_get_ps_name
00003ac0 t sfnt_init_face
00000580 r sfnt_interface
00004460 t sfnt_load_face
00000668 R sfnt_module_class
000006c0 r sfnt_open_font.ttc_header_fields
00000bb0 r sfnt_service_bdf
00000b98 r sfnt_service_glyph_dict
00000b80 r sfnt_service_ps_name
00000b50 r sfnt_service_sfnt_table
00000ae0 r sfnt_services
00006af0 t sfnt_stream_close
00008820 t sfnt_table_info
         U strcmp
         U strlen
         U strncmp
00000010 t tt_cmap0_char_index
00000030 t tt_cmap0_char_next
000001d0 R tt_cmap0_class_rec
00000110 t tt_cmap0_get_info
00000060 t tt_cmap0_validate
000010e0 t tt_cmap10_char_index
00001110 t tt_cmap10_char_next
000003d8 R tt_cmap10_class_rec
00001270 t tt_cmap10_get_info
00001180 t tt_cmap10_validate
000012b0 t tt_cmap12_char_index
00003490 t tt_cmap12_char_map_binary
00001320 t tt_cmap12_char_next
00000440 R tt_cmap12_class_rec
00001540 t tt_cmap12_get_info
00001290 t tt_cmap12_init
00003590 t tt_cmap12_next
00001380 t tt_cmap12_validate
00001580 t tt_cmap13_char_index
000036e0 t tt_cmap13_char_map_binary
000015f0 t tt_cmap13_char_next
000004a8 R tt_cmap13_class_rec
00001860 t tt_cmap13_get_info
00001560 t tt_cmap13_init
000016b0 t tt_cmap13_validate
000018e0 t tt_cmap14_char_index
000018f0 t tt_cmap14_char_next
00001900 t tt_cmap14_char_var_index
00001a70 t tt_cmap14_char_var_isdefault
00001d10 t tt_cmap14_char_variants
00000510 R tt_cmap14_class_rec
000018a0 t tt_cmap14_done
00003830 t tt_cmap14_get_def_chars
000029c0 t tt_cmap14_get_info
00001880 t tt_cmap14_init
000026c0 t tt_cmap14_validate
00001f20 t tt_cmap14_variant_chars
00001be0 t tt_cmap14_variants
00000130 t tt_cmap2_char_index
000001f0 t tt_cmap2_char_next
00000238 R tt_cmap2_class_rec
00000520 t tt_cmap2_get_info
00000320 t tt_cmap2_validate
00000560 t tt_cmap4_char_index
00002c00 t tt_cmap4_char_map_binary
000029e0 t tt_cmap4_char_map_linear
000005a0 t tt_cmap4_char_next
000002a0 R tt_cmap4_class_rec
00000ac0 t tt_cmap4_get_info
00000540 t tt_cmap4_init
00003250 t tt_cmap4_next
00000600 t tt_cmap4_validate
00000ae0 t tt_cmap6_char_index
00000b20 t tt_cmap6_char_next
00000308 R tt_cmap6_class_rec
00000c90 t tt_cmap6_get_info
00000bc0 t tt_cmap6_validate
00000cb0 t tt_cmap8_char_index
00000d10 t tt_cmap8_char_next
00000370 R tt_cmap8_class_rec
000010c0 t tt_cmap8_get_info
00000d90 t tt_cmap8_validate
00000710 r tt_cmap_classes
00000000 t tt_cmap_init
00006d70 t tt_face_build_cmaps
00008c80 t tt_face_find_bdf_prop
00005580 t tt_face_free_name
00005ec0 t tt_face_free_ps_names
00006780 t tt_face_free_sbit
00005fc0 t tt_face_get_kerning
00006980 t tt_face_get_metrics
00006b20 t tt_face_get_name
00005d70 t tt_face_get_ps_name
00003a70 t tt_face_goto_table
00005010 t tt_face_load_any
00005960 t tt_face_load_bhed
00005170 t tt_face_load_cmap
00006170 t tt_face_load_font_dir
00000aa0 r tt_face_load_font_dir.offset_table_fields
000057e0 t tt_face_load_gasp
000007f0 r tt_face_load_generic_header.header_fields
000050a0 t tt_face_load_head
000050f0 t tt_face_load_hhea
00000850 r tt_face_load_hhea.metrics_header_fields
00006490 t tt_face_load_hmtx
00005610 t tt_face_load_kern
000051d0 t tt_face_load_maxp
000008a0 r tt_face_load_maxp.maxp_fields
000008b0 r tt_face_load_maxp.maxp_fields_extra
000053d0 t tt_face_load_name
00000a30 r tt_face_load_name.name_record_fields
00000a10 r tt_face_load_name.name_table_fields
000052b0 t tt_face_load_os2
000008f0 r tt_face_load_os2.os2_fields
000009a0 r tt_face_load_os2.os2_fields_extra1
000009b0 r tt_face_load_os2.os2_fields_extra2
000009d0 r tt_face_load_os2.os2_fields_extra5
00005910 t tt_face_load_pclt
00000a50 r tt_face_load_pclt.pclt_fields
00005380 t tt_face_load_post
000009e0 r tt_face_load_post.post_fields
00006500 t tt_face_load_sbit
000059b0 t tt_face_load_sbit_image
000067d0 t tt_face_load_strike_metrics
000067c0 t tt_face_set_sbit_strike
000090c0 t tt_get_cmap_info
00007120 t tt_name_entry_ascii_from_other
00007070 t tt_name_entry_ascii_from_utf16
000081c0 t tt_sbit_decoder_alloc_bitmap
00007d20 t tt_sbit_decoder_load_bit_aligned
000075b0 t tt_sbit_decoder_load_bitmap
000077e0 t tt_sbit_decoder_load_byte_aligned
000080a0 t tt_sbit_decoder_load_compound
000071b0 t tt_sbit_decoder_load_image
00007520 t tt_sbit_decoder_load_metrics
00000bd0 r tt_service_get_cmap_info
000006d0 r woff_open_font.woff_header_fields

ft2_smooth.o:
00000000 a @feat.00
         U FT_Outline_Decompose
         U FT_Outline_Get_CBox
         U FT_Outline_Transform
         U FT_Outline_Translate
         U __imp_longjmp
         U __intrinsic_setjmpex
00000030 R ft_grays_raster
         U ft_mem_alloc
         U ft_mem_free
00000370 t ft_smooth_get_cbox
000002b0 t ft_smooth_init
000000e0 R ft_smooth_lcd_renderer_class
00000158 R ft_smooth_lcdv_renderer_class
000002e0 t ft_smooth_render
000020d0 t ft_smooth_render_generic
000003c0 t ft_smooth_render_lcd
000003f0 t ft_smooth_render_lcd_v
00000068 R ft_smooth_renderer_class
000003a0 t ft_smooth_set_mode
00000310 t ft_smooth_transform
000001c0 r func_interface
00001520 t gray_conic_to
000004e0 t gray_convert_glyph
000011d0 t gray_convert_glyph_inner
00001700 t gray_cubic_to
000014f0 t gray_line_to
00001330 t gray_move_to
000002a0 t gray_raster_done
00000000 t gray_raster_new
000000c0 t gray_raster_render
00000040 t gray_raster_reset
000000b0 t gray_raster_set_mode
00001bd0 t gray_render_line
00001ef0 t gray_render_scanline
00000420 t gray_render_span
00001a30 t gray_set_cell
         U memcpy
         U memset

ft2_t1afm.o:
00000000 a @feat.00
         U FT_Get_Char_Index
         U FT_MulDiv
         U FT_Set_Charmap
         U FT_Stream_EnterFrame
         U FT_Stream_ExitFrame
00000000 T T1_Done_Metrics
000004f0 T T1_Get_Kerning
00000580 T T1_Get_Track_Kerning
00000050 T T1_Read_Metrics
000002e0 t T1_Read_PFM
00000640 t compare_kern_pairs
         U ft_mem_alloc
         U ft_mem_free
         U ft_mem_realloc
         U qsort
         U strlen
         U strncmp
00000250 t t1_get_index

ft2_t1gload.o:
00000000 a @feat.00
         U FT_Outline_Get_CBox
         U FT_Outline_Transform
         U FT_Outline_Translate
         U FT_RoundFix
         U FT_Vector_Transform
00000120 T T1_Compute_Max_Advance
00000310 T T1_Get_Advances
00000490 T T1_Load_Glyph
000002c0 t T1_Parse_Glyph
00000000 T T1_Parse_Glyph_And_Get_Char_String
         U ft_synthesize_vertical_metrics
         U memset

ft2_t1load.o:
00000000 a @feat.00
         U FT_DivFix
         U FT_MulDiv
         U FT_RoundFix
000008f0 T T1_Done_Blend
         U T1_Finalize_Parser
00000240 T T1_Get_MM_Var
00000000 T T1_Get_Multi_Master
         U T1_Get_Private_Dict
         U T1_New_Parser
00000ad0 T T1_Open_Face
00000550 T T1_Set_MM_Blend
00000670 T T1_Set_MM_Design
00000880 T T1_Set_Var_Design
         U ft_mem_alloc
         U ft_mem_free
         U ft_mem_realloc
         U memcmp
         U memcpy
         U memset
000000f0 T mm_axis_unmap
00000170 T mm_weights_unmap
000027f0 t parse_blend_axis_types
00002600 t parse_blend_design_map
00002460 t parse_blend_design_positions
00002a00 t parse_buildchar
00001db0 t parse_charstrings
00000ff0 t parse_dict
00001740 t parse_encoding
00002450 t parse_private
00001ad0 t parse_subrs
00002900 t parse_weight_vector
         U strcmp
         U strlen
         U strncmp
00002a30 t t1_allocate_blend
00000a90 r t1_keywords
00001640 t t1_parse_font_matrix

ft2_t1objs.o:
00000000 a @feat.00
         U FT_CMap_New
         U FT_Get_Module
         U FT_Get_Module_Interface
         U FT_Request_Metrics
         U FT_RoundFix
         U T1_Compute_Max_Advance
         U T1_Done_Blend
         U T1_Done_Metrics
000007e0 T T1_Driver_Done
000007d0 T T1_Driver_Init
00000200 T T1_Face_Done
00000420 T T1_Face_Init
000001a0 T T1_GlyphSlot_Done
000001b0 T T1_GlyphSlot_Init
         U T1_Open_Face
00000000 T T1_Size_Done
00000070 T T1_Size_Init
00000100 T T1_Size_Request
         U ft_mem_free
         U ft_module_get_service
         U strcmp

ft2_t1parse.o:
00000000 a @feat.00
         U FT_Stream_EnterFrame
         U FT_Stream_ExitFrame
         U FT_Stream_Pos
         U FT_Stream_Read
         U FT_Stream_ReadULongLE
         U FT_Stream_ReadUShort
         U FT_Stream_Seek
         U FT_Stream_Skip
000002a0 T T1_Finalize_Parser
00000300 T T1_Get_Private_Dict
00000000 T T1_New_Parser
000001f0 t check_type1_format
         U ft_mem_alloc
         U ft_mem_free
         U memchr
         U memcmp
         U memmove
         U strncmp

ft2_truetype.o:
00000000 a @feat.00
00005aa0 t Current_Ppem
00005840 t Current_Ppem_Stretched
0000bf70 t Direct_Move
0000bff0 t Direct_Move_Orig
0000c080 t Direct_Move_Orig_X
0000c0b0 t Direct_Move_Orig_Y
0000c060 t Direct_Move_X
0000c090 t Direct_Move_Y
0000bf30 t Dual_Project
         U FT_DivFix
         U FT_Get_Glyph_Name
         U FT_Get_Module
         U FT_Get_Module_Interface
         U FT_GlyphLoader_Add
         U FT_GlyphLoader_CheckPoints
         U FT_GlyphLoader_CheckSubGlyphs
         U FT_GlyphLoader_CreateExtra
         U FT_GlyphLoader_Rewind
         U FT_Hypot
         U FT_MulDiv
         U FT_MulDiv_No_Round
         U FT_Outline_Get_CBox
         U FT_Outline_Translate
         U FT_Request_Metrics
         U FT_Select_Metrics
         U FT_Stream_EnterFrame
         U FT_Stream_ExitFrame
         U FT_Stream_ExtractFrame
         U FT_Stream_GetChar
         U FT_Stream_GetULong
         U FT_Stream_GetUShort
         U FT_Stream_OpenMemory
         U FT_Stream_Pos
         U FT_Stream_Read
         U FT_Stream_ReadFields
         U FT_Stream_ReadUShort
         U FT_Stream_ReleaseFrame
         U FT_Stream_Seek
         U FT_Vector_Transform
00005dd0 t Ins_DELTAP
00006300 t Ins_MDRP
00006050 t Ins_MIRP
00006670 t Ins_PUSHB
00006570 t Ins_PUSHW
00005ae0 t Ins_SxVTL
00005c60 t Ins_UNKNOWN
00005ad0 t Move_CVT
00005a10 t Move_CVT_Stretched
000004d0 r Pop_Push_Count
0000bef0 t Project
0000bed0 t Project_x
0000bee0 t Project_y
00005ab0 t Read_CVT
000058e0 t Read_CVT_Stretched
00006020 t Round_Down_To_Grid
00005ef0 t Round_None
00005f10 t Round_Super
00005f70 t Round_Super_45
00005d90 t Round_To_Double_Grid
00005be0 t Round_To_Grid
00005c20 t Round_To_Half_Grid
00005fe0 t Round_Up_To_Grid
0000b720 t TT_Access_Glyph_Frame
0000bea0 t TT_Forget_Glyph_Frame
00006b10 t TT_Get_MM_Var
00000700 r TT_Get_MM_Var.fvar_fields
00000730 r TT_Get_MM_Var.fvaraxis_fields
0000a8e0 t TT_Hint_Glyph
0000bc00 t TT_Load_Composite_Glyph
00008e30 t TT_Load_Context
0000b770 t TT_Load_Glyph_Header
0000b7f0 t TT_Load_Simple_Glyph
0000beb0 t TT_MulFix14_long_long
00001650 T TT_New_Context
0000a390 t TT_Process_Composite_Component
0000a660 t TT_Process_Composite_Glyph
0000a000 t TT_Process_Simple_Glyph
000017b0 T TT_RunIns
000066e0 t TT_Set_MM_Blend
000071e0 t TT_Set_Var_Design
00009a10 t TT_Vary_Get_Glyph_Deltas
00009870 t Update_Max
00005ac0 t Write_CVT
00005980 t Write_CVT_Stretched
         U ft_mem_alloc
         U ft_mem_free
         U ft_mem_realloc
         U ft_service_list_lookup
00007c50 t ft_var_apply_tuple
00008060 t ft_var_load_avar
000006d0 r ft_var_load_gvar.gvar_fields
00007f10 t ft_var_readpackeddeltas
00007dc0 t ft_var_readpackedpoints
00008390 t load_truetype_glyph
         U memcpy
         U memmove
         U memset
000003d0 r opcode_length
         U strcmp
         U strstr
0000b590 t tt_check_single_notdef
0000ad90 t tt_check_trickyness
00000790 r tt_check_trickyness_family.trick_names
00000850 r tt_check_trickyness_sfnt_ids.sfnt_id
00000388 R tt_default_graphics_state
000002e0 R tt_driver_class
00000030 t tt_driver_done
00000000 t tt_driver_init
00000320 t tt_face_done
00008240 t tt_face_get_location
00000150 t tt_face_init
000073f0 t tt_face_load_cvt
0000b4d0 t tt_face_load_fpgm
0000b190 t tt_face_load_hdmx
0000b370 t tt_face_load_loca
0000b530 t tt_face_load_prep
000074f0 t tt_face_vary_cvt
000012e0 t tt_get_advances
000000e0 t tt_get_interface
000012b0 t tt_get_kerning
000098e0 t tt_get_metrics
00000530 t tt_glyph_load
00009380 t tt_glyphzone_new
00008350 t tt_property_get
00008300 t tt_property_set
00000660 r tt_service_gx_multi_masters
000006c0 r tt_service_properties
00000698 r tt_service_truetype_engine
000006a8 r tt_service_truetype_glyf
000005d0 r tt_services
00000500 t tt_size_done
000096f0 t tt_size_done_bytecode
000004e0 t tt_size_init
00001530 t tt_size_request
0000ac10 t tt_size_reset
00009530 t tt_size_run_fpgm
000091a0 t tt_size_run_prep
000015f0 t tt_size_select
00000520 t tt_slot_init

ft2_type1.o:
00000000 a @feat.00
         U FT_CMap_New
         U FT_DivFix
         U FT_Get_Char_Index
         U FT_Get_Module
         U FT_Get_Module_Interface
         U FT_MulDiv
         U FT_Outline_Get_CBox
         U FT_Outline_Transform
         U FT_Outline_Translate
         U FT_Request_Metrics
         U FT_RoundFix
         U FT_Set_Charmap
         U FT_Stream_EnterFrame
         U FT_Stream_ExitFrame
         U FT_Stream_Pos
         U FT_Stream_Read
         U FT_Stream_ReadULongLE
         U FT_Stream_ReadUShort
         U FT_Stream_Seek
         U FT_Stream_Skip
         U FT_Vector_Transform
00000020 t Get_Interface
00001a90 t Get_Kerning
000037f0 t T1_Done_Blend
00000010 t T1_Driver_Done
00000000 t T1_Driver_Init
00001250 t T1_Face_Done
00000030 t T1_Face_Init
00001d30 t T1_Get_Advances
00002d40 t T1_Get_MM_Var
00002920 t T1_Get_Multi_Master
00002860 t T1_Get_Track_Kerning
00001600 t T1_GlyphSlot_Done
000015b0 t T1_GlyphSlot_Init
00001610 t T1_Load_Glyph
00005290 t T1_Parse_Glyph
000052e0 t T1_Parse_Glyph_And_Get_Char_String
00001b30 t T1_Read_Metrics
00005490 t T1_Read_PFM
00002c20 t T1_Set_MM_Blend
00002a10 t T1_Set_MM_Design
00003130 t T1_Set_Var_Design
00001540 t T1_Size_Done
000014b0 t T1_Size_Init
00001eb0 t T1_Size_Request
000039d0 t check_type1_format
000056a0 t compare_kern_pairs
         U ft_mem_alloc
         U ft_mem_free
         U ft_mem_realloc
         U ft_mem_strcpyn
         U ft_module_get_service
         U ft_service_list_lookup
         U ft_synthesize_vertical_metrics
         U memchr
         U memcmp
         U memcpy
         U memmove
         U memset
00004c30 t parse_blend_axis_types
00004a40 t parse_blend_design_map
000048a0 t parse_blend_design_positions
00004e40 t parse_buildchar
000041f0 t parse_charstrings
000031a0 t parse_dict
00003b80 t parse_encoding
00004890 t parse_private
00003f10 t parse_subrs
00004d40 t parse_weight_vector
         U qsort
         U strcmp
         U strlen
         U strncmp
00004e70 t t1_allocate_blend
00000b68 R t1_driver_class
00001f60 t t1_get_glyph_name
00005400 t t1_get_index
00001f90 t t1_get_name_index
00001f50 t t1_get_ps_name
00000df0 r t1_keywords
00003a80 t t1_parse_font_matrix
00002020 t t1_ps_get_font_extra
00001ff0 t t1_ps_get_font_info
00002040 t t1_ps_get_font_private
00002070 t t1_ps_get_font_value
00002030 t t1_ps_has_glyph_names
00000cb0 r t1_service_glyph_dict
00000d18 r t1_service_kerning
00000d30 r t1_service_multi_masters
00000ce8 r t1_service_ps_info
00000c98 r t1_service_ps_name
00000c10 r t1_services

ft2_type1cid.o:
00000000 a @feat.00
         U FT_DivFix
         U FT_Get_Module
         U FT_Get_Module_Interface
         U FT_Outline_Get_CBox
         U FT_Outline_Transform
         U FT_Outline_Translate
         U FT_Request_Metrics
         U FT_RoundFix
         U FT_Stream_EnterFrame
         U FT_Stream_ExitFrame
         U FT_Stream_ExtractFrame
         U FT_Stream_OpenMemory
         U FT_Stream_Pos
         U FT_Stream_Read
         U FT_Stream_ReadAt
         U FT_Stream_ReleaseFrame
         U FT_Stream_Seek
         U FT_Vector_Transform
         U atol
00000010 t cid_driver_done
00000000 t cid_driver_init
00000f60 t cid_face_done
00000030 t cid_face_init
00000240 r cid_field_records
00001730 t cid_get_cid_from_glyph_index
00000020 t cid_get_interface
00001720 t cid_get_is_cid
00001690 t cid_get_postscript_name
000016f0 t cid_get_ros
00001740 t cid_hex_to_binary
00001b70 t cid_load_glyph
000019e0 t cid_parse_font_matrix
000016e0 t cid_ps_get_font_extra
000016b0 t cid_ps_get_font_info
000001b0 r cid_service_cid_info
00000180 r cid_service_ps_info
00000168 r cid_service_ps_name
000000e0 r cid_services
000011f0 t cid_size_done
00001160 t cid_size_init
00001610 t cid_size_request
000012b0 t cid_slot_done
00001260 t cid_slot_init
000012c0 t cid_slot_load_glyph
         U ft_mem_alloc
         U ft_mem_free
         U ft_mem_realloc
         U ft_service_list_lookup
         U ft_synthesize_vertical_metrics
         U memcpy
         U memset
00001b20 t parse_expansion_factor
000018b0 t parse_fd_array
         U strcmp
         U strlen
         U strncmp
00000030 R t1cid_driver_class

ft2_type42.o:
00000000 a @feat.00
         U FT_Activate_Size
         U FT_CMap_New
         U FT_DivFix
         U FT_Done_Face
         U FT_Done_GlyphSlot
         U FT_Done_Size
         U FT_Get_Module
         U FT_Get_Module_Interface
         U FT_List_Find
         U FT_New_GlyphSlot
         U FT_New_Size
         U FT_Open_Face
         U FT_Request_Size
         U FT_Select_Size
         U FT_Stream_EnterFrame
         U FT_Stream_ExitFrame
         U FT_Stream_Read
         U FT_Stream_Seek
         U FT_Stream_Skip
00000040 t T42_Driver_Done
00000000 t T42_Driver_Init
00000c00 t T42_Face_Done
00000060 t T42_Face_Init
00000050 t T42_Get_Interface
00000ea0 t T42_GlyphSlot_Done
00000e50 t T42_GlyphSlot_Init
00000eb0 t T42_GlyphSlot_Load
00000e10 t T42_Size_Done
00000dd0 t T42_Size_Init
00001020 t T42_Size_Request
00001080 t T42_Size_Select
         U atol
         U ft_glyphslot_free_bitmap
         U ft_mem_alloc
         U ft_mem_free
         U ft_mem_realloc
         U ft_mem_strcpyn
         U ft_module_get_service
         U ft_service_list_lookup
         U memcmp
         U memcpy
         U memset
         U strcmp
         U strlen
         U strncmp
00000038 R t42_driver_class
000010d0 t t42_get_glyph_name
00001100 t t42_get_name_index
00001180 t t42_get_ps_font_name
00000220 r t42_keywords
00001690 t t42_parse_charstrings
00001310 t t42_parse_encoding
00001210 t t42_parse_font_matrix
00001b20 t t42_parse_sfnts
000011c0 t t42_ps_get_font_extra
00001190 t t42_ps_get_font_info
000011e0 t t42_ps_get_font_private
000011d0 t t42_ps_has_glyph_names
00000150 r t42_service_glyph_dict
00000178 r t42_service_ps_font_name
00000190 r t42_service_ps_info
000000f0 r t42_services

ft2_winfnt.o:
00000000 a @feat.00
00000b40 t FNT_Face_Done
00000010 t FNT_Face_Init
00000be0 t FNT_Load_Glyph
00000e00 t FNT_Size_Request
00000ec0 t FNT_Size_Select
         U FT_CMap_New
         U FT_MulDiv
         U FT_Select_Metrics
         U FT_Stream_EnterFrame
         U FT_Stream_ExitFrame
         U FT_Stream_ExtractFrame
         U FT_Stream_GetUShortLE
         U FT_Stream_Pos
         U FT_Stream_ReadFields
         U FT_Stream_ReleaseFrame
         U FT_Stream_Seek
00001020 t fnt_cmap_char_index
00001030 t fnt_cmap_char_next
00000118 r fnt_cmap_class_rec
00001000 t fnt_cmap_init
00000f40 t fnt_font_load
         U ft_mem_alloc
         U ft_mem_free
         U ft_mem_realloc
         U ft_service_list_lookup
         U ft_synthesize_vertical_metrics
         U memcpy
         U strlen
00000010 R winfnt_driver_class
00000f10 t winfnt_get_header
00000000 t winfnt_get_service
00000280 r winfnt_header_fields
00000110 r winfnt_service_rec
000000c0 r winfnt_services
00000190 r winmz_header_fields
000001b0 r winne_header_fields
000001d0 r winpe32_header_fields
00000210 r winpe32_section_fields
00000260 r winpe_rsrc_data_entry_fields
00000250 r winpe_rsrc_dir_entry_fields
00000230 r winpe_rsrc_dir_fields

gif_alloc.o:
00000000 a @feat.00
00000470 T AddExtensionBlock
000003b0 T ApplyTranslation
00000000 T BitSize
00000520 T FreeExtension
00000580 T FreeLastSavedImage
000000d0 T FreeMapObject
00000810 T FreeSavedImages
00000460 T MakeExtension
00000030 T MakeMapObject
00000630 T MakeSavedImage
00000100 T UnionColorMap
         U calloc
         U free
         U malloc
         U memcpy
         U memset
         U realloc

gif_dev2gif.o:
00000000 a @feat.00
00000000 T DumpScreen2Gif

gif_dgif_lib.o:
00000000 R .refptr._GifError
00000000 a @feat.00
         U AddExtensionBlock
000017d0 T DGifCloseFile
00001ae0 t DGifDecompressInput
00000030 r DGifDecompressInput.CodeMasks
00000ba0 t DGifDecompressLine
00001880 T DGifGetCode
00001370 T DGifGetCodeNext
00001590 T DGifGetExtension
000016f0 T DGifGetExtensionNext
00000580 T DGifGetImageDesc
00001990 T DGifGetLZCodes
00000a50 T DGifGetLine
00001450 T DGifGetPixel
000004c0 T DGifGetRecordType
00000160 T DGifGetScreenDesc
000003a0 T DGifOpen
00000030 T DGifOpenFileHandle
00000000 T DGifOpenFileName
00000960 t DGifSetupDecompress
00001ca0 T DGifSlurp
         U FreeExtension
         U FreeMapObject
         U FreeSavedImages
         U MakeMapObject
         U _GifError
         U calloc
         U close
         U fclose
         U fdopen
         U fread
         U free
         U malloc
         U open
         U realloc

gif_egif_lib.o:
00000000 R .refptr._GifError
00000000 a @feat.00
00000003 r CodeMask
00001cc0 t EGifBufferedOutput
000012c0 T EGifCloseFile
000009f0 t EGifCompressLine
00001b00 t EGifCompressOutput
00000110 T EGifOpen
00000060 T EGifOpenFileHandle
00000000 T EGifOpenFileName
00001110 T EGifPutCode
00001200 T EGifPutCodeNext
00000bb0 T EGifPutComment
00000da0 T EGifPutExtension
00000eb0 T EGifPutExtensionFirst
00001030 T EGifPutExtensionLast
00000f90 T EGifPutExtensionNext
000004a0 T EGifPutImageDesc
000008b0 T EGifPutLine
00000b40 T EGifPutPixel
000001d0 T EGifPutScreenDesc
000001b0 T EGifSetGifVersion
000013b0 T EGifSpew
         U FreeMapObject
00000000 d GifVersionPrefix
         U MakeMapObject
         U _ClearHashTable
         U _ExistsHashTable
         U _GifError
         U _InitHashTable
         U _InsertHashTable
         U calloc
         U close
         U fclose
         U fdopen
         U fputc
         U free
         U fwrite
         U malloc
         U open
         U strlen
         U strncpy

gif_err.o:
00000000 a @feat.00
00000000 T GifLastError
00000020 T PrintGifError
00000000 B _GifError
         U __imp___acrt_iob_func
         U fprintf

gif_font.o:
00000000 a @feat.00
00000000 D AsciiTable
00000180 T DrawBox
000003a0 T DrawBoxedText
00000290 T DrawRectangle
00000000 T DrawText
         U memset
         U strlen
         U strtok

gif_getarg.o:
00000000 a @feat.00
00000000 b GAErrorToken
00000000 T GAGetArgs
00000860 T GAPrintErrMsg
00000970 T GAPrintHowTo
00000008 b GATestAllSatis.LocalToken
         U __imp___acrt_iob_func
         U exit
         U fprintf
         U fputc
         U fwrite
         U malloc
         U memcpy
         U sscanf
         U strcpy
         U strlen

gif_hash.o:
00000000 a @feat.00
00000030 T _ClearHashTable
00000080 T _ExistsHashTable
00000000 T _InitHashTable
00000040 T _InsertHashTable
         U malloc
         U memset

gif_qprintf.o:
00000000 a @feat.00
00000000 T GifQprintf
00000000 D GifQuietPrint
         U __imp___acrt_iob_func
         U fputs
         U vsprintf

gif_quantize.o:
00000000 R .refptr._GifError
00000000 a @feat.00
00000000 T QuantizeBuffer
00000790 t SortCmpRtn
00000000 b SortRGBAxis
         U _GifError
         U ___chkstk_ms
         U __imp___acrt_iob_func
         U fprintf
         U free
         U malloc
         U memset
         U qsort

iconv.o:
00000000 a @feat.00
         U ___chkstk_ms
         U __imp__errno
         U _libiconv_locale_charset
00000000 D _libiconv_version
         U abort
00001990 r aliases
00004830 r aliases_hash.asso_values
00000430 t aliases_lookup
00004730 r all_canonical
00000590 r all_encodings
0000a230 r armscii_8_2uni
000065c0 t armscii_8_mbtowc
0000a2f0 r armscii_8_page00
0000a300 r armscii_8_page00_1
0000a320 r armscii_8_page05
0000a380 r armscii_8_page20
00006600 t armscii_8_wctomb
00001640 t ascii_mbtowc
00001660 t ascii_wctomb
00095200 r big5_2charset
0008ce50 r big5_2uni_pagea1
0008fe30 r big5_2uni_pagec9
00011f60 t big5_mbtowc
00093a00 r big5_uni2indx_page00
00093a40 r big5_uni2indx_page02
00093ae0 r big5_uni2indx_page20
00093b90 r big5_uni2indx_page24
00093c30 r big5_uni2indx_page30
00093d30 r big5_uni2indx_page4e
0009519c r big5_uni2indx_pagefa
000951a0 r big5_uni2indx_pagefe
00012020 t big5_wctomb
0000e1f0 t big5hkscs1999_mbtowc
0000e4e0 t big5hkscs1999_reset
0000e370 t big5hkscs1999_wctomb
0000e510 t big5hkscs2001_mbtowc
0000e8f0 t big5hkscs2001_reset
0000e740 t big5hkscs2001_wctomb
0000e920 t big5hkscs2004_mbtowc
0000ecd0 t big5hkscs2004_reset
0000eb30 t big5hkscs2004_wctomb
0000ed00 t big5hkscs2008_mbtowc
0000f6b0 t big5hkscs2008_reset
0000ef30 t big5hkscs2008_wctomb
00002b70 t c99_mbtowc
00002f90 t c99_wctomb
0000da60 t ces_big5_mbtowc
0000db40 t ces_big5_wctomb
0000b300 t ces_gbk_mbtowc
0000b350 t ces_gbk_wctomb
000baa50 r cjk_variants
000b0650 r cjk_variants_indx
00089240 r cns11643_15_2uni_page21
0008ca50 r cns11643_15_2uni_upages
00011ef0 t cns11643_15_mbtowc
00046a20 r cns11643_1_2uni_page21
00046e10 r cns11643_1_2uni_page42
00046e60 r cns11643_1_2uni_page44
00011960 t cns11643_1_mbtowc
00042e50 r cns11643_2_2uni_page21
00011900 t cns11643_2_mbtowc
00076b40 r cns11643_3_2uni_page21
00079d70 r cns11643_3_2uni_page64
00079b50 r cns11643_3_2uni_upages
00011c40 t cns11643_3_mbtowc
00011cf0 t cns11643_4_mbtowc
00079fc0 r cns11643_4a_2uni_page21
0007b690 r cns11643_4a_2uni_upages
0007b9e0 r cns11643_4b_2uni_page40
0007dc20 r cns11643_4b_2uni_upages
0007e000 r cns11643_5_2uni_page21
00082340 r cns11643_5_2uni_upages
00011da0 t cns11643_5_mbtowc
000826e0 r cns11643_6_2uni_page21
000858d0 r cns11643_6_2uni_upages
00011e10 t cns11643_6_mbtowc
00085c00 r cns11643_7_2uni_page21
00088f20 r cns11643_7_2uni_upages
00011e80 t cns11643_7_mbtowc
0004e180 r cns11643_inv_2charset
000498a0 r cns11643_inv_uni2indx_page00
000498e0 r cns11643_inv_uni2indx_page02
00049960 r cns11643_inv_uni2indx_page20
0004b730 r cns11643_inv_uni2indx_page200
00049a10 r cns11643_inv_uni2indx_page24
0004e0f0 r cns11643_inv_uni2indx_page2f8
00049ab0 r cns11643_inv_uni2indx_page30
0004b69c r cns11643_inv_uni2indx_pagefa
0004b6b0 r cns11643_inv_uni2indx_pagefe
00011a80 t cns11643_inv_wctomb
00001410 t compare_by_index
00001420 t compare_by_name
000b0440 r cp1125_2uni
00011190 t cp1125_mbtowc
000b04e0 r cp1125_page00
000b0500 r cp1125_page04
000b05a0 r cp1125_page25
000111d0 t cp1125_wctomb
00008260 r cp1131_2uni
00005700 t cp1131_mbtowc
00008360 r cp1131_page00
00008380 r cp1131_page04
00008420 r cp1131_page25
00005730 t cp1131_wctomb
0000ac30 r cp1133_2uni_1
0000acb0 r cp1133_2uni_2
00006c10 t cp1133_mbtowc
0000acd0 r cp1133_page00
0000ace0 r cp1133_page0e
00006c80 t cp1133_wctomb
00006300 r cp1250_2uni
000046a0 t cp1250_mbtowc
00006400 r cp1250_page00
000064e0 r cp1250_page02
000046d0 t cp1250_wctomb
00006500 r cp1251_2uni
00004770 t cp1251_mbtowc
00006600 r cp1251_page04
000047a0 t cp1251_wctomb
000066a0 r cp1252_2uni
00004850 t cp1252_mbtowc
000066e0 r cp1252_page01
00004880 t cp1252_wctomb
00006730 r cp1253_2uni
00004930 t cp1253_mbtowc
00006830 r cp1253_page00
00006850 r cp1253_page03
000068a0 r cp1253_page20
00004960 t cp1253_wctomb
000068d0 r cp1254_2uni_1
00006910 r cp1254_2uni_2
00006930 r cp1254_2uni_3
00004a10 t cp1254_mbtowc
00006950 r cp1254_page00
00006980 r cp1254_page01
00004a80 t cp1254_wctomb
00006a00 r cp1255_2uni
00006cb8 r cp1255_comb_table
00006b00 r cp1255_comp_table
00006b40 r cp1255_comp_table_data
00006cc0 r cp1255_decomp_table
00004b50 t cp1255_mbtowc
00006bd0 r cp1255_page00
00006c30 r cp1255_page05
00006c80 r cp1255_page20
00004cf0 t cp1255_wctomb
00006dd0 r cp1256_2uni
00004ed0 t cp1256_mbtowc
00006ed0 r cp1256_page00
00006f30 r cp1256_page01
00006f80 r cp1256_page06
00007050 r cp1256_page20
00004f00 t cp1256_wctomb
00007090 r cp1257_2uni
00004fc0 t cp1257_mbtowc
00007190 r cp1257_page00
00007270 r cp1257_page02
00004ff0 t cp1257_wctomb
00007290 r cp1258_2uni
00007818 r cp1258_comb_table
000076f0 r cp1258_comp_bases
00005090 t cp1258_mbtowc
00007720 r cp1258_page00
00007780 r cp1258_page01
000077f0 r cp1258_page03
00005210 t cp1258_wctomb
000aec00 r cp437_2uni
00010460 t cp437_mbtowc
000aed00 r cp437_page00
00010490 t cp437_wctomb
00032350 r cp50221_0208_ext_2uni
000324f0 r cp50221_0208_ext_page21
00032550 r cp50221_0208_ext_page22
00032570 r cp50221_0208_ext_page24
00032588 r cp50221_0208_ext_page30
00032590 r cp50221_0208_ext_page32
000325a0 r cp50221_0208_ext_page32_1
000325b0 r cp50221_0208_ext_page33
00032410 r cp50221_0212_ext_2uni
00032680 r cp50221_0212_ext_page21
00032690 r cp50221_0212_ext_page53
000326c0 r cp50221_0212_ext_page6d
000326d0 r cp50221_0212_ext_page76
000326f0 r cp50221_0212_ext_page7d
00032730 r cp50221_0212_ext_page97
00032750 r cp50221_0212_ext_pagefa
00032778 r cp50221_0212_ext_pageff
000aed60 r cp737_2uni
00010570 t cp737_mbtowc
000aee60 r cp737_page00
000aee80 r cp737_page03
000aeed0 r cp737_page22
000105a0 t cp737_wctomb
000aef20 r cp775_2uni
00010650 t cp775_mbtowc
000af020 r cp775_page00
000af100 r cp775_page20
000af110 r cp775_page25
00010680 t cp775_wctomb
00007e70 r cp850_2uni
00005410 t cp850_mbtowc
00007f70 r cp850_page00
00005440 t cp850_wctomb
000af1c0 r cp852_2uni
00010720 t cp852_mbtowc
000af2c0 r cp852_page00
000af3a0 r cp852_page02
00010750 t cp852_wctomb
000af3c0 r cp853_2uni
000107d0 t cp853_mbtowc
000af4c0 r cp853_page00
000af520 r cp853_page01
000af598 r cp853_page02
00010800 t cp853_wctomb
000af5a0 r cp855_2uni
000108b0 t cp855_mbtowc
000af6a0 r cp855_page00
000af6c0 r cp855_page04
000108e0 t cp855_wctomb
000af720 r cp857_2uni
00010970 t cp857_mbtowc
000af820 r cp857_page00
000af880 r cp857_page01
000109a0 t cp857_wctomb
00010a30 t cp858_mbtowc
00010a70 t cp858_wctomb
000af8d0 r cp860_2uni
00010b00 t cp860_mbtowc
000af9d0 r cp860_page00
00010b30 t cp860_wctomb
000afa30 r cp861_2uni
00010c00 t cp861_mbtowc
000afb30 r cp861_page00
00010c30 t cp861_wctomb
00007fd0 r cp862_2uni
000054d0 t cp862_mbtowc
000080d0 r cp862_page00
00005500 t cp862_wctomb
000afb90 r cp863_2uni
00010d10 t cp863_mbtowc
000afc90 r cp863_page00
00010d40 t cp863_wctomb
000afcf0 r cp864_2uni_1
000afd10 r cp864_2uni_2
00010e20 t cp864_mbtowc
000afe10 r cp864_page00
000afe20 r cp864_page00_1
000afe80 r cp864_page06
000afef0 r cp864_page22
000aff30 r cp864_page25
000aff70 r cp864_pagefe
00010e70 t cp864_wctomb
000b0000 r cp865_2uni
00010fa0 t cp865_mbtowc
000b0100 r cp865_page00
000b0160 r cp865_page03
000b01a0 r cp865_page22
000b01f0 r cp865_page23
00010fd0 t cp865_wctomb
00008130 r cp866_2uni
00005610 t cp866_mbtowc
000081d0 r cp866_page00
000081f0 r cp866_page04
00008250 r cp866_page22
00005650 t cp866_wctomb
000b0210 r cp869_2uni
000110b0 t cp869_mbtowc
000b0310 r cp869_page00
000b0330 r cp869_page03
000b0380 r cp869_page20
000b0390 r cp869_page25
000110e0 t cp869_wctomb
0000ad40 r cp874_2uni
00006d70 t cp874_mbtowc
0000ae40 r cp874_page0e
0000aea0 r cp874_page20
00006da0 t cp874_wctomb
000088e0 t cp932_mbtowc
00008bc0 t cp932_wctomb
00031fa0 r cp932ext_2charset
000305c0 r cp932ext_2uni_page87
00030680 r cp932ext_2uni_pageed
00030970 r cp932ext_2uni_pagefa
00030c80 r cp932ext_uni2indx_page21
00030cf0 r cp932ext_uni2indx_page24
00030d10 r cp932ext_uni2indx_page30
00030d20 r cp932ext_uni2indx_page32
00030da0 r cp932ext_uni2indx_page4e
00030f90 r cp932ext_uni2indx_page57
00031040 r cp932ext_uni2indx_page5b
00031100 r cp932ext_uni2indx_page5f
00031830 r cp932ext_uni2indx_page7d
000318e0 r cp932ext_uni2indx_page83
00031990 r cp932ext_uni2indx_page88
00031b50 r cp932ext_uni2indx_page90
00031f10 r cp932ext_uni2indx_pagef9
00031f60 r cp932ext_uni2indx_pageff
0000b3c0 t cp936_mbtowc
0000b510 t cp936_wctomb
00032780 r cp936ext_2uni_pagea6
000327ac r cp936ext_2uni_pagea8
00011540 t cp936ext_mbtowc
00041f00 r cp936ext_page01
00041f20 r cp936ext_page02
00041f50 r cp936ext_pagefe
0000f850 t cp949_mbtowc
0000fa50 t cp949_wctomb
0009bd10 r cp950_2uni_pagea1
0000dba0 t cp950_mbtowc
0000dd20 t cp950_wctomb
0009c180 r cp950ext_2charset
0009bf90 r cp950ext_2uni_pagef9
000121b0 t cp950ext_mbtowc
0009bff0 r cp950ext_uni2indx_page25
0009c020 r cp950ext_uni2indx_page58
0009c050 r cp950ext_uni2indx_page5a
0009c090 r cp950ext_uni2indx_page60
0009c0b0 r cp950ext_uni2indx_page78
0009c0e0 r cp950ext_uni2indx_page7c
0009c110 r cp950ext_uni2indx_page88
0009c150 r cp950ext_uni2indx_page92
00004940 r direct_tab
0000b1c0 t euc_cn_mbtowc
0000b290 t euc_cn_wctomb
00008100 t euc_jp_mbtowc
00008310 t euc_jp_wctomb
0000f6e0 t euc_kr_mbtowc
0000f7e0 t euc_kr_wctomb
0000d6e0 t euc_tw_mbtowc
0000d9c0 t euc_tw_wctomb
         U free
0000b630 t gb18030_mbtowc
00042600 r gb18030_pua2charset
0000bce0 t gb18030_wctomb
00041f80 r gb18030ext_2uni_pagea9
00041fa0 r gb18030ext_2uni_pagefe
000426c0 r gb18030ext_page2e
00042760 r gb18030ext_page2f
00042780 r gb18030ext_page34
000427f0 r gb18030ext_page36
00042820 r gb18030ext_page39
00042850 r gb18030ext_page43
000428c0 r gb18030ext_page46
00042900 r gb18030ext_page47_1
00042920 r gb18030ext_page47_2
00042950 r gb18030ext_page49
00042a40 r gb18030ext_page4c
00042ab0 r gb18030ext_page4d
00042ad0 r gb18030ext_page9f
00042af0 r gb18030ext_pagefe
00042120 r gb18030uni_charset2uni_ranges
00042460 r gb18030uni_ranges
00042b10 r gb18030uni_uni2charset_ranges
00020280 r gb2312_2charset
0001af60 r gb2312_2uni_page21
0001b5e0 r gb2312_2uni_page30
00007840 t gb2312_mbtowc
0001eac0 r gb2312_uni2indx_page00
0001ebe0 r gb2312_uni2indx_page20
0001ed80 r gb2312_uni2indx_page30
0001ee10 r gb2312_uni2indx_page4e
000201d0 r gb2312_uni2indx_page9e
00020240 r gb2312_uni2indx_pageff
000078f0 t gb2312_wctomb
00011320 t gbk_mbtowc
000115f0 t gbk_wctomb
000327c0 r gbkext1_2uni_page81
00035740 r gbkext2_2uni_pagea8
0003af20 r gbkext_inv_2charset
000397e0 r gbkext_inv_uni2indx_page02
00039820 r gbkext_inv_uni2indx_page20
000398d0 r gbkext_inv_uni2indx_page25
00039920 r gbkext_inv_uni2indx_page30
00039960 r gbkext_inv_uni2indx_page32
000399e0 r gbkext_inv_uni2indx_page4e
0003ae50 r gbkext_inv_uni2indx_pagef9
0003aea0 r gbkext_inv_uni2indx_pagefe
000066a0 t georgian_academy_mbtowc
000066e0 t georgian_academy_wctomb
0000a3a0 r georgian_ps_2uni_1
0000a3e0 r georgian_ps_2uni_2
000067d0 t georgian_ps_mbtowc
0000a430 r georgian_ps_page00
0000a450 r georgian_ps_page01
0000a4a0 r georgian_ps_page02
0000a4c0 r georgian_ps_page10
00006810 t georgian_ps_wctomb
000a4180 r hkscs1999_2charset
0009c1e0 r hkscs1999_2uni_page88
0009d610 r hkscs1999_2uni_page8d
0009eea0 r hkscs1999_2uni_pagec6
0009f250 r hkscs1999_2uni_pagef9
0009c6d0 r hkscs1999_2uni_upages
00012210 t hkscs1999_mbtowc
0009f9b0 r hkscs1999_uni2indx_page00
0009fa70 r hkscs1999_uni2indx_page04
0009fa90 r hkscs1999_uni2indx_page1e
000a1810 r hkscs1999_uni2indx_page200
0009fad0 r hkscs1999_uni2indx_page21
0009fb10 r hkscs1999_uni2indx_page23
0009fbb0 r hkscs1999_uni2indx_page27
000a3c90 r hkscs1999_uni2indx_page294
000a3d10 r hkscs1999_uni2indx_page297
0009fbc0 r hkscs1999_uni2indx_page2e
000a4100 r hkscs1999_uni2indx_page2f8
0009fcd0 r hkscs1999_uni2indx_page34
000a17c0 r hkscs1999_uni2indx_pagef9
000a17d0 r hkscs1999_uni2indx_pageff
00012330 t hkscs1999_wctomb
000a7920 r hkscs2001_2charset
000a6640 r hkscs2001_2uni_page8c
000a6740 r hkscs2001_2uni_upages
000a74e0 r hkscs2001_uni2indx_page214
000a74f0 r hkscs2001_uni2indx_page219
000a7520 r hkscs2001_uni2indx_page21d
000a7550 r hkscs2001_uni2indx_page220
000a7570 r hkscs2001_uni2indx_page227
000a7580 r hkscs2001_uni2indx_page232
000a7600 r hkscs2001_uni2indx_page23c
000a7620 r hkscs2001_uni2indx_page241
000a7634 r hkscs2001_uni2indx_page245
000a7640 r hkscs2001_uni2indx_page249
000a7690 r hkscs2001_uni2indx_page251
000a76d0 r hkscs2001_uni2indx_page256
000a7700 r hkscs2001_uni2indx_page25c
000a7750 r hkscs2001_uni2indx_page26b
000a7760 r hkscs2001_uni2indx_page26d
000a7780 r hkscs2001_uni2indx_page26f
000a77b0 r hkscs2001_uni2indx_page271
000a77b4 r hkscs2001_uni2indx_page287
000a77c0 r hkscs2001_uni2indx_page289
000a7840 r hkscs2001_uni2indx_page28d
000a7870 r hkscs2001_uni2indx_page299
000a7890 r hkscs2001_uni2indx_page29c
000a78b0 r hkscs2001_uni2indx_page2a1
000a68a0 r hkscs2001_uni2indx_page35
000a68c0 r hkscs2001_uni2indx_page3c
000a6980 r hkscs2001_uni2indx_page40
000a69a0 r hkscs2001_uni2indx_page42
000a69d0 r hkscs2001_uni2indx_page4b
000a6a40 r hkscs2001_uni2indx_page4e
000a6b30 r hkscs2001_uni2indx_page53
000a6b80 r hkscs2001_uni2indx_page57
000a6c00 r hkscs2001_uni2indx_page5a
000a6d74 r hkscs2001_uni2indx_page61
000a6d80 r hkscs2001_uni2indx_page65
000a6db0 r hkscs2001_uni2indx_page67
000a6dd0 r hkscs2001_uni2indx_page69
000a6e30 r hkscs2001_uni2indx_page6c
000a6eb0 r hkscs2001_uni2indx_page70
000a6fe0 r hkscs2001_uni2indx_page76
000a70a0 r hkscs2001_uni2indx_page7a
000a71c0 r hkscs2001_uni2indx_page82
000a7200 r hkscs2001_uni2indx_page85
000a7250 r hkscs2001_uni2indx_page88
000a7280 r hkscs2001_uni2indx_page8b
000a72b0 r hkscs2001_uni2indx_page8e
000a7330 r hkscs2001_uni2indx_page91
000a73f0 r hkscs2001_uni2indx_page97
000a74b0 r hkscs2001_uni2indx_page9f
00012590 t hkscs2001_wctomb
000a8c20 r hkscs2004_2charset
000a7a10 r hkscs2004_2uni_page87
000a7bd0 r hkscs2004_2uni_page8c
000a7a90 r hkscs2004_2uni_upages
00012d40 t hkscs2004_mbtowc
000a8570 r hkscs2004_uni2indx_page201
000a85c0 r hkscs2004_uni2indx_page20a
000a8630 r hkscs2004_uni2indx_page21a
000a8650 r hkscs2004_uni2indx_page21d
000a86a0 r hkscs2004_uni2indx_page221
000a86e0 r hkscs2004_uni2indx_page227
000a8710 r hkscs2004_uni2indx_page232
000a8730 r hkscs2004_uni2indx_page235
000a8778 r hkscs2004_uni2indx_page23b
000a8780 r hkscs2004_uni2indx_page23e
000a8840 r hkscs2004_uni2indx_page242
000a8870 r hkscs2004_uni2indx_page24b
000a8880 r hkscs2004_uni2indx_page254
000a88b0 r hkscs2004_uni2indx_page25a
000a88d0 r hkscs2004_uni2indx_page26b
000a8930 r hkscs2004_uni2indx_page26e
000a8960 r hkscs2004_uni2indx_page270
000a89a0 r hkscs2004_uni2indx_page272
000a8a20 r hkscs2004_uni2indx_page27b
000a8aa0 r hkscs2004_uni2indx_page286
000a8ad0 r hkscs2004_uni2indx_page289
000a8af0 r hkscs2004_uni2indx_page28b
000a8b20 r hkscs2004_uni2indx_page290
000a8b40 r hkscs2004_uni2indx_page298
000a8ba0 r hkscs2004_uni2indx_page29e
000a8bd0 r hkscs2004_uni2indx_page2a1
000a8c00 r hkscs2004_uni2indx_page2a3
000a7d50 r hkscs2004_uni2indx_page34
000a7d70 r hkscs2004_uni2indx_page36
000a7e50 r hkscs2004_uni2indx_page3b
000a7e80 r hkscs2004_uni2indx_page3d
000a7ec0 r hkscs2004_uni2indx_page3f
000a7f80 r hkscs2004_uni2indx_page43
000a80a0 r hkscs2004_uni2indx_page4a
000a80d0 r hkscs2004_uni2indx_page4c
000a8140 r hkscs2004_uni2indx_page4f
000a8170 r hkscs2004_uni2indx_page56
000a81b0 r hkscs2004_uni2indx_page59
000a82d0 r hkscs2004_uni2indx_page5f
000a82e0 r hkscs2004_uni2indx_page66
000a8340 r hkscs2004_uni2indx_page6e
000a8360 r hkscs2004_uni2indx_page71
000a83b0 r hkscs2004_uni2indx_page74
000a83e0 r hkscs2004_uni2indx_page79
000a8420 r hkscs2004_uni2indx_page7d
000a8450 r hkscs2004_uni2indx_page81
000a8470 r hkscs2004_uni2indx_page85
000a84a0 r hkscs2004_uni2indx_page8a
000a84e0 r hkscs2004_uni2indx_page97
000a8540 r hkscs2004_uni2indx_page9f
00012e10 t hkscs2004_wctomb
000a97d0 r hkscs2008_2charset
000a8d20 r hkscs2008_2uni_page87
000a8e20 r hkscs2008_2uni_upages
00013630 t hkscs2008_mbtowc
000a9540 r hkscs2008_uni2indx_page20a
000a9570 r hkscs2008_uni2indx_page21d
000a9590 r hkscs2008_uni2indx_page224
000a95d0 r hkscs2008_uni2indx_page231
000a9630 r hkscs2008_uni2indx_page235
000a96a0 r hkscs2008_uni2indx_page241
000a96c0 r hkscs2008_uni2indx_page258
000a9700 r hkscs2008_uni2indx_page25d
000a9730 r hkscs2008_uni2indx_page260
000a9740 r hkscs2008_uni2indx_page26e
000a9770 r hkscs2008_uni2indx_page27b
000a978c r hkscs2008_uni2indx_page289
000a9790 r hkscs2008_uni2indx_page2ad
000a8ef0 r hkscs2008_uni2indx_page34
000a8f30 r hkscs2008_uni2indx_page38
000a8f50 r hkscs2008_uni2indx_page3a
000a8f90 r hkscs2008_uni2indx_page3e
000a8fd0 r hkscs2008_uni2indx_page40
000a9040 r hkscs2008_uni2indx_page43
000a90c0 r hkscs2008_uni2indx_page46
000a90f0 r hkscs2008_uni2indx_page49
000a9100 r hkscs2008_uni2indx_page52
000a9120 r hkscs2008_uni2indx_page54
000a9140 r hkscs2008_uni2indx_page57
000a91b0 r hkscs2008_uni2indx_page62
000a91f0 r hkscs2008_uni2indx_page66
000a9254 r hkscs2008_uni2indx_page6a
000a9260 r hkscs2008_uni2indx_page70
000a9280 r hkscs2008_uni2indx_page73
000a9300 r hkscs2008_uni2indx_page79
000a93c0 r hkscs2008_uni2indx_page84
000a9450 r hkscs2008_uni2indx_page88
000a9480 r hkscs2008_uni2indx_page8b
000a94b0 r hkscs2008_uni2indx_page90
000a94c4 r hkscs2008_uni2indx_page92
000a94cc r hkscs2008_uni2indx_page94
000a94e0 r hkscs2008_uni2indx_page97
000a9500 r hkscs2008_uni2indx_page9f
00009e80 r hp_roman8_2uni
000063d0 t hp_roman8_mbtowc
00009f40 r hp_roman8_page00
00009fa0 r hp_roman8_page01
00009fe0 r hp_roman8_page02
00006410 t hp_roman8_wctomb
0000d460 t hz_mbtowc
0000d6c0 t hz_reset
0000d600 t hz_wctomb
00001480 T iconv_canonicalize
0000c980 t iso2022_cn_ext_mbtowc
0000d440 t iso2022_cn_ext_reset
0000cf00 t iso2022_cn_ext_wctomb
0000c330 t iso2022_cn_mbtowc
0000c960 t iso2022_cn_reset
0000c730 t iso2022_cn_wctomb
00009320 t iso2022_jp1_mbtowc
000097f0 t iso2022_jp1_reset
00009550 t iso2022_jp1_wctomb
00009820 t iso2022_jp2_mbtowc
0000a580 t iso2022_jp2_reset
00009cf0 t iso2022_jp2_wctomb
00032340 r iso2022_jp2_wctomb.conversion_lists
00009020 t iso2022_jp_mbtowc
000092f0 t iso2022_jp_reset
000091b0 t iso2022_jp_wctomb
0000a5b0 t iso2022_jpms_mbtowc
0000b190 t iso2022_jpms_reset
0000a9b0 t iso2022_jpms_wctomb
00010120 t iso2022_kr_mbtowc
00010440 t iso2022_kr_reset
00010350 t iso2022_kr_wctomb
000077b0 t iso646_cn_mbtowc
000077f0 t iso646_cn_wctomb
00007200 t iso646_jp_mbtowc
00007240 t iso646_jp_wctomb
00005420 r iso8859_10_2uni
00003fd0 t iso8859_10_mbtowc
000054e0 r iso8859_10_page00
00004000 t iso8859_10_wctomb
00004060 t iso8859_11_mbtowc
000040a0 t iso8859_11_wctomb
000055c0 r iso8859_13_2uni
000040e0 t iso8859_13_mbtowc
00005680 r iso8859_13_page00
00005760 r iso8859_13_page20
00004110 t iso8859_13_wctomb
00005770 r iso8859_14_2uni
00004180 t iso8859_14_mbtowc
00005830 r iso8859_14_page00
00005890 r iso8859_14_page01_0
000058b0 r iso8859_14_page01_1
000058c0 r iso8859_14_page1e_0
00005948 r iso8859_14_page1e_1
000041b0 t iso8859_14_wctomb
00005950 r iso8859_15_2uni
00004280 t iso8859_15_mbtowc
00005990 r iso8859_15_page00
000059b0 r iso8859_15_page01
000042b0 t iso8859_15_wctomb
000059e0 r iso8859_16_2uni
00004330 t iso8859_16_mbtowc
00005aa0 r iso8859_16_page00
00005b80 r iso8859_16_page02
00005b88 r iso8859_16_page20
00004360 t iso8859_16_wctomb
00003a00 t iso8859_1_mbtowc
00003a10 t iso8859_1_wctomb
00004960 r iso8859_2_2uni
00003a30 t iso8859_2_mbtowc
00004a20 r iso8859_2_page00
00004b00 r iso8859_2_page02
00003a60 t iso8859_2_wctomb
00004b20 r iso8859_3_2uni
00003ad0 t iso8859_3_mbtowc
00004be0 r iso8859_3_page00
00004c40 r iso8859_3_page01
00004cb8 r iso8859_3_page02
00003b10 t iso8859_3_wctomb
00004cc0 r iso8859_4_2uni
00003b90 t iso8859_4_mbtowc
00004d80 r iso8859_4_page00
00004e60 r iso8859_4_page02
00003bc0 t iso8859_4_wctomb
00004e80 r iso8859_5_2uni
00003c30 t iso8859_5_mbtowc
00004f40 r iso8859_5_page00
00004f50 r iso8859_5_page04
00003c60 t iso8859_5_wctomb
00004fb0 r iso8859_6_2uni
00003cd0 t iso8859_6_mbtowc
00005070 r iso8859_6_page00
00005080 r iso8859_6_page06
00003d10 t iso8859_6_wctomb
000050d0 r iso8859_7_2uni
00003d80 t iso8859_7_mbtowc
00005190 r iso8859_7_page00
000051b0 r iso8859_7_page03
00005210 r iso8859_7_page20
00003dc0 t iso8859_7_wctomb
00005220 r iso8859_8_2uni
00003e70 t iso8859_8_mbtowc
000052e0 r iso8859_8_page00
00005340 r iso8859_8_page05
00005360 r iso8859_8_page20
00003eb0 t iso8859_8_wctomb
00005370 r iso8859_9_2uni
00003f30 t iso8859_9_mbtowc
000053d0 r iso8859_9_page01
00003f60 t iso8859_9_wctomb
00007a70 t isoir165_mbtowc
00007c00 t isoir165_wctomb
00025990 r isoir165ext_2charset
00023cb0 r isoir165ext_2uni_page2b
00024060 r isoir165ext_2uni_page7a
00011290 t isoir165ext_mbtowc
00024410 r isoir165ext_uni2indx_page00
00024490 r isoir165ext_uni2indx_page03
000244c0 r isoir165ext_uni2indx_page1e
00024530 r isoir165ext_uni2indx_page30
00024540 r isoir165ext_uni2indx_page32
000245c0 r isoir165ext_uni2indx_page4e
00025180 r isoir165ext_uni2indx_page7e
000256c0 r isoir165ext_uni2indx_page94
00025900 r isoir165ext_uni2indx_page9e
00025970 r isoir165ext_uni2indx_pageff
000cbcb0 r jamo_final
000aeab0 r jamo_final_index
000aebe0 r jamo_final_index_inverse
000aead0 r jamo_final_notinitial
000aeb10 r jamo_initial
000aea70 r jamo_initial_index
000aeba0 r jamo_initial_index_inverse
000aeaf0 r jamo_medial
000aea90 r jamo_medial_index
000aebc0 r jamo_medial_index_inverse
00003590 t java_mbtowc
00003850 t java_wctomb
00007290 t jisx0201_mbtowc
000072d0 t jisx0201_wctomb
000102b0 r jisx0208_2charset
0000b480 r jisx0208_2uni_page21
0000b9f0 r jisx0208_2uni_page30
00007330 t jisx0208_mbtowc
0000ebf0 r jisx0208_uni2indx_page00
0000ec30 r jisx0208_uni2indx_page03
0000ec90 r jisx0208_uni2indx_page20
0000ed60 r jisx0208_uni2indx_page25
0000edc0 r jisx0208_uni2indx_page30
0000ee00 r jisx0208_uni2indx_page4e
00010270 r jisx0208_uni2indx_pageff
000073e0 t jisx0208_wctomb
00017ff0 r jisx0212_2charset
00013870 r jisx0212_2uni_page22
00013920 r jisx0212_2uni_page26
00013aa0 r jisx0212_2uni_page29
00013cd0 r jisx0212_2uni_page30
00007580 t jisx0212_mbtowc
00016a30 r jisx0212_uni2indx_page00
00016b48 r jisx0212_uni2indx_page21
00016b60 r jisx0212_uni2indx_page4e
00017fd0 r jisx0212_uni2indx_pageff
00007680 t jisx0212_wctomb
000aeb30 r johab_hangul_page31
0000fcb0 t johab_mbtowc
0000ff30 t johab_wctomb
00005b90 r koi8_r_2uni
00004400 t koi8_r_mbtowc
00005c90 r koi8_r_page04
00005cf0 r koi8_r_page25
00004430 t koi8_r_wctomb
00005ff0 r koi8_ru_2uni
000045c0 t koi8_ru_mbtowc
000060f0 r koi8_ru_page00
00006150 r koi8_ru_page04
000061f0 r koi8_ru_page22
00006240 r koi8_ru_page23
00006250 r koi8_ru_page25
000045f0 t koi8_ru_wctomb
0000a4f0 r koi8_t_2uni
00006900 t koi8_t_mbtowc
0000a5f0 r koi8_t_page00
0000a610 r koi8_t_page04
00006930 t koi8_t_wctomb
00005da0 r koi8_u_2uni
000044e0 t koi8_u_mbtowc
00005ea0 r koi8_u_page04
00005f40 r koi8_u_page25
00004510 t koi8_u_wctomb
0002c570 r ksc5601_2charset
00026070 r ksc5601_2uni_page21
00026930 r ksc5601_2uni_page30
00027b90 r ksc5601_2uni_page4a
00007ea0 t ksc5601_mbtowc
0002a1c0 r ksc5601_uni2indx_page00
0002a2e0 r ksc5601_uni2indx_page20
0002a480 r ksc5601_uni2indx_page30
0002a580 r ksc5601_uni2indx_page4e
0002b9f0 r ksc5601_uni2indx_pageac
0002c4e0 r ksc5601_uni2indx_pagef9
0002c530 r ksc5601_uni2indx_pageff
00007f60 t ksc5601_wctomb
00000d10 T libiconv
00000d40 T libiconv_close
00000000 T libiconv_open
00000d50 T libiconv_open_into
00001160 T libiconvctl
00001270 T libiconvlist
00009a90 r mac_arabic_2uni
00006240 t mac_arabic_mbtowc
00009b90 r mac_arabic_page00
00009bf0 r mac_arabic_page06
00006270 t mac_arabic_wctomb
00008630 r mac_centraleurope_2uni
00005900 t mac_centraleurope_mbtowc
00008730 r mac_centraleurope_page00
00008810 r mac_centraleurope_page20
00008840 r mac_centraleurope_page22
00008860 r mac_centraleurope_page22_1
00005930 t mac_centraleurope_wctomb
00008a80 r mac_croatian_2uni
00005b10 t mac_croatian_mbtowc
00008b80 r mac_croatian_page00
00008c80 r mac_croatian_page02
00008ca0 r mac_croatian_page20
00008ce0 r mac_croatian_page22
00005b40 t mac_croatian_wctomb
00008f90 r mac_cyrillic_2uni
00005d30 t mac_cyrillic_mbtowc
00009090 r mac_cyrillic_page00
000090b0 r mac_cyrillic_page04
00009110 r mac_cyrillic_page22
00005d60 t mac_cyrillic_wctomb
000093f0 r mac_greek_2uni
00005f50 t mac_greek_mbtowc
000094f0 r mac_greek_page00
00009550 r mac_greek_page03
000095a0 r mac_greek_page20
000095d0 r mac_greek_page22
00005f80 t mac_greek_wctomb
00009890 r mac_hebrew_2uni
00006150 t mac_hebrew_mbtowc
00009990 r mac_hebrew_page00
000099f0 r mac_hebrew_page05
00009a30 r mac_hebrew_page20
00009a50 r mac_hebrew_pagefb
00006180 t mac_hebrew_wctomb
00008870 r mac_iceland_2uni
000059f0 t mac_iceland_mbtowc
00008970 r mac_iceland_page00
000089d0 r mac_iceland_page01
00008a40 r mac_iceland_page20
00005a20 t mac_iceland_wctomb
000084c0 r mac_roman_2uni
000057d0 t mac_roman_mbtowc
000085c0 r mac_roman_page00
00008620 r mac_roman_pagefb
00005800 t mac_roman_wctomb
00008d50 r mac_romania_2uni
00005c20 t mac_romania_mbtowc
00008e50 r mac_romania_page00
00008f50 r mac_romania_page20
00005c50 t mac_romania_wctomb
00009cc0 r mac_thai_2uni
000062e0 t mac_thai_mbtowc
00009dc0 r mac_thai_page00
00009de0 r mac_thai_page0e
00009e40 r mac_thai_page20
00009e60 r mac_thai_pagef8
00006310 t mac_thai_wctomb
000095f0 r mac_turkish_2uni
00006020 t mac_turkish_mbtowc
000096f0 r mac_turkish_page00
00009750 r mac_turkish_page01
000097d0 r mac_turkish_page02
000097f0 r mac_turkish_page20
00009818 r mac_turkish_page21
00009820 r mac_turkish_page22
00006060 t mac_turkish_wctomb
00009180 r mac_ukraine_2uni
00005e40 t mac_ukraine_mbtowc
00009280 r mac_ukraine_page00
000092a0 r mac_ukraine_page04
00009340 r mac_ukraine_page20
00009360 r mac_ukraine_page21
00009380 r mac_ukraine_page22
00005e70 t mac_ukraine_wctomb
         U malloc
000136c0 t mb_to_uc_write_replacement
         U memcpy
0000ab10 r mulelao_2uni
00006b80 t mulelao_mbtowc
0000abd0 r mulelao_page0e
00006bc0 t mulelao_wctomb
0000a000 r nextstep_2uni
000064c0 t nextstep_mbtowc
0000a100 r nextstep_page00
0000a160 r nextstep_page01
0000a1d0 r nextstep_page02
0000a1f0 r nextstep_page20
0000a228 r nextstep_pagefb
000064f0 t nextstep_wctomb
00004cd0 t normal_flushwc
0000a700 r pt154_2uni
000069d0 t pt154_mbtowc
0000a780 r pt154_page00
0000a7a0 r pt154_page04
0000a890 r pt154_page20
00006a10 t pt154_wctomb
         U qsort
0000a8b0 r rk1048_2uni
00006aa0 t rk1048_mbtowc
0000a9b0 r rk1048_page00
0000a9d0 r rk1048_page04
0000aac0 r rk1048_page20
0000aaf0 r rk1048_page21
00006ad0 t rk1048_wctomb
00008590 t sjis_mbtowc
00008780 t sjis_wctomb
         U strcmp
0000445d r stringpool2_contents
00003660 r stringpool_contents
000045b0 r sysdep_aliases
0000b160 r tcvn_2uni_1
0000b190 r tcvn_2uni_2
0000b470 r tcvn_comb_table
0000b290 r tcvn_comp_bases
00006ee0 t tcvn_mbtowc
0000b2c0 r tcvn_page00
0000b3e0 r tcvn_page03
0000b410 r tcvn_page1e
00007060 t tcvn_wctomb
00006cf0 t tis620_mbtowc
00006d30 t tis620_wctomb
000c2e40 r translit_data
000c0860 r translit_page00
000c0b10 r translit_page02
000c0b20 r translit_page02_1
000c0b70 r translit_page03
000c0bd0 r translit_page05
000c0be0 r translit_page06
000c0c00 r translit_page0e
000c0c60 r translit_page0f
000c2200 r translit_page1d4
000c0c80 r translit_page1e
000c0dc0 r translit_page1e_1
000c0dd0 r translit_page20
000c0e80 r translit_page20_1
000c0e90 r translit_page21
000c1040 r translit_page22
000c1100 r translit_page22_1
000c1160 r translit_page24
000c1340 r translit_page25
000c13c0 r translit_page2a
000c13d0 r translit_page2f
000c2a00 r translit_page2f8
000c1580 r translit_page30
000c1770 r translit_page31
000c1830 r translit_page31_1
000c1c50 r translit_pagef9
000c1f30 r translit_pagefb
000c1fd0 r translit_pagefe
000c2020 r translit_pageff
000140a0 t uc_to_mb_write_replacement
000018e0 t ucs2_mbtowc
000019a0 t ucs2_wctomb
000019f0 t ucs2be_mbtowc
00001a30 t ucs2be_wctomb
000029f0 t ucs2internal_mbtowc
00002a20 t ucs2internal_wctomb
00001a70 t ucs2le_mbtowc
00001ab0 t ucs2le_wctomb
00002a60 t ucs2swapped_mbtowc
00002aa0 t ucs2swapped_wctomb
00001af0 t ucs4_mbtowc
00001b90 t ucs4_wctomb
00001bc0 t ucs4be_mbtowc
00001be0 t ucs4be_wctomb
00002af0 t ucs4internal_mbtowc
00002b10 t ucs4internal_wctomb
00001c00 t ucs4le_mbtowc
00001c20 t ucs4le_wctomb
00002b30 t ucs4swapped_mbtowc
00002b50 t ucs4swapped_wctomb
000ac390 r uhc_1_2charset
000ac330 r uhc_1_2charset_main
000a9860 r uhc_1_2uni_main_page81
000a98e0 r uhc_1_2uni_page81
000abc00 r uhc_1_uni2indx_pageac
000ade30 r uhc_2_2charset
000addc0 r uhc_2_2charset_main
000aaf20 r uhc_2_2uni_main_pagea1
000aafc0 r uhc_2_2uni_pagea1
000ad9d0 r uhc_2_uni2indx_pagec8
00000740 t unicode_loop_convert
00000b00 t unicode_loop_reset
00013860 t unicode_transliterate
00001c40 t utf16_mbtowc
00001d60 t utf16_wctomb
00001e40 t utf16be_mbtowc
00001ec0 t utf16be_wctomb
00001f50 t utf16le_mbtowc
00001fd0 t utf16le_wctomb
00002060 t utf32_mbtowc
00002120 t utf32_wctomb
000021b0 t utf32be_mbtowc
00002210 t utf32be_wctomb
00002260 t utf32le_mbtowc
000022c0 t utf32le_wctomb
00002310 t utf7_mbtowc
00002980 t utf7_reset
00002630 t utf7_wctomb
00001680 t utf8_mbtowc
00001810 t utf8_wctomb
00007390 r viet_comp_table
000073c0 r viet_comp_table_data
00007820 r viet_decomp_table
0000aec0 r viscii_2uni_1
0000af00 r viscii_2uni_2
00006e20 t viscii_mbtowc
0000b000 r viscii_page00
0000b100 r viscii_page1e
00006e60 t viscii_wctomb
00000560 t wchar_id_loop_convert
00004950 r xbase64_tab
00004930 r xdirect_tab

iconv_localcharset.o:
00000000 a @feat.00
         U __imp_GetACP
00000000 T _libiconv_locale_charset
00000000 b _libiconv_locale_charset.resultbuf
00000020 r alias_table
         U setlocale
         U sprintf
         U strcmp
         U strcpy
         U strlen
         U strrchr

jcapimin.o:
00000000 a @feat.00
         U jinit_marker_writer
         U jinit_memory_mgr
00000000 T jpeg_CreateCompress
         U jpeg_abort
00000100 T jpeg_abort_compress
         U jpeg_destroy
000000f0 T jpeg_destroy_compress
000001e0 T jpeg_finish_compress
00000110 T jpeg_suppress_tables
000003d0 T jpeg_write_m_byte
00000370 T jpeg_write_m_header
000002e0 T jpeg_write_marker
000003e0 T jpeg_write_tables
         U memset

jcapistd.o:
00000000 a @feat.00
         U jinit_compress_master
00000000 T jpeg_start_compress
         U jpeg_suppress_tables
00000170 T jpeg_write_raw_data
00000080 T jpeg_write_scanlines

jccoefct.o:
00000000 a @feat.00
00000220 t compress_data
000005e0 t compress_first_pass
00000a50 t compress_output
00000000 T jinit_c_coef_controller
         U jround_up
         U jzero_far
00000140 t start_pass_coef

jccolor.o:
00000000 a @feat.00
000008a0 t cmyk_ycck_convert
00000200 t grayscale_convert
00000000 T jinit_color_converter
00000640 t null_convert
000001f0 t null_method
000005a0 t rgb_gray_convert
00000790 t rgb_ycc_convert
000002e0 t rgb_ycc_start

jcdctmgr.o:
00000000 a @feat.00
000009a0 t forward_DCT
00000e30 t forward_DCT_float
00000000 T jinit_forward_dct
         U jpeg_fdct_float
         U jpeg_fdct_ifast
         U jpeg_fdct_islow
000000c0 t start_pass_fdctmgr
00000270 r start_pass_fdctmgr.aanscalefactor

jchuff.o:
00000000 R .refptr.jpeg_natural_order
00000000 a @feat.00
00000d80 t encode_mcu_gather
000010e0 t encode_mcu_huff
00000fe0 t finish_pass_gather
00001c20 t finish_pass_huff
00000b30 T jinit_huff_encoder
         U jpeg_alloc_huff_table
00000810 T jpeg_gen_optimal_table
00000000 T jpeg_make_c_derived_tbl
         U jpeg_natural_order
         U memset
00000b90 t start_pass_huff

jcinit.o:
00000000 a @feat.00
         U jinit_c_coef_controller
         U jinit_c_main_controller
         U jinit_c_master_control
         U jinit_c_prep_controller
         U jinit_color_converter
00000000 T jinit_compress_master
         U jinit_downsampler
         U jinit_forward_dct
         U jinit_huff_encoder
         U jinit_marker_writer
         U jinit_phuff_encoder

jcmainct.o:
00000000 a @feat.00
00000000 T jinit_c_main_controller
00000100 t process_data_simple_main
000000c0 t start_pass_main

jcmarker.o:
00000000 R .refptr.jpeg_natural_order
00000000 a @feat.00
00001940 t emit_dht
00001180 t emit_dqt
00001610 t emit_sof
00000000 T jinit_marker_writer
         U jpeg_natural_order
00000080 t write_file_header
00000db0 t write_file_trailer
000007e0 t write_frame_header
00001130 t write_marker_byte
00001030 t write_marker_header
00000920 t write_scan_header
00000e30 t write_tables_only

jcmaster.o:
00000000 a @feat.00
00001180 t finish_pass_master
         U jdiv_round_up
00000000 T jinit_c_master_control
         U memset
00001150 t pass_startup
000011f0 t per_scan_setup
00000830 t prepare_for_pass

jcomapi.o:
00000000 a @feat.00
00000000 T jpeg_abort
000000a0 T jpeg_alloc_huff_table
00000080 T jpeg_alloc_quant_table
00000050 T jpeg_destroy

jcparam.o:
00000000 a @feat.00
00000000 T jpeg_add_quant_table
         U jpeg_alloc_huff_table
         U jpeg_alloc_quant_table
00000ac0 T jpeg_default_colorspace
00000810 T jpeg_quality_scaling
00000ea0 T jpeg_set_colorspace
00000890 T jpeg_set_defaults
000002f0 T jpeg_set_linear_quality
00000340 r jpeg_set_linear_quality.std_chrominance_quant_tbl
00000240 r jpeg_set_linear_quality.std_luminance_quant_tbl
00000850 T jpeg_set_quality
00001220 T jpeg_simple_progression
         U memcpy
00000550 r std_huff_tables.bits_ac_chrominance
00000480 r std_huff_tables.bits_ac_luminance
00000460 r std_huff_tables.bits_dc_chrominance
00000440 r std_huff_tables.bits_dc_luminance
00000570 r std_huff_tables.val_ac_chrominance
000004a0 r std_huff_tables.val_ac_luminance
00000471 r std_huff_tables.val_dc_chrominance

jcphuff.o:
00000000 R .refptr.jpeg_natural_order
00000000 a @feat.00
000018f0 t emit_bits
00001c00 t emit_buffered_bits
00001a30 t emit_eobrun
000017f0 t emit_restart
000004e0 t encode_mcu_AC_first
00000b10 t encode_mcu_AC_refine
00000330 t encode_mcu_DC_first
00000900 t encode_mcu_DC_refine
00001650 t finish_pass_gather_phuff
000017a0 t finish_pass_phuff
00001af0 t flush_bits
00000000 T jinit_phuff_encoder
         U jpeg_alloc_huff_table
         U jpeg_gen_optimal_table
         U jpeg_make_c_derived_tbl
         U jpeg_natural_order
         U memset
00000060 t start_pass_phuff

jcprepct.o:
00000000 a @feat.00
         U jcopy_sample_rows
00000000 T jinit_c_prep_controller
         U memcpy
00000500 t pre_process_context
000007a0 t pre_process_data
000004b0 t start_pass_prep

jcsample.o:
00000000 a @feat.00
00000a20 t fullsize_downsample
00000270 t fullsize_smooth_downsample
00000b50 t h2v1_downsample
00001050 t h2v2_downsample
00000cf0 t h2v2_smooth_downsample
00001210 t int_downsample
         U jcopy_sample_rows
00000000 T jinit_downsampler
         U memset
000001e0 t sep_downsample
000001d0 t start_pass_downsample

jctrans.o:
00000000 a @feat.00
00000580 t compress_output
         U jinit_c_master_control
         U jinit_huff_encoder
         U jinit_marker_writer
         U jinit_phuff_encoder
         U jpeg_alloc_quant_table
00000190 T jpeg_copy_critical_parameters
         U jpeg_set_colorspace
         U jpeg_set_defaults
         U jpeg_suppress_tables
00000000 T jpeg_write_coefficients
         U jzero_far
00000500 t start_pass_coef

jdapimin.o:
00000000 a @feat.00
         U jinit_input_controller
         U jinit_marker_reader
         U jinit_memory_mgr
00000000 T jpeg_CreateDecompress
         U jpeg_abort
00000110 T jpeg_abort_decompress
00000190 T jpeg_consume_input
         U jpeg_destroy
00000100 T jpeg_destroy_decompress
00000470 T jpeg_finish_decompress
00000430 T jpeg_has_multiple_scans
000003f0 T jpeg_input_complete
00000120 T jpeg_read_header
         U memset

jdapistd.o:
00000000 a @feat.00
         U jinit_master_decompress
00000480 T jpeg_finish_output
00000280 T jpeg_read_raw_data
000001e0 T jpeg_read_scanlines
00000000 T jpeg_start_decompress
00000330 T jpeg_start_output

jdatadst.o:
00000000 a @feat.00
00000090 t empty_output_buffer
         U ferror
         U fflush
         U fwrite
00000060 t init_destination
00000000 T jpeg_stdio_dest
000000f0 t term_destination

jdatasrc.o:
00000000 a @feat.00
000000a0 t fill_input_buffer
         U fread
00000090 t init_source
         U jpeg_resync_to_restart
00000000 T jpeg_stdio_src
00000120 t skip_input_data
000001e0 t term_source

jdcoefct.o:
00000000 a @feat.00
000003e0 t consume_data
00000730 t decompress_data
00000920 t decompress_onepass
00000bf0 t decompress_smooth_data
00000910 t dummy_consume_data
         U jcopy_block_row
00000000 T jinit_d_coef_controller
         U jround_up
         U jzero_far
000001b0 t start_input_pass
00000210 t start_output_pass

jdcolor.o:
00000000 a @feat.00
00000890 t gray_rgb_convert
00000720 t grayscale_convert
         U jcopy_sample_rows
00000000 T jinit_color_deconverter
00000990 t null_convert
00000710 t start_pass_dcolor
00000750 t ycc_rgb_convert
00000ae0 t ycck_cmyk_convert

jddctmgr.o:
00000000 a @feat.00
00000000 T jinit_inverse_dct
         U jpeg_idct_1x1
         U jpeg_idct_2x2
         U jpeg_idct_4x4
         U jpeg_idct_float
         U jpeg_idct_ifast
         U jpeg_idct_islow
00000100 t start_pass
00000250 r start_pass.aanscalefactor

jdhuff.o:
00000000 R .refptr.jpeg_natural_order
00000000 a @feat.00
00001c90 t decode_mcu
00000060 r extend_offset
00000020 r extend_test
00001ad0 T jinit_huff_decoder
00001870 T jpeg_fill_bit_buffer
000019d0 T jpeg_huff_decode
00000000 T jpeg_make_d_derived_tbl
         U jpeg_natural_order
         U memset
00001b20 t start_pass_huff_decoder

jdinput.o:
00000000 a @feat.00
00000060 t consume_markers
000006c0 t finish_input_pass
         U jdiv_round_up
00000000 T jinit_input_controller
         U memcpy
00000380 t reset_input_controller
000003d0 t start_input_pass

jdmainct.o:
00000000 a @feat.00
00000000 T jinit_d_main_controller
000006a0 t process_data_context_main
00000ca0 t process_data_crank_post
00000c00 t process_data_simple_main
000001c0 t start_pass_main

jdmarker.o:
00000000 R .refptr.jpeg_natural_order
00000000 a @feat.00
00002310 t examine_app0
00001890 t get_interesting_appn
00001f90 t get_sof
000002b0 T jinit_marker_reader
         U jpeg_alloc_huff_table
         U jpeg_alloc_quant_table
         U jpeg_natural_order
00000000 T jpeg_resync_to_restart
00001a80 T jpeg_save_markers
00001f40 T jpeg_set_marker_processor
         U memcpy
00000150 t next_marker
00000400 t read_markers
00001730 t read_restart_marker
000003c0 t reset_marker_reader
00001b70 t save_marker
000017c0 t skip_variable

jdmaster.o:
00000000 a @feat.00
00000a10 t finish_output_pass
         U jdiv_round_up
         U jinit_1pass_quantizer
         U jinit_2pass_quantizer
         U jinit_color_deconverter
         U jinit_d_coef_controller
         U jinit_d_main_controller
         U jinit_d_post_controller
         U jinit_huff_decoder
         U jinit_inverse_dct
000003c0 T jinit_master_decompress
         U jinit_merged_upsampler
         U jinit_phuff_decoder
         U jinit_upsampler
00000000 T jpeg_calc_output_dimensions
00000340 T jpeg_new_colormap
         U memset
000008a0 t prepare_for_output_pass

jdmerge.o:
00000000 a @feat.00
00000690 t h2v1_merged_upsample
00000400 t h2v2_merged_upsample
         U jcopy_sample_rows
00000000 T jinit_merged_upsampler
00000650 t merged_1v_upsample
00000340 t merged_2v_upsample
00000320 t start_pass_merged_upsample

jdphuff.o:
00000000 R .refptr.jpeg_natural_order
00000000 a @feat.00
000007a0 t decode_mcu_AC_first
00000c50 t decode_mcu_AC_refine
000004e0 t decode_mcu_DC_first
00000ab0 t decode_mcu_DC_refine
00000040 r extend_offset
00000000 r extend_test
00000000 T jinit_phuff_decoder
         U jpeg_fill_bit_buffer
         U jpeg_huff_decode
         U jpeg_make_d_derived_tbl
         U jpeg_natural_order
000000f0 t start_pass_phuff_decoder

jdpostct.o:
00000000 a @feat.00
00000000 T jinit_d_post_controller
         U jround_up
00000170 t post_process_1pass
000002e0 t post_process_2pass
00000200 t post_process_prepass
000000b0 t start_pass_dpost

jdsample.o:
00000000 a @feat.00
00000390 t fullsize_upsample
000003a0 t h2v1_fancy_upsample
000006d0 t h2v1_upsample
00000810 t h2v2_fancy_upsample
00000eb0 t h2v2_upsample
00001010 t int_upsample
         U jcopy_sample_rows
00000000 T jinit_upsampler
         U jround_up
         U memset
00000380 t noop_upsample
00000250 t sep_upsample
00000230 t start_pass_upsample

jdtrans.o:
00000000 a @feat.00
         U jinit_d_coef_controller
         U jinit_huff_decoder
         U jinit_phuff_decoder
00000000 T jpeg_read_coefficients

jerror.o:
00000000 a @feat.00
         U __imp___acrt_iob_func
000000a0 t emit_message
00000070 t error_exit
         U exit
00000130 t format_message
         U fprintf
         U jpeg_destroy
00000000 T jpeg_std_error
000011e0 R jpeg_std_message_table
000000f0 t output_message
00000230 t reset_error_mgr
         U sprintf

jfdctflt.o:
00000000 a @feat.00
00000000 T jpeg_fdct_float

jfdctfst.o:
00000000 a @feat.00
00000000 T jpeg_fdct_ifast

jfdctint.o:
00000000 a @feat.00
00000000 T jpeg_fdct_islow

jidctflt.o:
00000000 a @feat.00
00000000 T jpeg_idct_float

jidctfst.o:
00000000 a @feat.00
00000000 T jpeg_idct_ifast

jidctint.o:
00000000 a @feat.00
00000000 T jpeg_idct_islow

jidctred.o:
00000000 a @feat.00
00000850 T jpeg_idct_1x1
00000360 T jpeg_idct_2x2
00000000 T jpeg_idct_4x4

jmemmgr.o:
00000000 a @feat.00
00000d30 t access_virt_barray
00000ae0 t access_virt_sarray
000005a0 t alloc_barray
000002c0 t alloc_large
00000390 t alloc_sarray
00000150 t alloc_small
00000020 r extra_pool_slop
00000010 r first_pool_slop
00000f80 t free_pool
         U getenv
00000000 T jinit_memory_mgr
         U jpeg_free_large
         U jpeg_free_small
         U jpeg_get_large
         U jpeg_get_small
         U jpeg_mem_available
         U jpeg_mem_init
         U jpeg_mem_term
         U jpeg_open_backing_store
         U jzero_far
00000910 t realize_virt_arrays
00000870 t request_virt_barray
000007d0 t request_virt_sarray
000010d0 t self_destruct
         U sscanf

jmemnobs.o:
00000000 a @feat.00
         U free
00000030 T jpeg_free_large
00000010 T jpeg_free_small
00000020 T jpeg_get_large
00000000 T jpeg_get_small
00000040 T jpeg_mem_available
00000060 T jpeg_mem_init
00000070 T jpeg_mem_term
00000050 T jpeg_open_backing_store
         U malloc

jquant1.o:
00000000 a @feat.00
00000020 r base_dither_matrix
00000d40 t color_quantize
00000c40 t color_quantize3
00000a30 t create_colorindex
00000a10 t finish_pass_1_quant
00000000 T jinit_1pass_quantizer
         U jzero_far
         U memset
00000a20 t new_color_map_1_quant
00000f70 t quantize3_ord_dither
000012b0 t quantize_fs_dither
000010d0 t quantize_ord_dither
00000120 r select_ncolors.RGB_order
00000620 t start_pass_1_quant

jquant2.o:
00000000 a @feat.00
00001750 t fill_inverse_cmap
00000720 t finish_pass1
000011f0 t finish_pass2
000004a0 t init_error_limit
00000000 T jinit_2pass_quantizer
         U jzero_far
00000490 t new_color_map_2_quant
00000cd0 t pass2_fs_dither
00001100 t pass2_no_dither
00000690 t prescan_quantize
00000160 t start_pass_2_quant
00001200 t update_box

jutils.o:
00000000 a @feat.00
000000d0 T jcopy_block_row
00000030 T jcopy_sample_rows
00000000 T jdiv_round_up
00000000 R jpeg_natural_order
00000010 T jround_up
000000f0 T jzero_far
         U memcpy
         U memset

lapi.o:
00000000 R .refptr.luaO_nilobject_
00000000 R .refptr.luaT_typenames_
00000000 a @feat.00
00002860 t f_call
00000090 t growstack
         U luaC_barrier_
         U luaC_barrierback_
         U luaC_checkfinalizer
         U luaC_fullgc
         U luaC_step
         U luaC_upvalbarrier_
         U luaC_upvdeccount
         U luaD_call
         U luaD_growstack
         U luaD_pcall
         U luaD_protectedparser
         U luaD_rawrunprotected
         U luaE_setdebt
         U luaF_newCclosure
         U luaG_errormsg
         U luaH_get
         U luaH_getint
         U luaH_getn
         U luaH_new
         U luaH_next
         U luaH_resize
         U luaH_set
         U luaH_setint
         U luaO_arith
         U luaO_nilobject_
         U luaO_pushvfstring
         U luaO_str2num
         U luaO_tostring
         U luaS_new
         U luaS_newlstr
         U luaS_newudata
         U luaT_typenames_
         U luaU_dump
         U luaV_concat
         U luaV_equalobj
         U luaV_gettable
         U luaV_lessequal
         U luaV_lessthan
         U luaV_objlen
         U luaV_settable
         U luaV_tointeger
         U luaV_tonumber_
         U luaZ_init
00000190 T lua_absindex
00000b10 T lua_arith
00000150 T lua_atpanic
00002670 T lua_callk
00000000 T lua_checkstack
00000b60 T lua_compare
00002b80 T lua_concat
000003d0 T lua_copy
00001cc0 T lua_createtable
00002940 T lua_dump
00002ac0 T lua_error
00002990 T lua_gc
00002c90 T lua_getallocf
00001910 T lua_getfield
000017f0 T lua_getglobal
000019e0 T lua_geti
00001d30 T lua_getmetatable
00001860 T lua_gettable
000001c0 T lua_gettop
00002d10 T lua_getupvalue
00001e40 T lua_getuservalue
00000100 R lua_ident
000006a0 T lua_iscfunction
00000730 T lua_isinteger
000007d0 T lua_isnumber
000008a0 T lua_isstring
00000930 T lua_isuserdata
00002bf0 T lua_len
00002880 T lua_load
00002cc0 T lua_newuserdata
00002ad0 T lua_next
000026e0 T lua_pcallk
00001780 T lua_pushboolean
000016b0 T lua_pushcclosure
00001660 T lua_pushfstring
00001530 T lua_pushinteger
000017a0 T lua_pushlightuserdata
00001550 T lua_pushlstring
000014f0 T lua_pushnil
00001510 T lua_pushnumber
000015b0 T lua_pushstring
000017c0 T lua_pushthread
00000530 T lua_pushvalue
00001620 T lua_pushvfstring
000009c0 T lua_rawequal
00001aa0 T lua_rawget
00001b50 T lua_rawgeti
00001c00 T lua_rawgetp
00001150 T lua_rawlen
00002180 T lua_rawset
00002270 T lua_rawseti
00002350 T lua_rawsetp
00000240 T lua_rotate
00002cb0 T lua_setallocf
00002000 T lua_setfield
00001ef0 T lua_setglobal
000020d0 T lua_seti
00002440 T lua_setmetatable
00001f60 T lua_settable
000001e0 T lua_settop
00002e50 T lua_setupvalue
00002590 T lua_setuservalue
00002980 T lua_status
00000cd0 T lua_stringtonumber
00000ec0 T lua_toboolean
00001230 T lua_tocfunction
00000de0 T lua_tointegerx
00000f70 T lua_tolstring
00000d00 T lua_tonumberx
00001440 T lua_topointer
000013a0 T lua_tothread
000012e0 T lua_touserdata
000005e0 T lua_type
00000690 T lua_typename
00003030 T lua_upvalueid
000031d0 T lua_upvaluejoin
00000170 T lua_version
00000188 r lua_version.version
000000a0 T lua_xmove

lauxlib.o:
00000000 a @feat.00
         U ___chkstk_ms
         U __imp___acrt_iob_func
         U __imp__errno
         U __mingw_vfprintf
         U fclose
         U feof
         U ferror
         U fflush
00002000 t findfield
         U fopen
00002120 t fprintf
         U fread
         U free
         U freopen
000014b0 t getF
00001540 t getS
         U getc
00001ef0 t l_alloc
00000e50 T luaL_addlstring
00000e90 T luaL_addstring
00000f90 T luaL_addvalue
000002d0 T luaL_argerror
00001030 T luaL_buffinit
00001050 T luaL_buffinitsize
00001620 T luaL_callmeta
00000ba0 T luaL_checkany
00000c90 T luaL_checkinteger
00000ad0 T luaL_checklstring
00000be0 T luaL_checknumber
00000960 T luaL_checkoption
00000b10 T luaL_checkstack
00000b60 T luaL_checktype
000007f0 T luaL_checkudata
00001f70 T luaL_checkversion_
000003b0 T luaL_error
00000640 T luaL_execresult
000005c0 T luaL_fileresult
000015b0 T luaL_getmetafield
00001950 T luaL_getsubtable
00001b10 T luaL_gsub
000016d0 T luaL_len
00001510 T luaL_loadbufferx
00001190 T luaL_loadfilex
00001560 T luaL_loadstring
000006b0 T luaL_newmetatable
00001eb0 T luaL_newstate
00000d00 T luaL_optinteger
00000a50 T luaL_optlstring
00000c30 T luaL_optnumber
00000d80 T luaL_prepbuffsize
00000ed0 T luaL_pushresult
00000f30 T luaL_pushresultsize
00001080 T luaL_ref
000019c0 T luaL_requiref
00001860 T luaL_setfuncs
00000740 T luaL_setmetatable
00000770 T luaL_testudata
00001720 T luaL_tolstring
00000000 T luaL_traceback
00001130 T luaL_unref
00000550 T luaL_where
         U lua_absindex
         U lua_atpanic
         U lua_callk
         U lua_checkstack
         U lua_concat
         U lua_copy
         U lua_createtable
         U lua_error
         U lua_getfield
         U lua_getinfo
         U lua_getmetatable
         U lua_getstack
         U lua_gettop
         U lua_isinteger
         U lua_isnumber
         U lua_len
         U lua_load
         U lua_newstate
         U lua_newuserdata
         U lua_next
         U lua_pushboolean
         U lua_pushcclosure
         U lua_pushfstring
         U lua_pushinteger
         U lua_pushlstring
         U lua_pushnil
         U lua_pushstring
         U lua_pushvalue
         U lua_pushvfstring
         U lua_rawequal
         U lua_rawget
         U lua_rawgeti
         U lua_rawlen
         U lua_rawseti
         U lua_rotate
         U lua_setfield
         U lua_setglobal
         U lua_setmetatable
         U lua_settop
         U lua_toboolean
         U lua_tointegerx
         U lua_tolstring
         U lua_tonumberx
         U lua_topointer
         U lua_touserdata
         U lua_type
         U lua_typename
         U lua_version
         U memcpy
00001f20 t panic
00000470 t pushglobalfuncname
         U realloc
000013e0 t skipcomment
         U strcmp
         U strerror
         U strlen
         U strstr
00000880 t typeerror

lbaselib.o:
00000000 a @feat.00
         U __imp___acrt_iob_func
         U __imp_isalnum
         U __imp_toupper
00000010 r base_funcs
00000f70 t dofilecont
         U fflush
000011a0 t finishpcall
         U fputc
         U fwrite
000010d0 t generic_reader
00000f80 t ipairsaux
00000fd0 t ipairsaux_raw
000001c0 t luaB_assert
00000240 t luaB_collectgarbage
00000280 r luaB_collectgarbage.opts
00000310 r luaB_collectgarbage.optsnum
000002f0 t luaB_dofile
00000370 t luaB_error
000003f0 t luaB_getmetatable
00000440 t luaB_ipairs
00000560 t luaB_load
00000490 t luaB_loadfile
000006b0 t luaB_next
00000710 t luaB_pairs
00000740 t luaB_pcall
000007e0 t luaB_print
000009c0 t luaB_rawequal
00000a70 t luaB_rawget
00000a10 t luaB_rawlen
00000ac0 t luaB_rawset
00000b20 t luaB_select
00000bc0 t luaB_setmetatable
00000c60 t luaB_tonumber
00000e80 t luaB_tostring
00000180 t luaB_type
00000eb0 t luaB_xpcall
         U luaL_argerror
         U luaL_checkany
         U luaL_checkinteger
         U luaL_checklstring
         U luaL_checkoption
         U luaL_checkstack
         U luaL_checktype
         U luaL_error
         U luaL_getmetafield
         U luaL_loadbufferx
         U luaL_loadfilex
         U luaL_optinteger
         U luaL_optlstring
         U luaL_setfuncs
         U luaL_tolstring
         U luaL_where
         U lua_callk
         U lua_concat
         U lua_copy
         U lua_error
         U lua_gc
         U lua_getglobal
         U lua_geti
         U lua_getmetatable
         U lua_gettop
         U lua_isstring
         U lua_load
         U lua_next
         U lua_pcallk
         U lua_pushboolean
         U lua_pushcclosure
         U lua_pushinteger
         U lua_pushnil
         U lua_pushnumber
         U lua_pushstring
         U lua_pushvalue
         U lua_rawequal
         U lua_rawget
         U lua_rawgeti
         U lua_rawlen
         U lua_rawset
         U lua_rotate
         U lua_setfield
         U lua_setmetatable
         U lua_settop
         U lua_setupvalue
         U lua_stringtonumber
         U lua_toboolean
         U lua_tolstring
         U lua_type
         U lua_typename
00000000 T luaopen_base
00001030 t pairsmeta
         U strspn

lbitlib.o:
00000000 a @feat.00
000000f0 t b_and
00000050 t b_arshift
000002f0 t b_extract
000003d0 t b_lrot
00000430 t b_lshift
00000160 t b_not
00000190 t b_or
000004a0 t b_replace
000005a0 t b_rrot
00000600 t b_rshift
00000270 t b_test
00000200 t b_xor
00000010 r bitlib
         U luaL_argerror
         U luaL_checkinteger
         U luaL_checkversion_
         U luaL_error
         U luaL_optinteger
         U luaL_setfuncs
         U lua_createtable
         U lua_gettop
         U lua_pushboolean
         U lua_pushinteger
00000000 T luaopen_bit32

lcode.o:
00000000 R .refptr.luaP_opmodes
00000000 a @feat.00
000007e0 t addk
00002280 t codecomp
00001c40 t codeexpval
00002470 t discharge2reg
00000c50 t exp2reg
000015b0 t jumponcond
         U luaC_barrier_
         U luaH_set
00000720 T luaK_checkstack
000005e0 t luaK_code
000000d0 T luaK_codeABC
000001b0 T luaK_codeABx
000006c0 T luaK_codek
000001d0 T luaK_concat
00000af0 T luaK_dischargevars
000010d0 T luaK_exp2RK
00000fe0 T luaK_exp2anyreg
00001090 T luaK_exp2anyregup
00000be0 T luaK_exp2nextreg
000010b0 T luaK_exp2val
000023e0 T luaK_fixline
00000290 T luaK_getlabel
000017b0 T luaK_goiffalse
000013e0 T luaK_goiftrue
00001920 T luaK_indexed
00001ee0 T luaK_infix
00000990 T luaK_intK
000000f0 T luaK_jump
00000000 T luaK_nil
00000580 T luaK_patchclose
000002a0 T luaK_patchlist
00000370 T luaK_patchtohere
00001fb0 T luaK_posfix
00001960 T luaK_prefix
00000760 T luaK_reserveregs
00000270 T luaK_ret
00001310 T luaK_self
000023f0 T luaK_setlist
00000a90 T luaK_setoneret
000009d0 T luaK_setreturns
00001230 T luaK_storevar
000007b0 T luaK_stringK
         U luaM_growaux_
         U luaO_arith
         U luaP_opmodes
         U luaV_equalobj
         U luaV_tointeger
         U luaX_syntaxerror
00000420 t patchlistaux

lcorolib.o:
00000000 a @feat.00
000002f0 t auxresume
00000010 r co_funcs
000003c0 t luaB_auxwrap
00000050 t luaB_cocreate
000000a0 t luaB_coresume
00000130 t luaB_corunning
00000160 t luaB_costatus
00000220 t luaB_cowrap
00000290 t luaB_yield
000002c0 t luaB_yieldable
         U luaL_argerror
         U luaL_checktype
         U luaL_checkversion_
         U luaL_setfuncs
         U luaL_where
         U lua_checkstack
         U lua_concat
         U lua_createtable
         U lua_error
         U lua_getstack
         U lua_gettop
         U lua_isstring
         U lua_isyieldable
         U lua_newthread
         U lua_pushboolean
         U lua_pushcclosure
         U lua_pushstring
         U lua_pushthread
         U lua_pushvalue
         U lua_resume
         U lua_rotate
         U lua_settop
         U lua_status
         U lua_tothread
         U lua_xmove
         U lua_yieldk
00000000 T luaopen_coroutine

lctype.o:
00000000 a @feat.00
00000000 R luai_ctype_

ldblib.o:
00000000 a @feat.00
000001fc r HOOKKEY
         U __imp___acrt_iob_func
         U __mingw_vfprintf
00000050 t db_debug
000001f0 t db_gethook
00000360 t db_getinfo
00000770 t db_getlocal
000008e0 t db_getmetatable
000008c0 t db_getregistry
00000920 t db_getupvalue
000001b0 t db_getuservalue
00000b70 t db_sethook
00000d70 t db_setlocal
00000ea0 t db_setmetatable
00000f00 t db_setupvalue
00000b20 t db_setuservalue
00000f80 t db_traceback
00000aa0 t db_upvalueid
00000990 t db_upvaluejoin
00000010 r dblib
         U fflush
         U fgets
00001020 t fprintf
         U fwrite
00001050 t hookf
00000200 r hookf.hooknames.rel
         U luaL_argerror
         U luaL_checkany
         U luaL_checkinteger
         U luaL_checklstring
         U luaL_checktype
         U luaL_checkversion_
         U luaL_error
         U luaL_loadbufferx
         U luaL_optinteger
         U luaL_optlstring
         U luaL_setfuncs
         U luaL_traceback
         U lua_callk
         U lua_checkstack
         U lua_createtable
         U lua_gethook
         U lua_gethookcount
         U lua_gethookmask
         U lua_getinfo
         U lua_getlocal
         U lua_getmetatable
         U lua_getstack
         U lua_getupvalue
         U lua_getuservalue
         U lua_iscfunction
         U lua_pcallk
         U lua_pushboolean
         U lua_pushfstring
         U lua_pushinteger
         U lua_pushlightuserdata
         U lua_pushnil
         U lua_pushstring
         U lua_pushthread
         U lua_pushvalue
         U lua_rawget
         U lua_rawgetp
         U lua_rawset
         U lua_rawsetp
         U lua_rotate
         U lua_setfield
         U lua_sethook
         U lua_setlocal
         U lua_setmetatable
         U lua_settop
         U lua_setupvalue
         U lua_setuservalue
         U lua_tolstring
         U lua_tothread
         U lua_type
         U lua_upvalueid
         U lua_upvaluejoin
         U lua_xmove
00000000 T luaopen_debug
         U strchr
         U strlen

ldebug.o:
00000000 R .refptr.luaP_opmodes
00000000 R .refptr.luaT_typenames_
00000000 a @feat.00
00000dc0 t getobjname
         U luaD_call
         U luaD_hook
         U luaD_throw
         U luaF_getlocalname
00000ba0 T luaG_addinfo
00000a60 T luaG_concaterror
00000c00 T luaG_errormsg
00000a90 T luaG_opinterror
00000b50 T luaG_ordererror
000008a0 T luaG_runerror
00000af0 T luaG_tointerror
00000c60 T luaG_traceexec
00000850 T luaG_typeerror
         U luaH_new
         U luaH_setint
         U luaO_chunkid
         U luaO_pushfstring
         U luaO_pushvfstring
         U luaP_opmodes
         U luaT_typenames_
         U luaV_tointeger
         U luaV_tonumber_
00000050 T lua_gethook
00000070 T lua_gethookcount
00000060 T lua_gethookmask
000003d0 T lua_getinfo
000000f0 T lua_getlocal
00000080 T lua_getstack
00000000 T lua_sethook
00000280 T lua_setlocal
         U strchr
         U strcmp
00000970 t varinfo

ldo.o:
00000000 a @feat.00
         U __imp_longjmp
         U __intrinsic_setjmpex
         U abort
000015f0 t f_parser
00001720 t finishCcall
         U luaC_step
00000cc0 T luaD_call
000002c0 T luaD_growstack
000003f0 T luaD_hook
00001370 T luaD_pcall
00000b60 T luaD_poscall
00000520 T luaD_precall
000014e0 T luaD_protectedparser
000000e0 T luaD_rawrunprotected
00000160 T luaD_reallocstack
00000340 T luaD_shrinkstack
00000000 T luaD_throw
         U luaE_extendCI
         U luaE_freeCI
         U luaE_shrinkCI
         U luaF_close
         U luaF_initupvals
         U luaG_runerror
         U luaG_typeerror
         U luaM_realloc_
         U luaO_pushfstring
         U luaS_new
         U luaS_newlstr
         U luaT_gettmbyobj
         U luaU_undump
         U luaV_execute
         U luaV_finishOp
         U luaY_parser
         U luaZ_fill
000012d0 T lua_isyieldable
00000d60 T lua_resume
000012e0 T lua_yieldk
00000fe0 t resume
000016e0 t resume_error
         U strchr
00001260 t unroll

ldump.o:
00000000 a @feat.00
000001f0 t DumpFunction
00000740 t DumpString
00000000 T luaU_dump

lfunc.o:
00000000 a @feat.00
         U luaC_newobj
         U luaC_upvalbarrier_
000001b0 T luaF_close
00000100 T luaF_findupval
00000270 T luaF_freeproto
00000320 T luaF_getlocalname
00000090 T luaF_initupvals
00000000 T luaF_newCclosure
00000030 T luaF_newLclosure
00000230 T luaF_newproto
         U luaM_realloc_
         U memset

lgc.o:
00000000 a @feat.00
00000ee0 t GCTM
00001b70 t clearvalues
00001920 t convergeephemerons
00001030 t dothecall
00000000 T luaC_barrier_
00000110 T luaC_barrierback_
000001e0 T luaC_checkfinalizer
00000150 T luaC_fix
000002b0 T luaC_freeallobjects
00000d80 T luaC_fullgc
00000180 T luaC_newobj
00000520 T luaC_runtilstate
00000bf0 T luaC_step
00000130 T luaC_upvalbarrier_
000001c0 T luaC_upvdeccount
         U luaD_call
         U luaD_pcall
         U luaD_shrinkstack
         U luaD_throw
         U luaE_freethread
         U luaE_setdebt
         U luaF_freeproto
         U luaH_free
         U luaM_realloc_
         U luaO_pushfstring
         U luaS_clearcache
         U luaS_remove
         U luaS_resize
         U luaT_gettm
         U luaT_gettmbyobj
00001680 t markmt
00001050 t propagatemark
00000030 t reallymarkobject
00000560 t singlestep
         U strchr
00000380 t sweeplist
00001780 t traverseephemeron

linit.o:
00000000 a @feat.00
00000000 T luaL_openlibs
         U luaL_requiref
         U lua_settop
         U luaopen_base
         U luaopen_bit32
         U luaopen_coroutine
         U luaopen_debug
         U luaopen_io
         U luaopen_math
         U luaopen_os
         U luaopen_package
         U luaopen_string
         U luaopen_table
         U luaopen_utf8

liolib.o:
00000000 a @feat.00
         U ___chkstk_ms
         U __imp___acrt_iob_func
         U __imp__errno
         U __imp__pclose
         U __imp__popen
         U __imp_isspace
         U __imp_isxdigit
         U __imp_localeconv
         U __mingw_vfprintf
         U clearerr
00001310 t f_flush
00001630 t f_gc
00001370 t f_lines
00001400 t f_read
00001450 t f_seek
00000360 r f_seek.mode
00000370 r f_seek.modenames
00001530 t f_setvbuf
000003bc r f_setvbuf.mode
000003d0 r f_setvbuf.modenames
00001690 t f_tostring
000015d0 t f_write
         U fclose
         U ferror
         U fflush
000002a0 r flib
         U fopen
000012e0 t fprintf
         U fread
         U fseek
         U ftell
         U fwrite
00000830 t g_iofile
00000ad0 t g_read
000011c0 t g_write
         U getc
000001e0 t io_close
00000940 t io_fclose
00000270 t io_flush
000002e0 t io_input
00000310 t io_lines
000016e0 t io_noclose
000004b0 t io_open
000005c0 t io_output
00001180 t io_pclose
000005f0 t io_popen
000006a0 t io_read
00000980 t io_readline
00000700 t io_tmpfile
00000770 t io_type
000007d0 t io_write
000000a0 r iolib
         U luaL_argerror
         U luaL_buffinit
         U luaL_checkany
         U luaL_checkinteger
         U luaL_checklstring
         U luaL_checkoption
         U luaL_checkstack
         U luaL_checkudata
         U luaL_checkversion_
         U luaL_error
         U luaL_execresult
         U luaL_fileresult
         U luaL_newmetatable
         U luaL_optinteger
         U luaL_optlstring
         U luaL_prepbuffsize
         U luaL_pushresult
         U luaL_setfuncs
         U luaL_setmetatable
         U luaL_testudata
         U lua_copy
         U lua_createtable
         U lua_getfield
         U lua_gettop
         U lua_isinteger
         U lua_newuserdata
         U lua_pushboolean
         U lua_pushcclosure
         U lua_pushfstring
         U lua_pushinteger
         U lua_pushnil
         U lua_pushstring
         U lua_pushvalue
         U lua_rawlen
         U lua_rotate
         U lua_setfield
         U lua_settop
         U lua_stringtonumber
         U lua_toboolean
         U lua_tointegerx
         U lua_tolstring
         U lua_tonumberx
         U lua_touserdata
         U lua_type
00000000 T luaopen_io
         U memchr
00000fa0 t read_line
000010d0 t readdigits
         U setvbuf
         U strerror
         U tmpfile
         U ungetc

llex.o:
00000000 R .refptr.luai_ctype_
00000000 a @feat.00
         U __imp_localeconv
00002f00 t buffreplace
00002030 t check_next1
00002e40 t check_next2
00002d40 t gethexa
00000380 t lexerror
00000620 t llex
         U luaC_fix
         U luaC_step
         U luaD_throw
         U luaG_addinfo
         U luaH_set
         U luaM_realloc_
         U luaO_hexavalue
         U luaO_pushfstring
         U luaO_str2num
         U luaO_utf8esc
         U luaS_new
         U luaS_newlstr
00000000 T luaX_init
000019b0 T luaX_lookahead
000004b0 T luaX_newstring
000005d0 T luaX_next
00000540 T luaX_setinput
00000370 T luaX_syntaxerror
00000310 T luaX_token2str
00000490 r luaX_tokens
         U luaZ_fill
         U luai_ctype_
00001bb0 t read_long_string
00002080 t read_numeral
000019d0 t save
00001a50 t skip_sep

lmathlib.o:
00000000 a @feat.00
         U acos
         U asin
         U atan2
         U ceil
         U cos
         U cosh
         U exp
         U floor
         U fmod
         U frexp
         U ldexp
         U log
         U log10
         U luaL_argerror
         U luaL_checkany
         U luaL_checkinteger
         U luaL_checknumber
         U luaL_checkversion_
         U luaL_error
         U luaL_optnumber
         U luaL_setfuncs
         U lua_compare
         U lua_createtable
         U lua_gettop
         U lua_isinteger
         U lua_pushboolean
         U lua_pushinteger
         U lua_pushnil
         U lua_pushnumber
         U lua_pushstring
         U lua_pushvalue
         U lua_setfield
         U lua_settop
         U lua_tointegerx
         U lua_type
00000000 T luaopen_math
000000e0 t math_abs
00000140 t math_acos
00000170 t math_asin
000001a0 t math_atan
00000200 t math_ceil
00000280 t math_cos
00000a70 t math_cosh
000002b0 t math_deg
000002f0 t math_exp
00000370 t math_floor
000003f0 t math_fmod
00000b50 t math_frexp
00000b90 t math_ldexp
00000510 t math_log
00000be0 t math_log10
000005c0 t math_max
00000660 t math_min
00000700 t math_modf
00000b00 t math_pow
000007e0 t math_rad
00000820 t math_random
00000930 t math_randomseed
00000960 t math_sin
00000aa0 t math_sinh
00000990 t math_sqrt
000009e0 t math_tan
00000ad0 t math_tanh
00000320 t math_toint
00000a10 t math_type
000004d0 t math_ult
00000090 r mathlib
         U pow
         U rand
         U sin
         U sinh
         U sqrt
         U srand
         U tan
         U tanh

lmem.o:
00000000 a @feat.00
         U luaC_fullgc
         U luaD_throw
         U luaG_runerror
00000000 T luaM_growaux_
000000f0 T luaM_realloc_
00000170 T luaM_toobig

loadlib.o:
00000000 a @feat.00
000001d8 r CLIBS
         U ___chkstk_ms
         U __imp_FormatMessageA
         U __imp_FreeLibrary
         U __imp_GetLastError
         U __imp_GetModuleFileNameA
         U __imp_GetProcAddress
         U __imp_LoadLibraryExA
         U fclose
         U fopen
00000430 t gctm
         U getenv
000001b0 r ll_funcs
000004b0 t ll_loadlib
00000e90 t ll_require
00000540 t ll_searchpath
00000de0 t loadfunc
000005f0 t lookforfunc
         U luaL_addvalue
         U luaL_buffinit
         U luaL_checklstring
         U luaL_checkversion_
         U luaL_error
         U luaL_getsubtable
         U luaL_gsub
         U luaL_len
         U luaL_loadfilex
         U luaL_optlstring
         U luaL_pushresult
         U luaL_setfuncs
         U lua_callk
         U lua_createtable
         U lua_getfield
         U lua_isstring
         U lua_pushboolean
         U lua_pushcclosure
         U lua_pushfstring
         U lua_pushlightuserdata
         U lua_pushlstring
         U lua_pushnil
         U lua_pushstring
         U lua_pushvalue
         U lua_rawgeti
         U lua_rawgetp
         U lua_rawseti
         U lua_rawsetp
         U lua_rotate
         U lua_setfield
         U lua_setmetatable
         U lua_settop
         U lua_toboolean
         U lua_tolstring
         U lua_touserdata
         U lua_type
00000000 T luaopen_package
00000010 r pk_funcs
00000b40 t searcher_C
00000c70 t searcher_Croot
00000a10 t searcher_Lua
000009b0 t searcher_preload
00000800 t searchpath
000002b0 t setpath
         U strchr
         U strlen
         U strrchr

lobject.o:
00000000 R .refptr.luai_ctype_
00000000 a @feat.00
         U __imp_localeconv
         U __mingw_strtod
         U __mingw_vsprintf
         U floor
         U fmod
00000380 t intarith
         U ldexp
         U luaD_growstack
         U luaG_runerror
000000e0 T luaO_arith
000000a0 T luaO_ceillog2
000001f0 r luaO_ceillog2.log_2
00000d00 T luaO_chunkid
00000070 T luaO_fb2int
00000400 T luaO_hexavalue
00000000 T luaO_int2fb
000001e0 R luaO_nilobject_
00000cd0 T luaO_pushfstring
00000970 T luaO_pushvfstring
00000420 T luaO_str2num
00000890 T luaO_tostring
00000810 T luaO_utf8esc
         U luaS_newlstr
         U luaT_trybinTM
         U luaV_concat
         U luaV_div
         U luaV_mod
         U luaV_shiftl
         U luaV_tointeger
         U luaV_tonumber_
         U luai_ctype_
         U memcpy
         U pow
00000940 t sprintf
         U strchr
         U strlen
         U strpbrk
         U strspn

lopcodes.o:
00000000 a @feat.00
000002b0 R luaP_opmodes
00000130 R luaP_opnames

loslib.o:
00000000 a @feat.00
         U ___chkstk_ms
         U _difftime64
         U _gmtime64
         U _localtime64
         U _mktime64
         U _time64
         U clock
         U exit
         U getenv
         U luaL_addlstring
         U luaL_argerror
         U luaL_buffinit
         U luaL_checkinteger
         U luaL_checklstring
         U luaL_checkoption
         U luaL_checktype
         U luaL_checkversion_
         U luaL_error
         U luaL_execresult
         U luaL_fileresult
         U luaL_optinteger
         U luaL_optlstring
         U luaL_prepbuffsize
         U luaL_pushresult
         U luaL_setfuncs
         U lua_close
         U lua_createtable
         U lua_getfield
         U lua_pushboolean
         U lua_pushfstring
         U lua_pushinteger
         U lua_pushnil
         U lua_pushnumber
         U lua_pushstring
         U lua_setfield
         U lua_settop
         U lua_toboolean
         U lua_tointegerx
         U lua_type
00000000 T luaopen_os
         U memchr
00000050 t os_clock
00000080 t os_date
000003e0 t os_difftime
00000430 t os_execute
00000480 t os_exit
000004f0 t os_getenv
00000530 t os_remove
00000570 t os_rename
000005c0 t os_setlocale
00000190 r os_setlocale.cat
000001b0 r os_setlocale.catnames
00000630 t os_time
000008e0 t os_tmpname
         U remove
         U rename
         U setlocale
         U strftime
00000010 r syslib
         U system
         U tmpnam

lparser.o:
00000000 a @feat.00
000035f0 t assignment
00002300 t body
00000400 t close_func
000031d0 t closegoto
00002030 t constructor
000032d0 t error_expected
00000550 t errorlimit
00003110 t explist
00002cf0 t fieldsel
00003300 t forbody
00002d80 t funcargs
00002cc0 t getlocvar
000017f0 t gotostat
00001950 t leaveblock
         U luaC_barrier_
         U luaC_step
         U luaD_growstack
         U luaF_newLclosure
         U luaF_newproto
         U luaH_new
         U luaK_checkstack
         U luaK_codeABC
         U luaK_codeABx
         U luaK_codek
         U luaK_concat
         U luaK_dischargevars
         U luaK_exp2RK
         U luaK_exp2anyreg
         U luaK_exp2anyregup
         U luaK_exp2nextreg
         U luaK_exp2val
         U luaK_fixline
         U luaK_getlabel
         U luaK_goiffalse
         U luaK_goiftrue
         U luaK_indexed
         U luaK_infix
         U luaK_intK
         U luaK_jump
         U luaK_nil
         U luaK_patchclose
         U luaK_patchlist
         U luaK_patchtohere
         U luaK_posfix
         U luaK_prefix
         U luaK_reserveregs
         U luaK_ret
         U luaK_self
         U luaK_setlist
         U luaK_setoneret
         U luaK_setreturns
         U luaK_storevar
         U luaK_stringK
         U luaM_growaux_
         U luaM_realloc_
         U luaO_int2fb
         U luaO_pushfstring
         U luaS_new
         U luaX_lookahead
         U luaX_newstring
         U luaX_next
         U luaX_setinput
         U luaX_syntaxerror
         U luaX_token2str
00000000 T luaY_parser
00002b00 t new_localvar
00000280 t newupvalue
00000360 r priority
000029e0 t recfield
000032b0 t semerror
00002f60 t singlevar
00003000 t singlevaraux
000005c0 t statement
00001ca0 t subexpr
000027e0 t suffixedexp
00003170 t undefgoto

lstate.o:
00000000 R .refptr.luaO_nilobject_
00000000 a @feat.00
         U _time64
00000910 t close_state
00000680 t f_luaopen
         U luaC_freeallobjects
         U luaC_step
         U luaD_rawrunprotected
00000010 T luaE_extendCI
00000050 T luaE_freeCI
000003d0 T luaE_freethread
00000000 T luaE_setdebt
000000a0 T luaE_shrinkCI
         U luaF_close
         U luaH_new
         U luaH_resize
         U luaH_setint
         U luaM_realloc_
         U luaO_nilobject_
         U luaS_hash
         U luaS_init
         U luaT_init
         U luaX_init
00000a00 T lua_close
00000470 T lua_newstate
00000100 T lua_newthread
         U lua_version

lstring.o:
00000000 R .refptr.luaO_nilobject_
00000000 a @feat.00
         U luaC_fix
         U luaC_newobj
         U luaM_realloc_
         U luaM_toobig
         U luaO_nilobject_
000001e0 T luaS_clearcache
00000000 T luaS_eqlngstr
00000040 T luaS_hash
00000240 T luaS_init
000006d0 T luaS_new
000004a0 T luaS_newlstr
00000760 T luaS_newudata
00000690 T luaS_remove
00000090 T luaS_resize
         U memcmp
         U memcpy
         U strcmp
         U strlen

lstrlib.o:
00000000 a @feat.00
         U ___chkstk_ms
         U __imp_isalnum
         U __imp_isalpha
         U __imp_iscntrl
         U __imp_isgraph
         U __imp_islower
         U __imp_ispunct
         U __imp_isspace
         U __imp_isupper
         U __imp_isxdigit
         U __imp_localeconv
         U __imp_tolower
         U __imp_toupper
         U __mingw_vsprintf
         U floor
         U frexp
00003bc0 t getdetails
00003c90 t getoption
00000bb0 t gmatch
00003960 t gmatch_aux
         U luaL_addlstring
         U luaL_addstring
         U luaL_addvalue
         U luaL_argerror
         U luaL_buffinit
         U luaL_buffinitsize
         U luaL_checkinteger
         U luaL_checklstring
         U luaL_checknumber
         U luaL_checkstack
         U luaL_checktype
         U luaL_checkversion_
         U luaL_error
         U luaL_optinteger
         U luaL_optlstring
         U luaL_prepbuffsize
         U luaL_pushresult
         U luaL_pushresultsize
         U luaL_setfuncs
         U luaL_tolstring
         U lua_callk
         U lua_copy
         U lua_createtable
         U lua_dump
         U lua_gettable
         U lua_gettop
         U lua_isstring
         U lua_pushcclosure
         U lua_pushinteger
         U lua_pushlstring
         U lua_pushnil
         U lua_pushnumber
         U lua_pushstring
         U lua_pushvalue
         U lua_rotate
         U lua_setfield
         U lua_setmetatable
         U lua_settop
         U lua_toboolean
         U lua_tointegerx
         U lua_tolstring
         U lua_type
         U lua_typename
00000000 T luaopen_string
00002db0 t match
000037b0 t match_class
         U memchr
         U memcmp
         U memcpy
         U memset
00003880 t push_onecapture
00003930 t sprintf
000000c0 t str_byte
000001e0 t str_char
00000290 t str_dump
00000330 t str_find
00002940 t str_find_aux
00000340 t str_format
00000c10 t str_gsub
000012d0 t str_len
00001300 t str_lower
00001390 t str_match
000016f0 t str_pack
000020b0 t str_packsize
000013a0 t str_rep
00001500 t str_reverse
00001590 t str_sub
000021c0 t str_unpack
00001660 t str_upper
         U strchr
         U strlen
00000330 r strlib
         U strpbrk
00004040 t unpackint
00002920 t writer

ltable.o:
00000000 R .refptr.luaO_nilobject_
00000000 a @feat.00
000000c0 r dummynode_
         U frexp
         U luaC_barrierback_
         U luaC_newobj
         U luaG_runerror
000006a0 T luaH_free
00000d50 T luaH_get
00000c70 T luaH_getint
00000f40 T luaH_getn
00000cf0 T luaH_getstr
00000650 T luaH_new
00000710 T luaH_newkey
00000000 T luaH_next
00000190 T luaH_resize
00000620 T luaH_resizearray
000005d0 T luaH_set
00000530 T luaH_setint
         U luaM_realloc_
         U luaO_ceillog2
         U luaO_nilobject_
         U luaS_hash
         U luaV_equalobj
         U luaV_tointeger
00000b40 t mainposition

ltablib.o:
00000000 a @feat.00
         U ___chkstk_ms
00000880 t auxsort
000007a0 t checktab
         U luaL_addlstring
         U luaL_addvalue
         U luaL_argerror
         U luaL_buffinit
         U luaL_checkinteger
         U luaL_checkstack
         U luaL_checktype
         U luaL_checkversion_
         U luaL_error
         U luaL_getmetafield
         U luaL_len
         U luaL_optinteger
         U luaL_optlstring
         U luaL_pushresult
         U luaL_setfuncs
         U lua_callk
         U lua_checkstack
         U lua_compare
         U lua_createtable
         U lua_geti
         U lua_getmetatable
         U lua_gettop
         U lua_isstring
         U lua_pushinteger
         U lua_pushnil
         U lua_pushstring
         U lua_pushvalue
         U lua_rawget
         U lua_rawgeti
         U lua_rawseti
         U lua_rotate
         U lua_setfield
         U lua_seti
         U lua_settop
         U lua_toboolean
         U lua_type
         U lua_typename
00000000 T luaopen_table
000002e0 t pack
00000710 t sort
00000d70 t sort_comp
00000010 r tab_funcs
00000050 t tconcat
000001f0 t tinsert
00000530 t tmove
00000440 t tremove
00000370 t unpack

ltm.o:
00000000 R .refptr.luaO_nilobject_
00000000 a @feat.00
         U luaC_fix
         U luaD_call
         U luaG_concaterror
         U luaG_opinterror
         U luaG_tointerror
         U luaH_getstr
         U luaO_nilobject_
         U luaS_new
00000110 T luaT_callTM
000001d0 T luaT_callbinTM
00000460 T luaT_callorderTM
00000070 T luaT_gettm
000000a0 T luaT_gettmbyobj
00000000 T luaT_init
000000a8 r luaT_init.luaT_eventname.rel
00000380 T luaT_trybinTM
00000050 R luaT_typenames_
         U luaV_tonumber_
00000015 r udatatypename

lua_cjson.o:
00000000 a @feat.00
         U __imp__assert
         U __imp__strnicmp
00000340 r char2escape
         U floor
         U fpconv_g_fmt
         U fpconv_init
         U fpconv_strtod
00000c10 t json_append_data
00001330 t json_append_number
00001260 t json_append_string
000021c0 t json_arg_init
00000be0 t json_cfg_decode_invalid_numbers
000009f0 t json_cfg_decode_max_depth
00000ba0 t json_cfg_encode_invalid_numbers
00000020 d json_cfg_encode_invalid_numbers.options
00000b30 t json_cfg_encode_keep_buffer
00000950 t json_cfg_encode_max_depth
00000a90 t json_cfg_encode_number_precision
00000830 t json_cfg_encode_sparse_array
000006f0 t json_decode
000022c0 t json_destroy_config
00000620 t json_encode
00002230 t json_enum_option
00000000 d json_enum_option.bool_options
000020d0 t json_is_invalid_number
00002160 t json_next_number_token
000015b0 t json_next_token
00001ce0 t json_process_value
000022f0 t json_protect_conversion
00000d30 r json_token_type_name
         U luaL_argerror
         U luaL_checkinteger
         U luaL_checklstring
         U luaL_checkoption
         U luaL_error
         U luaL_setfuncs
         U lua_checkstack
00000020 t lua_cjson_new
00000560 t lua_cjson_safe_new
         U lua_createtable
         U lua_getfield
         U lua_gettop
         U lua_newuserdata
         U lua_next
         U lua_pcallk
         U lua_pushboolean
         U lua_pushcclosure
         U lua_pushinteger
         U lua_pushlightuserdata
         U lua_pushlstring
         U lua_pushnil
         U lua_pushnumber
         U lua_pushstring
         U lua_pushvalue
         U lua_rawgeti
         U lua_rawset
         U lua_rawseti
         U lua_rotate
         U lua_setfield
         U lua_setmetatable
         U lua_settop
         U lua_toboolean
         U lua_tolstring
         U lua_tonumberx
         U lua_touserdata
         U lua_type
         U lua_typename
00000000 T luaopen_cjson
000004a0 T luaopen_cjson_safe
         U memcpy
         U snprintf
         U strbuf_append_string
         U strbuf_free
         U strbuf_init
         U strbuf_new
         U strbuf_resize
         U strncmp

lundump.o:
00000000 a @feat.00
00000380 t LoadFunction
00000ad0 t LoadString
00000aa0 t error
         U luaD_growstack
         U luaD_throw
         U luaF_newLclosure
         U luaF_newproto
         U luaM_realloc_
         U luaO_pushfstring
         U luaS_newlstr
00000000 T luaU_undump
         U luaZ_openspace
         U luaZ_read

lutf8lib.o:
00000000 a @feat.00
         U ___chkstk_ms
00000080 t byteoffset
00000260 t codepoint
00000010 r funcs
000007c0 t iter_aux
00000770 t iter_codes
         U luaL_addvalue
         U luaL_argerror
         U luaL_buffinit
         U luaL_checkinteger
         U luaL_checklstring
         U luaL_checkstack
         U luaL_checkversion_
         U luaL_error
         U luaL_optinteger
         U luaL_pushresult
         U luaL_setfuncs
         U lua_createtable
         U lua_gettop
         U lua_pushcclosure
         U lua_pushfstring
         U lua_pushinteger
         U lua_pushlstring
         U lua_pushnil
         U lua_pushvalue
         U lua_setfield
         U lua_tointegerx
00000000 T luaopen_utf8
00000130 r utf8_decode.limits
00000460 t utfchar
00000580 t utflen

lvm.o:
00000000 R .refptr.luaO_nilobject_
00000000 a @feat.00
         U floor
         U fmod
         U luaC_barrierback_
         U luaC_step
         U luaC_upvalbarrier_
         U luaD_call
         U luaD_growstack
         U luaD_poscall
         U luaD_precall
         U luaF_close
         U luaF_findupval
         U luaF_newLclosure
         U luaG_ordererror
         U luaG_runerror
         U luaG_traceexec
         U luaG_typeerror
         U luaH_get
         U luaH_getn
         U luaH_new
         U luaH_newkey
         U luaH_resize
         U luaH_resizearray
         U luaH_setint
         U luaO_fb2int
         U luaO_nilobject_
         U luaO_str2num
         U luaO_tostring
         U luaS_eqlngstr
         U luaS_newlstr
         U luaT_callTM
         U luaT_callorderTM
         U luaT_gettm
         U luaT_gettmbyobj
         U luaT_trybinTM
00000b20 T luaV_concat
00000e70 T luaV_div
000008c0 T luaV_equalobj
000010c0 T luaV_execute
00000f80 T luaV_finishOp
00000200 T luaV_gettable
00000670 T luaV_lessequal
00000460 T luaV_lessthan
00000ee0 T luaV_mod
00000d90 T luaV_objlen
00000300 T luaV_settable
00000f50 T luaV_shiftl
000000a0 T luaV_tointeger
00000000 T luaV_tonumber_
         U luaZ_openspace
         U memcpy
         U pow
         U strcoll
         U strlen

lzio.o:
00000000 a @feat.00
         U luaM_realloc_
00000000 T luaZ_fill
00000050 T luaZ_init
00000110 T luaZ_openspace
00000070 T luaZ_read
         U memcpy

mman.o:
00000000 a @feat.00
         U __imp_CloseHandle
         U __imp_CreateFileMappingA
         U __imp_FlushViewOfFile
         U __imp_GetLastError
         U __imp_MapViewOfFile
         U __imp_UnmapViewOfFile
         U __imp_VirtualLock
         U __imp_VirtualProtect
         U __imp_VirtualUnlock
         U __imp__errno
         U __imp__get_osfhandle
00000230 T mlock
00000000 T mmap
00000180 T mprotect
000001f0 T msync
00000270 T munlock
00000140 T munmap

physfs.o:
00000000 a @feat.00
00002490 T PHYSFS_addToSearchPath
00004e80 T PHYSFS_close
00000d60 T PHYSFS_deinit
00003740 T PHYSFS_delete
000011a0 T PHYSFS_deregisterArchiver
00002b20 T PHYSFS_enumerate
00003c70 T PHYSFS_enumerateFiles
00004430 T PHYSFS_enumerateFilesCallback
00005350 T PHYSFS_eof
00004480 T PHYSFS_exists
00005500 T PHYSFS_fileLength
000054a0 T PHYSFS_flush
000013a0 T PHYSFS_freeList
00005660 T PHYSFS_getAllocator
00001610 T PHYSFS_getBaseDir
00001400 T PHYSFS_getCdRomDirs
00001470 T PHYSFS_getCdRomDirsCallback
000013f0 T PHYSFS_getDirSeparator
00000000 d PHYSFS_getDirSeparator.retval
00000590 T PHYSFS_getErrorByCode
000005b0 T PHYSFS_getLastError
00000500 T PHYSFS_getLastErrorCode
000044a0 T PHYSFS_getLastModTime
00000650 T PHYSFS_getLinkedVersion
000027a0 T PHYSFS_getMountPoint
00001480 T PHYSFS_getPrefDir
00003980 T PHYSFS_getRealDir
000025d0 T PHYSFS_getSearchPath
00002740 T PHYSFS_getSearchPathCallback
00001630 T PHYSFS_getUserDir
00001640 T PHYSFS_getWriteDir
00000660 T PHYSFS_init
00004890 T PHYSFS_isDirectory
00000d90 T PHYSFS_isInit
000048c0 T PHYSFS_isSymbolicLink
00003370 T PHYSFS_mkdir
000023a0 T PHYSFS_mount
00002230 T PHYSFS_mountHandle
00001f90 T PHYSFS_mountIo
00002080 T PHYSFS_mountMemory
00004bb0 T PHYSFS_openAppend
00004bc0 T PHYSFS_openRead
000048f0 T PHYSFS_openWrite
00003350 T PHYSFS_permitSymbolicLinks
00005060 T PHYSFS_read
000050a0 T PHYSFS_readBytes
00000e90 T PHYSFS_registerArchiver
000024a0 T PHYSFS_removeFromSearchPath
000053d0 T PHYSFS_seek
00005600 T PHYSFS_setAllocator
00005510 T PHYSFS_setBuffer
00000180 T PHYSFS_setErrorCode
00002830 T PHYSFS_setSaneConfig
00001680 T PHYSFS_setWriteDir
000044d0 T PHYSFS_stat
00001370 T PHYSFS_supportedArchiveTypes
00003360 T PHYSFS_symbolicLinksPermitted
000053a0 T PHYSFS_tell
000024b0 T PHYSFS_unmount
         U PHYSFS_utf8stricmp
000051b0 T PHYSFS_write
00005290 T PHYSFS_writeBytes
         U SZIP_global_init
00000000 B __PHYSFS_AllocatorHooks
         U __PHYSFS_Archiver_7Z
         U __PHYSFS_Archiver_DIR
         U __PHYSFS_Archiver_GRP
         U __PHYSFS_Archiver_HOG
         U __PHYSFS_Archiver_ISO9660
         U __PHYSFS_Archiver_MVL
         U __PHYSFS_Archiver_QPAK
         U __PHYSFS_Archiver_SLB
         U __PHYSFS_Archiver_VDF
         U __PHYSFS_Archiver_WAD
         U __PHYSFS_Archiver_ZIP
00005760 T __PHYSFS_DirTreeAdd
00005fc0 T __PHYSFS_DirTreeDeinit
00005dc0 T __PHYSFS_DirTreeEnumerate
00005c40 T __PHYSFS_DirTreeFind
00005690 T __PHYSFS_DirTreeInit
00000002 d __PHYSFS_DirTreeInit.rootpath
00000270 T __PHYSFS_createMemoryIo
00000000 T __PHYSFS_createNativeIo
00001620 T __PHYSFS_getUserDir
00000598 r __PHYSFS_handleIoInterface
00000de0 T __PHYSFS_hashString
000036e0 T __PHYSFS_initSmallAlloc
00000090 r __PHYSFS_memoryIoInterface
00000040 r __PHYSFS_nativeIoInterface
         U __PHYSFS_platformCalcBaseDir
         U __PHYSFS_platformCalcPrefDir
         U __PHYSFS_platformCalcUserDir
         U __PHYSFS_platformClose
         U __PHYSFS_platformCreateMutex
         U __PHYSFS_platformDeinit
         U __PHYSFS_platformDestroyMutex
         U __PHYSFS_platformDetectAvailableCDs
         U __PHYSFS_platformFileLength
         U __PHYSFS_platformFlush
         U __PHYSFS_platformGetThreadID
         U __PHYSFS_platformGrabMutex
         U __PHYSFS_platformInit
         U __PHYSFS_platformMkDir
         U __PHYSFS_platformOpenAppend
         U __PHYSFS_platformOpenRead
         U __PHYSFS_platformOpenWrite
         U __PHYSFS_platformRead
         U __PHYSFS_platformReleaseMutex
         U __PHYSFS_platformSeek
         U __PHYSFS_platformStat
         U __PHYSFS_platformTell
         U __PHYSFS_platformWrite
00000360 t __PHYSFS_quick_sort
000055e0 T __PHYSFS_readAll
00003720 T __PHYSFS_smallFree
00000330 T __PHYSFS_sort
00000da0 T __PHYSFS_strdup
         U ___chkstk_ms
         U __imp__assert
00000090 b allowSymLinks
00000060 b archiveInfo
00000098 b archivers
00000040 b baseDir
00001750 t createDirHandle
000009e0 t doDeinit
00001240 t doDeregisterArchiver
00004900 t doOpenWrite
00000ee0 t doRegisterArchiver
00004210 t enumCallbackFilterSymLinks
00003db0 t enumFilesCallback
00004460 t enumFilesCallbackAlwaysSucceed
00006470 t enumStringListCallback
00003ed0 t enumerateFromMountPoint
00000028 b errorLock
00000030 b errorStates
0000003c b externalAllocator
         U free
000039a0 t getRealDirHandle
000068c0 t handleIo_destroy
00006730 t handleIo_duplicate
00006860 t handleIo_flush
00006720 t handleIo_length
00006550 t handleIo_read
00006620 t handleIo_seek
000066f0 t handleIo_tell
00006560 t handleIo_write
00000038 b initialized
         U malloc
00006910 t mallocAllocatorFree
000068f0 t mallocAllocatorMalloc
00006900 t mallocAllocatorRealloc
         U memcpy
         U memmove
00006330 t memoryIo_destroy
00006230 t memoryIo_duplicate
00006320 t memoryIo_flush
00006220 t memoryIo_length
00006150 t memoryIo_read
000061e0 t memoryIo_seek
00006210 t memoryIo_tell
000061c0 t memoryIo_write
         U memset
00006110 t nativeIo_destroy
000060f0 t nativeIo_duplicate
00006100 t nativeIo_flush
000060e0 t nativeIo_length
000060a0 t nativeIo_read
000060c0 t nativeIo_seek
000060d0 t nativeIo_tell
000060b0 t nativeIo_write
00000058 b numArchivers
00000088 b openReadList
00000078 b openWriteList
00000068 b prefDir
         U realloc
00000080 b searchPath
00003090 t setSaneCfgEnumCallback
         U snprintf
00000050 b stateLock
         U strchr
         U strcmp
         U strcpy
         U strlen
         U strncmp
         U strrchr
00000048 b userDir
00004020 t verifyPath
00000070 b writeDir

physfs_archiver_7z.o:
00000000 a @feat.00
000069b0 t ARMT_Convert
00006930 t ARM_Convert
00005d20 t Bcj2Dec_Decode
00000df0 t CrcUpdateT4
00000f90 t CrcUpdateT8
000064d0 t IA64_Convert
000013a0 t LookToRead_Look_Exact
00001430 t LookToRead_Read
00001490 t LookToRead_Seek
00001420 t LookToRead_Skip
00007730 t LzmaDec_DecodeReal2
00006a70 t LzmaDec_DecodeToDic
000070a0 t LzmaDec_TryDummy
         U PHYSFS_setErrorCode
         U PHYSFS_utf8FromUtf16
00006420 t PPC_Convert
000059c0 t ReadBitUi32s
00005b80 t ReadBitVector
000016d0 t ReadNumber
000093f0 t ReadTime
00005c60 t ReadUi32s
00006840 t SPARC_Convert
000012d0 t SZIP_ISeekInStream_Read
00001310 t SZIP_ISeekInStream_Seek
000012a0 t SZIP_ISzAlloc_Alloc
000012c0 t SZIP_ISzAlloc_Free
00000000 d SZIP_SzAlloc
00000db0 t SZIP_closeArchive
00000000 T SZIP_global_init
00000000 b SZIP_global_init.generatedTable
00000c60 t SZIP_mkdir
00000c20 t SZIP_openAppend
00000370 t SZIP_openArchive
00000230 r SZIP_openArchive.wantedsig
00000930 t SZIP_openRead
00000c00 t SZIP_openWrite
00000c40 t SZIP_remove
00000c80 t SZIP_stat
00005980 t SkipData
000014b0 t SzArEx_Free
00003b40 t SzAr_DecodeFolder
00001a70 t SzAr_Free
00009670 t SzBitUi32s_Alloc
000018e0 t SzReadAndDecodePackedStreams
00009370 t SzReadFileNames
00001b30 t SzReadHeader
00005880 t SzReadNumber32
00002ac0 t SzReadStreamsInfo
000058f0 t WaitId
         U __PHYSFS_AllocatorHooks
000001b8 R __PHYSFS_Archiver_7Z
         U __PHYSFS_DirTreeAdd
         U __PHYSFS_DirTreeDeinit
         U __PHYSFS_DirTreeEnumerate
         U __PHYSFS_DirTreeFind
         U __PHYSFS_DirTreeInit
         U __PHYSFS_createMemoryIo
         U __PHYSFS_initSmallAlloc
         U __PHYSFS_smallFree
         U ___chkstk_ms
00000010 b g_CrcTable
00002010 b g_CrcUpdate
00000250 r kBranchTable
         U memcpy
         U memset
00001240 t szipLoadEntries
000096e0 t szipLoadEntry
00006220 t x86_Convert

physfs_archiver_dir.o:
00000000 a @feat.00
000005a0 t DIR_closeArchive
000000b0 t DIR_enumerate
00000350 t DIR_mkdir
00000220 t DIR_openAppend
00000000 t DIR_openArchive
00000200 t DIR_openRead
00000210 t DIR_openWrite
00000230 t DIR_remove
00000470 t DIR_stat
         U PHYSFS_getLastErrorCode
         U PHYSFS_setErrorCode
         U __PHYSFS_AllocatorHooks
00000068 R __PHYSFS_Archiver_DIR
         U __PHYSFS_createNativeIo
         U __PHYSFS_initSmallAlloc
         U __PHYSFS_platformDelete
         U __PHYSFS_platformEnumerate
         U __PHYSFS_platformMkDir
         U __PHYSFS_platformStat
         U __PHYSFS_smallFree
         U ___chkstk_ms
         U __imp__assert
000005b0 t doOpen
         U snprintf
         U strchr
         U strcpy
         U strlen

physfs_archiver_grp.o:
00000000 a @feat.00
00000000 t GRP_openArchive
         U PHYSFS_setErrorCode
         U PHYSFS_swapULE32
         U UNPK_abandonArchive
         U UNPK_addEntry
         U UNPK_closeArchive
         U UNPK_mkdir
         U UNPK_openAppend
         U UNPK_openArchive
         U UNPK_openRead
         U UNPK_openWrite
         U UNPK_remove
         U UNPK_stat
00000068 R __PHYSFS_Archiver_GRP
         U __PHYSFS_DirTreeEnumerate
         U __PHYSFS_readAll
         U __imp__assert
         U strchr

physfs_archiver_hog.o:
00000000 a @feat.00
00000000 t HOG_openArchive
         U PHYSFS_setErrorCode
         U PHYSFS_swapULE32
         U UNPK_abandonArchive
         U UNPK_addEntry
         U UNPK_closeArchive
         U UNPK_mkdir
         U UNPK_openAppend
         U UNPK_openArchive
         U UNPK_openRead
         U UNPK_openWrite
         U UNPK_remove
         U UNPK_stat
00000060 R __PHYSFS_Archiver_HOG
         U __PHYSFS_DirTreeEnumerate
         U __PHYSFS_readAll
         U __imp__assert

physfs_archiver_iso9660.o:
00000000 a @feat.00
00000000 t ISO9660_openArchive
         U PHYSFS_setErrorCode
         U PHYSFS_swapUBE16
         U PHYSFS_swapULE32
         U PHYSFS_utf8FromUcs2
         U UNPK_abandonArchive
         U UNPK_addEntry
         U UNPK_closeArchive
         U UNPK_mkdir
         U UNPK_openAppend
         U UNPK_openArchive
         U UNPK_openRead
         U UNPK_openWrite
         U UNPK_remove
         U UNPK_stat
00000058 R __PHYSFS_Archiver_ISO9660
         U __PHYSFS_DirTreeEnumerate
         U __PHYSFS_initSmallAlloc
         U __PHYSFS_readAll
         U __PHYSFS_smallFree
         U ___chkstk_ms
         U __imp__assert
         U _mktime64
000008c0 t iso9660AddEntry
00000500 t iso9660LoadEntries
         U snprintf
         U strlen
         U strrchr

physfs_archiver_mvl.o:
00000000 a @feat.00
00000000 t MVL_openArchive
         U PHYSFS_setErrorCode
         U PHYSFS_swapULE32
         U UNPK_abandonArchive
         U UNPK_addEntry
         U UNPK_closeArchive
         U UNPK_mkdir
         U UNPK_openAppend
         U UNPK_openArchive
         U UNPK_openRead
         U UNPK_openWrite
         U UNPK_remove
         U UNPK_stat
00000060 R __PHYSFS_Archiver_MVL
         U __PHYSFS_DirTreeEnumerate
         U __PHYSFS_readAll
         U __imp__assert

physfs_archiver_qpak.o:
00000000 a @feat.00
         U PHYSFS_setErrorCode
         U PHYSFS_swapULE32
00000000 t QPAK_openArchive
         U UNPK_abandonArchive
         U UNPK_addEntry
         U UNPK_closeArchive
         U UNPK_mkdir
         U UNPK_openAppend
         U UNPK_openArchive
         U UNPK_openRead
         U UNPK_openWrite
         U UNPK_remove
         U UNPK_stat
00000058 R __PHYSFS_Archiver_QPAK
         U __PHYSFS_DirTreeEnumerate
         U __PHYSFS_readAll
         U __imp__assert
00000130 t qpakLoadEntries

physfs_archiver_slb.o:
00000000 a @feat.00
         U PHYSFS_setErrorCode
         U PHYSFS_swapULE32
00000000 t SLB_openArchive
         U UNPK_abandonArchive
         U UNPK_addEntry
         U UNPK_closeArchive
         U UNPK_mkdir
         U UNPK_openAppend
         U UNPK_openArchive
         U UNPK_openRead
         U UNPK_openWrite
         U UNPK_remove
         U UNPK_stat
00000070 R __PHYSFS_Archiver_SLB
         U __PHYSFS_DirTreeEnumerate
         U __PHYSFS_readAll
         U __imp__assert
00000110 t slbLoadEntries

physfs_archiver_unpacked.o:
00000000 a @feat.00
         U PHYSFS_setErrorCode
00000000 r UNPK_Io
00000040 T UNPK_abandonArchive
00000270 T UNPK_addEntry
00000000 T UNPK_closeArchive
000004b0 t UNPK_destroy
000003e0 t UNPK_duplicate
000004a0 t UNPK_flush
000003d0 t UNPK_length
000001e0 T UNPK_mkdir
000001a0 T UNPK_openAppend
000002c0 T UNPK_openArchive
00000080 T UNPK_openRead
00000180 T UNPK_openWrite
00000320 t UNPK_read
000001c0 T UNPK_remove
00000380 t UNPK_seek
00000200 T UNPK_stat
000003c0 t UNPK_tell
00000360 t UNPK_write
         U __PHYSFS_AllocatorHooks
         U __PHYSFS_DirTreeAdd
         U __PHYSFS_DirTreeDeinit
         U __PHYSFS_DirTreeFind
         U __PHYSFS_DirTreeInit

physfs_archiver_vdf.o:
00000000 a @feat.00
         U PHYSFS_setErrorCode
         U PHYSFS_swapULE32
         U UNPK_abandonArchive
         U UNPK_addEntry
         U UNPK_closeArchive
         U UNPK_mkdir
         U UNPK_openAppend
         U UNPK_openArchive
         U UNPK_openRead
         U UNPK_openWrite
         U UNPK_remove
         U UNPK_stat
00000000 t VDF_openArchive
00000098 R __PHYSFS_Archiver_VDF
         U __PHYSFS_DirTreeEnumerate
         U __PHYSFS_readAll
         U __imp__assert
         U _mktime64
000001d0 t readui32
000003b0 t vdfDosTimeToEpoch
00000210 t vdfLoadEntries

physfs_archiver_wad.o:
00000000 a @feat.00
         U PHYSFS_setErrorCode
         U PHYSFS_swapULE32
         U UNPK_abandonArchive
         U UNPK_addEntry
         U UNPK_closeArchive
         U UNPK_mkdir
         U UNPK_openAppend
         U UNPK_openArchive
         U UNPK_openRead
         U UNPK_openWrite
         U UNPK_remove
         U UNPK_stat
00000000 t WAD_openArchive
00000058 R __PHYSFS_Archiver_WAD
         U __PHYSFS_DirTreeEnumerate
         U __PHYSFS_readAll
         U __imp__assert

physfs_archiver_zip.o:
00000000 a @feat.00
         U PHYSFS_setErrorCode
         U PHYSFS_swapULE16
         U PHYSFS_swapULE32
         U PHYSFS_swapULE64
000002d0 r ZIP_Io
00000a70 t ZIP_closeArchive
00005050 t ZIP_destroy
00004dc0 t ZIP_duplicate
00005040 t ZIP_flush
00004db0 t ZIP_length
000009b0 t ZIP_mkdir
00000970 t ZIP_openAppend
00000000 t ZIP_openArchive
00000500 t ZIP_openRead
00000950 t ZIP_openWrite
000049a0 t ZIP_read
00000990 t ZIP_remove
00004bc0 t ZIP_seek
000009d0 t ZIP_stat
00004da0 t ZIP_tell
00004ba0 t ZIP_write
         U __PHYSFS_AllocatorHooks
000001e8 R __PHYSFS_Archiver_ZIP
         U __PHYSFS_DirTreeAdd
         U __PHYSFS_DirTreeDeinit
         U __PHYSFS_DirTreeEnumerate
         U __PHYSFS_DirTreeFind
         U __PHYSFS_DirTreeInit
         U __PHYSFS_initSmallAlloc
         U __PHYSFS_readAll
         U __PHYSFS_smallFree
         U ___chkstk_ms
         U __imp__assert
         U _mktime64
         U memcpy
         U memmove
         U memset
00002100 t mz_inflate
000019d0 t mz_inflateInit2
00000d10 t readui16
00000ab0 t readui32
00000d50 t readui64
         U strchr
         U strlen
         U strrchr
00002440 t tinfl_decompress
00000420 r tinfl_decompress.s_dist_base
000004a0 r tinfl_decompress.s_dist_extra
00000320 r tinfl_decompress.s_length_base
00000520 r tinfl_decompress.s_length_dezigzag
000003a0 r tinfl_decompress.s_length_extra
00000534 r tinfl_decompress.s_min_table_sizes
00000d90 t zip64_find_end_of_central_dir
00000af0 t zip_find_end_of_central_dir
00001030 t zip_load_entry
00001a70 t zip_prep_crypto_keys
00001740 t zip_resolve
00001cb0 t zip_resolve_symlink
00004800 t zip_update_crypto_keys
000047e0 t zlibPhysfsAlloc
000047f0 t zlibPhysfsFree
000019a0 t zlib_err

physfs_byteorder.o:
00000000 a @feat.00
         U PHYSFS_readBytes
00000160 T PHYSFS_readSBE16
000002c0 T PHYSFS_readSBE32
00000400 T PHYSFS_readSBE64
000000c0 T PHYSFS_readSLE16
00000220 T PHYSFS_readSLE32
00000360 T PHYSFS_readSLE64
000001c0 T PHYSFS_readUBE16
00000310 T PHYSFS_readUBE32
00000450 T PHYSFS_readUBE64
00000110 T PHYSFS_readULE16
00000270 T PHYSFS_readULE32
000003b0 T PHYSFS_readULE64
         U PHYSFS_setErrorCode
00000070 T PHYSFS_swapSBE16
00000090 T PHYSFS_swapSBE32
000000b0 T PHYSFS_swapSBE64
00000010 T PHYSFS_swapSLE16
00000030 T PHYSFS_swapSLE32
00000050 T PHYSFS_swapSLE64
00000060 T PHYSFS_swapUBE16
00000080 T PHYSFS_swapUBE32
000000a0 T PHYSFS_swapUBE64
00000000 T PHYSFS_swapULE16
00000020 T PHYSFS_swapULE32
00000040 T PHYSFS_swapULE64
         U PHYSFS_writeBytes
00000500 T PHYSFS_writeSBE16
000005c0 T PHYSFS_writeSBE32
00000680 T PHYSFS_writeSBE64
000004a0 T PHYSFS_writeSLE16
00000560 T PHYSFS_writeSLE32
00000620 T PHYSFS_writeSLE64
00000530 T PHYSFS_writeUBE16
000005f0 T PHYSFS_writeUBE32
000006b0 T PHYSFS_writeUBE64
000004d0 T PHYSFS_writeULE16
00000590 T PHYSFS_writeULE32
00000650 T PHYSFS_writeULE64

physfs_platform_windows.o:
00000000 a @feat.00
000018e0 t FileTimeToPhysfsTime
         U PHYSFS_setErrorCode
         U PHYSFS_utf8FromUtf16
         U PHYSFS_utf8ToUtf16
         U __PHYSFS_AllocatorHooks
         U __PHYSFS_initSmallAlloc
00000470 T __PHYSFS_platformCalcBaseDir
00000600 T __PHYSFS_platformCalcPrefDir
00000760 T __PHYSFS_platformCalcUserDir
00001440 T __PHYSFS_platformClose
000015d0 T __PHYSFS_platformCreateMutex
00000a40 T __PHYSFS_platformDeinit
00001450 T __PHYSFS_platformDelete
00001610 T __PHYSFS_platformDestroyMutex
00000000 T __PHYSFS_platformDetectAvailableCDs
00000ac0 T __PHYSFS_platformEnumerate
00001370 T __PHYSFS_platformFileLength
000013f0 T __PHYSFS_platformFlush
00000aa0 T __PHYSFS_platformGetThreadID
00001630 T __PHYSFS_platformGrabMutex
00000a30 T __PHYSFS_platformInit
00000dd0 T __PHYSFS_platformMkDir
00001060 T __PHYSFS_platformOpenAppend
00000ec0 T __PHYSFS_platformOpenRead
00001030 T __PHYSFS_platformOpenWrite
000010e0 T __PHYSFS_platformRead
00001650 T __PHYSFS_platformReleaseMutex
00001280 T __PHYSFS_platformSeek
00001660 T __PHYSFS_platformStat
000012f0 T __PHYSFS_platformTell
000011b0 T __PHYSFS_platformWrite
         U __PHYSFS_smallFree
         U ___chkstk_ms
         U __imp_CloseHandle
         U __imp_CreateDirectoryW
         U __imp_CreateEventA
         U __imp_CreateFileW
         U __imp_CreateThread
         U __imp_CreateWindowExA
         U __imp_DefWindowProcW
         U __imp_DeleteCriticalSection
         U __imp_DeleteFileW
         U __imp_DestroyWindow
         U __imp_DispatchMessageW
         U __imp_EnterCriticalSection
         U __imp_FileTimeToSystemTime
         U __imp_FindClose
         U __imp_FindFirstFileW
         U __imp_FindNextFileW
         U __imp_FlushFileBuffers
         U __imp_FreeLibrary
         U __imp_GetCurrentProcess
         U __imp_GetCurrentThreadId
         U __imp_GetDriveTypeA
         U __imp_GetFileAttributesExW
         U __imp_GetFileSize
         U __imp_GetLastError
         U __imp_GetMessageW
         U __imp_GetModuleFileNameW
         U __imp_GetModuleHandleW
         U __imp_GetProcAddress
         U __imp_GetTimeZoneInformation
         U __imp_GetVolumeInformationA
         U __imp_InitializeCriticalSection
         U __imp_LeaveCriticalSection
         U __imp_LoadLibraryA
         U __imp_OpenProcessToken
         U __imp_PostMessageW
         U __imp_ReadFile
         U __imp_RegisterClassExA
         U __imp_RemoveDirectoryW
         U __imp_SHGetFolderPathW
         U __imp_SetErrorMode
         U __imp_SetEvent
         U __imp_SetFilePointer
         U __imp_SystemTimeToTzSpecificLocalTime
         U __imp_TranslateMessage
         U __imp_UnregisterClassA
         U __imp_WaitForSingleObject
         U __imp_WriteFile
         U _mktime64
00000010 b detectCDHwnd
000019c0 t detectCDThread
00000000 b detectCDThreadHandle
00001cd0 t detectCDWndProc
00000ef0 t doOpen
00000008 b drivesWithMediaBitmap
00001880 t errcodeFromWinApiError
         U snprintf
         U strcpy
         U strlen

physfs_unicode.o:
00000000 a @feat.00
00000760 T PHYSFS_caseFold
00000b80 T PHYSFS_ucs4stricmp
000009e0 T PHYSFS_utf16stricmp
00000640 T PHYSFS_utf8FromLatin1
000005e0 T PHYSFS_utf8FromUcs2
00000420 T PHYSFS_utf8FromUcs4
000006a0 T PHYSFS_utf8FromUtf16
00000310 T PHYSFS_utf8ToUcs2
00000000 T PHYSFS_utf8ToUcs4
00000380 T PHYSFS_utf8ToUtf16
00000900 T PHYSFS_utf8stricmp
00001240 r case_fold1_16_000
00001260 r case_fold1_16_001
00001280 r case_fold1_16_002
000012a0 r case_fold1_16_003
000012c0 r case_fold1_16_004
000012e0 r case_fold1_16_005
00001300 r case_fold1_16_006
00001320 r case_fold1_16_007
00001340 r case_fold1_16_008
00001360 r case_fold1_16_009
00001380 r case_fold1_16_010
000013a0 r case_fold1_16_011
000013c0 r case_fold1_16_012
000013e0 r case_fold1_16_013
00001400 r case_fold1_16_014
00001420 r case_fold1_16_015
00001440 r case_fold1_16_016
00001460 r case_fold1_16_017
00001480 r case_fold1_16_018
000014a0 r case_fold1_16_019
000014c0 r case_fold1_16_020
000014e0 r case_fold1_16_021
00001500 r case_fold1_16_022
00001520 r case_fold1_16_023
00001540 r case_fold1_16_024
00001550 r case_fold1_16_025
00001560 r case_fold1_16_026
00001570 r case_fold1_16_027
00001580 r case_fold1_16_028
00001590 r case_fold1_16_029
000015a0 r case_fold1_16_030
000015b0 r case_fold1_16_031
000015c0 r case_fold1_16_032
000015e0 r case_fold1_16_033
00001600 r case_fold1_16_034
00001620 r case_fold1_16_035
00001640 r case_fold1_16_036
00001660 r case_fold1_16_037
00001680 r case_fold1_16_038
000016a0 r case_fold1_16_039
000016c0 r case_fold1_16_040
000016e0 r case_fold1_16_041
00001700 r case_fold1_16_042
00001720 r case_fold1_16_043
00001740 r case_fold1_16_044
00001760 r case_fold1_16_045
00001780 r case_fold1_16_046
000017a0 r case_fold1_16_047
000017c0 r case_fold1_16_048
000017e0 r case_fold1_16_049
00001800 r case_fold1_16_050
00001820 r case_fold1_16_051
00001840 r case_fold1_16_052
00001860 r case_fold1_16_053
00001880 r case_fold1_16_054
000018a0 r case_fold1_16_055
000018c0 r case_fold1_16_056
000018e0 r case_fold1_16_057
00001900 r case_fold1_16_058
00001920 r case_fold1_16_059
00001930 r case_fold1_16_060
00001950 r case_fold1_16_061
00001960 r case_fold1_16_062
00001980 r case_fold1_16_063
000019a0 r case_fold1_16_064
000019c0 r case_fold1_16_065
000019e0 r case_fold1_16_066
00001a00 r case_fold1_16_067
00001a20 r case_fold1_16_068
00001a40 r case_fold1_16_069
00001a50 r case_fold1_16_070
00001a70 r case_fold1_16_071
00001a90 r case_fold1_16_072
00001aa8 r case_fold1_16_073
00001ac0 r case_fold1_16_074
00001ae0 r case_fold1_16_075
00001b00 r case_fold1_16_076
00001b20 r case_fold1_16_077
00001b30 r case_fold1_16_078
00001b50 r case_fold1_16_079
00001b64 r case_fold1_16_080
00001b70 r case_fold1_16_081
00001b80 r case_fold1_16_082
00001b90 r case_fold1_16_083
00001bb0 r case_fold1_16_084
00001bc0 r case_fold1_16_085
00001bd0 r case_fold1_16_086
00001be0 r case_fold1_16_087
00001bf0 r case_fold1_16_088
00001bf8 r case_fold1_16_089
00001c04 r case_fold1_16_090
00001c0c r case_fold1_16_091
00001c10 r case_fold1_16_092
00001c18 r case_fold1_16_093
00001c1c r case_fold1_16_094
00001c24 r case_fold1_16_095
00001c28 r case_fold1_16_096
00001c30 r case_fold1_16_097
00001c34 r case_fold1_16_098
00001c3c r case_fold1_16_099
00001c40 r case_fold1_16_100
00001c48 r case_fold1_16_101
00001c4c r case_fold1_16_102
00001c54 r case_fold1_16_103
00001c58 r case_fold1_16_104
00001c60 r case_fold1_16_105
00001c64 r case_fold1_16_106
00001c6c r case_fold1_16_107
00001c70 r case_fold1_16_108
00001c78 r case_fold1_16_109
00001c7c r case_fold1_16_110
00001c84 r case_fold1_16_111
00001c88 r case_fold1_16_112
00001c94 r case_fold1_16_113
00001ca0 r case_fold1_16_114
00001cac r case_fold1_16_115
00001cb8 r case_fold1_16_116
00001cc4 r case_fold1_16_117
00001cd0 r case_fold1_16_118
00001cdc r case_fold1_16_119
00001ce4 r case_fold1_16_120
00001cf0 r case_fold1_16_121
00001cf4 r case_fold1_16_122
00001d00 r case_fold1_16_124
00001d10 r case_fold1_16_126
00001d1c r case_fold1_16_128
00001d24 r case_fold1_16_129
00001d28 r case_fold1_16_130
00001d2c r case_fold1_16_131
00001d34 r case_fold1_16_132
00001d40 r case_fold1_16_133
00001d50 r case_fold1_16_134
00001d58 r case_fold1_16_135
00001d5c r case_fold1_16_136
00001d68 r case_fold1_16_137
00001d70 r case_fold1_16_138
00001d84 r case_fold1_16_139
00001d90 r case_fold1_16_140
00001d9c r case_fold1_16_141
00001db0 r case_fold1_16_142
00001dc0 r case_fold1_16_143
00001dd0 r case_fold1_16_144
00001de4 r case_fold1_16_145
00001df0 r case_fold1_16_146
00001e08 r case_fold1_16_147
00001e10 r case_fold1_16_148
00001e20 r case_fold1_16_149
00001e30 r case_fold1_16_150
00001e44 r case_fold1_16_151
00001e50 r case_fold1_16_152
00001e70 r case_fold1_16_153
00001e80 r case_fold1_16_154
00001e94 r case_fold1_16_155
00001ea0 r case_fold1_16_156
00001ec0 r case_fold1_16_157
00001ed0 r case_fold1_16_158
00001ee8 r case_fold1_16_159
00001f00 r case_fold1_16_160
00001f14 r case_fold1_16_161
00001f20 r case_fold1_16_162
00001f38 r case_fold1_16_163
00001f50 r case_fold1_16_164
00001f70 r case_fold1_16_165
00001f80 r case_fold1_16_166
00001fa0 r case_fold1_16_167
00001fb0 r case_fold1_16_168
00001fc8 r case_fold1_16_169
00001fd0 r case_fold1_16_170
00001fe4 r case_fold1_16_171
00001ff0 r case_fold1_16_172
00002000 r case_fold1_16_173
00002010 r case_fold1_16_174
00002024 r case_fold1_16_175
00002030 r case_fold1_16_176
00002044 r case_fold1_16_177
00002050 r case_fold1_16_178
00002064 r case_fold1_16_179
00002070 r case_fold1_16_180
00002084 r case_fold1_16_181
00002090 r case_fold1_16_182
000020a4 r case_fold1_16_183
000020b0 r case_fold1_16_184
000020c0 r case_fold1_16_185
000020d0 r case_fold1_16_186
000020e0 r case_fold1_16_187
000020f0 r case_fold1_16_188
00002100 r case_fold1_16_189
00002110 r case_fold1_16_190
00002120 r case_fold1_16_191
00002124 r case_fold1_16_192
00002130 r case_fold1_16_193
00002144 r case_fold1_16_194
00002150 r case_fold1_16_195
00002160 r case_fold1_16_196
00002180 r case_fold1_16_197
000021a0 r case_fold1_16_198
000021c0 r case_fold1_16_199
000021d8 r case_fold1_16_200
000021f0 r case_fold1_16_201
00002210 r case_fold1_16_202
00002230 r case_fold1_16_203
00002240 r case_fold1_16_204
00002260 r case_fold1_16_205
00002270 r case_fold1_16_206
00002290 r case_fold1_16_207
000022a0 r case_fold1_16_208
000022c0 r case_fold1_16_209
000022d0 r case_fold1_16_210
000022f0 r case_fold1_16_211
00002310 r case_fold1_16_212
00002330 r case_fold1_16_213
00002350 r case_fold1_16_214
00002370 r case_fold1_16_215
00002380 r case_fold1_16_216
000023a0 r case_fold1_16_217
000023c0 r case_fold1_16_218
000023e0 r case_fold1_16_219
000023f0 r case_fold1_16_220
00002410 r case_fold1_16_221
00002430 r case_fold1_16_222
0000244c r case_fold1_16_223
00002460 r case_fold1_16_224
00002480 r case_fold1_16_225
00002490 r case_fold1_16_226
000024b0 r case_fold1_16_227
000024c0 r case_fold1_16_228
000024e0 r case_fold1_16_229
00002500 r case_fold1_16_230
00002520 r case_fold1_16_231
00002540 r case_fold1_16_232
00002560 r case_fold1_16_233
00002580 r case_fold1_16_234
000025a0 r case_fold1_16_235
000025c0 r case_fold1_16_236
000025e0 r case_fold1_16_237
000025f0 r case_fold1_16_238
00002610 r case_fold1_16_239
00002630 r case_fold1_16_240
00002644 r case_fold1_16_241
00002650 r case_fold1_16_242
00002670 r case_fold1_16_243
00002680 r case_fold1_16_244
00002698 r case_fold1_16_245
000026b0 r case_fold1_16_246
000026d0 r case_fold1_16_247
000026e0 r case_fold1_16_248
000026f0 r case_fold1_16_249
00002700 r case_fold1_16_250
00002714 r case_fold1_16_251
00002720 r case_fold1_16_252
00002734 r case_fold1_16_253
00002740 r case_fold1_16_254
00002754 r case_fold1_16_255
00002a60 r case_fold1_32_000
00002aa0 r case_fold1_32_001
00002ae0 r case_fold1_32_002
00002b20 r case_fold1_32_003
00002b60 r case_fold1_32_004
00002ba0 r case_fold1_32_005
00002be0 r case_fold1_32_006
00002c20 r case_fold1_32_007
00002c60 r case_fold1_32_008
00002ca0 r case_fold1_32_009
00002ce0 r case_fold1_32_010
00002d20 r case_fold1_32_011
00002d60 r case_fold1_32_012
00002da0 r case_fold1_32_013
00002de0 r case_fold1_32_014
00002e20 r case_fold1_32_015
00002760 r case_fold2_16_000
00002780 r case_fold2_16_001
000027a0 r case_fold2_16_002
000027c0 r case_fold2_16_003
000027f0 r case_fold2_16_004
00002810 r case_fold2_16_005
00002830 r case_fold2_16_006
00002850 r case_fold2_16_007
00002870 r case_fold2_16_008
000028a0 r case_fold2_16_009
000028e0 r case_fold2_16_010
00002900 r case_fold2_16_011
00002930 r case_fold2_16_012
00002960 r case_fold2_16_013
00002990 r case_fold2_16_014
000029b0 r case_fold2_16_015
000029e0 r case_fold3_16_000
00002a20 r case_fold3_16_001
00002a40 r case_fold3_16_003
00000000 r case_fold_hash1_16
00001140 r case_fold_hash1_32
00001000 r case_fold_hash2_16
00001100 r case_fold_hash3_16
00000070 t utf8codepoint
00000480 t utf8fromcodepoint

png.o:
00000000 a @feat.00
         U crc32
         U inflateReset
         U memcmp
         U memset
0000001f R png_IDAT
00000024 R png_IEND
0000001a R png_IHDR
00000029 R png_PLTE
000009a0 T png_access_version_number
0000002e R png_bKGD
00000033 R png_cHRM
00000150 T png_calculate_crc
00000090 T png_check_sig
000007f0 T png_convert_to_rfc1123
000001c0 r png_convert_to_rfc1123.short_months
000001a0 T png_create_info_struct
         U png_create_struct
         U png_create_struct_2
00000350 T png_data_freer
00000230 T png_destroy_info_struct
         U png_destroy_struct
         U png_destroy_struct_2
         U png_error
         U png_free
00000390 T png_free_data
00000038 R png_gAMA
00000900 T png_get_copyright
00000920 T png_get_header_ver
00000930 T png_get_header_version
000007d0 T png_get_io_ptr
00000910 T png_get_libpng_ver
0000003d R png_hIST
00000940 T png_handle_as_unknown
00000042 R png_iCCP
00000047 R png_iTXt
000002c0 T png_info_destroy
00000320 T png_info_init
000001f0 T png_info_init_3
000007e0 T png_init_io
000009b0 T png_init_mmx_flags
00000000 R png_libpng_ver
         U png_malloc
000009d0 T png_mmx_support
0000004c R png_oFFs
00000051 R png_pCAL
0000005b R png_pHYs
00000130 R png_pass_dsp_mask
000000b0 R png_pass_inc
00000110 R png_pass_mask
00000090 R png_pass_start
000000f0 R png_pass_yinc
000000d0 R png_pass_ystart
00000130 T png_reset_crc
00000990 T png_reset_zstream
00000060 R png_sBIT
00000056 R png_sCAL
00000065 R png_sPLT
0000006a R png_sRGB
00000000 T png_set_sig_bytes
00000012 R png_sig
00000040 T png_sig_cmp
0000006f R png_tEXt
00000074 R png_tIME
00000079 R png_tRNS
         U png_warning
0000007e R png_zTXt
000000d0 T png_zalloc
00000120 T png_zfree
         U sprintf

pngerror.o:
00000000 a @feat.00
         U __imp___acrt_iob_func
         U __imp_longjmp
         U fprintf
         U memcpy
000005a0 T png_chunk_error
000007a0 T png_chunk_warning
00000420 t png_default_warning
00000000 r png_digit
00000000 T png_error
000005d0 t png_format_buffer
000007f0 T png_get_error_ptr
000007d0 T png_set_error_fn
00000800 T png_set_strip_error_numbers
00000320 T png_warning
         U strncpy

pnggccrd.o:
00000000 a @feat.00

pngget.o:
00000000 a @feat.00
         U png_error
00000680 T png_get_IHDR
000009e0 T png_get_PLTE
00000bc0 T png_get_asm_flagmask
00000bb0 T png_get_asm_flags
00000320 T png_get_bKGD
000000a0 T png_get_bit_depth
00000350 T png_get_cHRM
00000440 T png_get_cHRM_fixed
000002e0 T png_get_channels
000000c0 T png_get_color_type
00000ba0 T png_get_compression_buffer_size
00000120 T png_get_compression_type
000000e0 T png_get_filter_type
00000500 T png_get_gAMA
00000540 T png_get_gAMA_fixed
00000640 T png_get_hIST
000005a0 T png_get_iCCP
00000080 T png_get_image_height
00000060 T png_get_image_width
00000100 T png_get_interlace_type
00000bf0 T png_get_mmx_bitdepth_threshold
00000bd0 T png_get_mmx_flagmask
00000c00 T png_get_mmx_rowbytes_threshold
000007f0 T png_get_oFFs
00000840 T png_get_pCAL
00000970 T png_get_pHYs
000001e0 T png_get_pixel_aspect_ratio
000001a0 T png_get_pixels_per_meter
00000b80 T png_get_rgb_to_gray_status
00000020 T png_get_rowbytes
00000040 T png_get_rows
00000a20 T png_get_sBIT
00000920 T png_get_sCAL
00000610 T png_get_sPLT
00000570 T png_get_sRGB
00000300 T png_get_signature
00000a90 T png_get_tIME
00000ac0 T png_get_tRNS
00000a50 T png_get_text
00000b50 T png_get_unknown_chunks
00000b90 T png_get_user_chunk_ptr
00000c20 T png_get_user_height_max
00000c10 T png_get_user_width_max
00000000 T png_get_valid
00000220 T png_get_x_offset_microns
00000280 T png_get_x_offset_pixels
00000140 T png_get_x_pixels_per_meter
00000250 T png_get_y_offset_microns
000002b0 T png_get_y_offset_pixels
00000170 T png_get_y_pixels_per_meter
         U png_warning

pngmem.o:
00000000 a @feat.00
         U calloc
         U free
         U malloc
         U memcpy
         U memset
00000000 T png_create_struct
00000030 T png_create_struct_2
000000b0 T png_destroy_struct
000000c0 T png_destroy_struct_2
         U png_error
00000190 T png_free
000001c0 T png_free_default
000002b0 T png_get_mem_ptr
00000100 T png_malloc
00000170 T png_malloc_default
000001e0 T png_malloc_warn
00000260 T png_memcpy_check
00000280 T png_memset_check
00000290 T png_set_mem_fn

pngpread.o:
00000000 R .refptr.png_IDAT
00000000 R .refptr.png_IEND
00000000 R .refptr.png_IHDR
00000000 R .refptr.png_PLTE
00000000 R .refptr.png_bKGD
00000000 R .refptr.png_cHRM
00000000 R .refptr.png_gAMA
00000000 R .refptr.png_hIST
00000000 R .refptr.png_iCCP
00000000 R .refptr.png_oFFs
00000000 R .refptr.png_pCAL
00000000 R .refptr.png_pHYs
00000000 R .refptr.png_pass_dsp_mask
00000000 R .refptr.png_pass_inc
00000000 R .refptr.png_pass_start
00000000 R .refptr.png_pass_yinc
00000000 R .refptr.png_pass_ystart
00000000 R .refptr.png_sBIT
00000000 R .refptr.png_sCAL
00000000 R .refptr.png_sPLT
00000000 R .refptr.png_sRGB
00000000 R .refptr.png_tEXt
00000000 R .refptr.png_tIME
00000000 R .refptr.png_tRNS
00000000 R .refptr.png_zTXt
00000000 a @feat.00
         U inflate
         U inflateReset
         U memcpy
         U png_IDAT
         U png_IEND
         U png_IHDR
         U png_PLTE
         U png_bKGD
         U png_cHRM
         U png_calculate_crc
         U png_check_chunk_name
         U png_chunk_error
         U png_combine_row
         U png_crc_finish
         U png_crc_read
         U png_do_read_interlace
         U png_do_read_transformations
         U png_error
         U png_free
         U png_gAMA
00002740 T png_get_progressive_ptr
         U png_get_uint_31
         U png_hIST
         U png_handle_IEND
         U png_handle_IHDR
         U png_handle_PLTE
         U png_handle_as_unknown
         U png_handle_bKGD
         U png_handle_cHRM
         U png_handle_gAMA
         U png_handle_hIST
         U png_handle_iCCP
         U png_handle_oFFs
         U png_handle_pCAL
         U png_handle_pHYs
         U png_handle_sBIT
         U png_handle_sCAL
         U png_handle_sPLT
         U png_handle_sRGB
         U png_handle_tIME
         U png_handle_tRNS
         U png_handle_unknown
         U png_iCCP
         U png_malloc
         U png_memcpy_check
         U png_memset_check
         U png_oFFs
         U png_pCAL
         U png_pHYs
         U png_pass_dsp_mask
         U png_pass_inc
         U png_pass_start
         U png_pass_yinc
         U png_pass_ystart
00001800 T png_process_IDAT_data
00000000 T png_process_data
00000090 T png_process_some_data
000026f0 T png_progressive_combine_row
00001150 T png_push_crc_finish
000017e0 T png_push_crc_skip
00001240 T png_push_fill_buffer
000015c0 T png_push_handle_tEXt
000016c0 T png_push_handle_unknown
00001640 T png_push_handle_zTXt
000015a0 T png_push_have_end
000015b0 T png_push_have_info
00002520 T png_push_have_row
00001920 T png_push_process_row
00000990 T png_push_read_IDAT
00000240 T png_push_read_chunk
000000e0 T png_push_read_sig
00000c50 T png_push_read_tEXt
00000d90 T png_push_read_zTXt
00000060 T png_push_restore_buffer
000012f0 T png_push_save_buffer
         U png_read_filter_row
00002540 T png_read_push_finish_row
         U png_reset_crc
         U png_sBIT
         U png_sCAL
         U png_sPLT
         U png_sRGB
00002710 T png_set_progressive_read_fn
         U png_set_read_fn
         U png_set_text_2
         U png_set_unknown_chunks
         U png_sig_cmp
         U png_tEXt
         U png_tIME
         U png_tRNS
         U png_warning
         U png_zTXt
         U strcpy

pngread.o:
00000000 R .refptr.png_IDAT
00000000 R .refptr.png_IEND
00000000 R .refptr.png_IHDR
00000000 R .refptr.png_PLTE
00000000 R .refptr.png_bKGD
00000000 R .refptr.png_cHRM
00000000 R .refptr.png_gAMA
00000000 R .refptr.png_hIST
00000000 R .refptr.png_iCCP
00000000 R .refptr.png_libpng_ver
00000000 R .refptr.png_oFFs
00000000 R .refptr.png_pCAL
00000000 R .refptr.png_pHYs
00000000 R .refptr.png_pass_dsp_mask
00000000 R .refptr.png_pass_mask
00000000 R .refptr.png_sBIT
00000000 R .refptr.png_sCAL
00000000 R .refptr.png_sPLT
00000000 R .refptr.png_sRGB
00000000 R .refptr.png_tEXt
00000000 R .refptr.png_tIME
00000000 R .refptr.png_tRNS
00000000 R .refptr.png_zTXt
00000000 a @feat.00
         U __intrinsic_setjmpex
         U abort
         U inflate
         U inflateEnd
         U inflateInit_
         U memcpy
         U memset
         U png_IDAT
         U png_IEND
         U png_IHDR
         U png_PLTE
         U png_bKGD
         U png_cHRM
         U png_combine_row
         U png_crc_finish
         U png_crc_read
00000000 T png_create_read_struct
00000020 T png_create_read_struct_2
         U png_create_struct
         U png_create_struct_2
00001520 T png_destroy_read_struct
         U png_destroy_struct
         U png_destroy_struct_2
         U png_do_read_interlace
         U png_do_read_intrapixel
         U png_do_read_transformations
         U png_error
         U png_free
         U png_free_data
         U png_gAMA
         U png_get_rowbytes
         U png_get_sBIT
         U png_get_uint_31
         U png_get_valid
         U png_hIST
         U png_handle_IEND
         U png_handle_IHDR
         U png_handle_PLTE
         U png_handle_as_unknown
         U png_handle_bKGD
         U png_handle_cHRM
         U png_handle_gAMA
         U png_handle_hIST
         U png_handle_iCCP
         U png_handle_oFFs
         U png_handle_pCAL
         U png_handle_pHYs
         U png_handle_sBIT
         U png_handle_sCAL
         U png_handle_sPLT
         U png_handle_sRGB
         U png_handle_tEXt
         U png_handle_tIME
         U png_handle_tRNS
         U png_handle_unknown
         U png_handle_zTXt
         U png_iCCP
         U png_info_destroy
         U png_init_mmx_flags
         U png_libpng_ver
         U png_malloc
         U png_memcpy_check
         U png_oFFs
         U png_pCAL
         U png_pHYs
         U png_pass_dsp_mask
         U png_pass_mask
         U png_read_data
00001610 T png_read_destroy
00001110 T png_read_end
         U png_read_filter_row
         U png_read_finish_row
00001090 T png_read_image
00000610 T png_read_info
000002b0 T png_read_init
00000380 T png_read_init_2
00000490 T png_read_init_3
00001910 T png_read_png
00000b00 T png_read_row
00000fd0 T png_read_rows
         U png_read_start_row
         U png_read_transform_info
00000ab0 T png_read_update_info
         U png_reset_crc
         U png_sBIT
         U png_sCAL
         U png_sPLT
         U png_sRGB
         U png_set_bgr
         U png_set_error_fn
         U png_set_expand
         U png_set_interlace_handling
         U png_set_invert_alpha
         U png_set_invert_mono
         U png_set_mem_fn
         U png_set_packswap
         U png_set_read_fn
00001900 T png_set_read_status_fn
         U png_set_shift
         U png_set_strip_16
         U png_set_strip_alpha
         U png_set_swap
         U png_set_swap_alpha
         U png_sig_cmp
00000af0 T png_start_read_image
         U png_tEXt
         U png_tIME
         U png_tRNS
         U png_warning
         U png_zTXt
         U png_zalloc
         U png_zfree
         U sprintf

pngrio.o:
00000000 a @feat.00
         U fread
00000020 T png_default_read_data
         U png_error
00000000 T png_read_data
00000070 T png_set_read_fn
         U png_warning

pngrtran.o:
00000000 a @feat.00
         U memset
00001c70 T png_build_gamma_table
00006b90 T png_build_grayscale_palette
00004280 T png_do_background
         U png_do_bgr
000058b0 T png_do_chop
00005980 T png_do_dither
00003290 T png_do_expand
00002e50 T png_do_expand_palette
00005250 T png_do_gamma
00003f40 T png_do_gray_to_rgb
         U png_do_invert
         U png_do_packswap
00006270 T png_do_read_filler
00006c10 T png_do_read_intrapixel
000067e0 T png_do_read_invert_alpha
00006910 T png_do_read_swap_alpha
000026c0 T png_do_read_transformations
000038d0 T png_do_rgb_to_gray
         U png_do_strip_filler
         U png_do_swap
00005ff0 T png_do_unpack
00005b60 T png_do_unshift
         U png_error
         U png_free
00000340 r png_gamma_shift
00001100 T png_init_read_transformations
         U png_malloc
         U png_malloc_warn
000024b0 T png_read_transform_info
000000d0 T png_set_background
00000000 T png_set_crc_action
00000180 T png_set_dither
00000ef0 T png_set_expand
00000ea0 T png_set_gamma
00000f10 T png_set_gray_1_2_4_to_8
00000f30 T png_set_gray_to_rgb
00000f00 T png_set_palette_to_rgb
000010f0 T png_set_read_user_transform_fn
00000f40 T png_set_rgb_to_gray
00001040 T png_set_rgb_to_gray_fixed
00000160 T png_set_strip_16
00000170 T png_set_strip_alpha
00000f20 T png_set_tRNS_to_alpha
         U png_warning
         U pow
         U sprintf

pngrutil.o:
00000000 R .refptr.png_IDAT
00000000 R .refptr.png_pass_inc
00000000 R .refptr.png_pass_start
00000000 R .refptr.png_pass_yinc
00000000 R .refptr.png_pass_ystart
00000000 a @feat.00
         U __imp___acrt_iob_func
         U fprintf
         U inflate
         U inflateReset
         U memcpy
         U png_IDAT
         U png_calculate_crc
00002b00 T png_check_chunk_name
         U png_chunk_error
         U png_chunk_warning
00002b80 T png_combine_row
000001c0 T png_crc_error
000000a0 T png_crc_finish
00000070 T png_crc_read
00000220 T png_decompress_chunk
00000000 d png_decompress_chunk.msg
00002f00 T png_do_read_interlace
         U png_error
         U png_free
00000050 T png_get_int_32
00000060 T png_get_uint_16
00000000 T png_get_uint_31
00000040 T png_get_uint_32
000009b0 T png_handle_IEND
00000600 T png_handle_IHDR
000007f0 T png_handle_PLTE
         U png_handle_as_unknown
00001bc0 T png_handle_bKGD
00000ce0 T png_handle_cHRM
00000a10 T png_handle_gAMA
00001da0 T png_handle_hIST
00001510 T png_handle_iCCP
00001fc0 T png_handle_oFFs
000020a0 T png_handle_pCAL
00001ee0 T png_handle_pHYs
00000b80 T png_handle_sBIT
00002350 T png_handle_sCAL
000016f0 T png_handle_sPLT
00001320 T png_handle_sRGB
000025e0 T png_handle_tEXt
000024f0 T png_handle_tIME
00001980 T png_handle_tRNS
00002930 T png_handle_unknown
00002750 T png_handle_zTXt
         U png_init_read_transformations
         U png_malloc
         U png_malloc_warn
         U png_memset_check
         U png_pass_inc
         U png_pass_start
         U png_pass_yinc
         U png_pass_ystart
         U png_read_data
00003630 T png_read_filter_row
00004510 T png_read_finish_row
000048a0 T png_read_start_row
         U png_reset_crc
         U png_set_IHDR
         U png_set_PLTE
         U png_set_bKGD
         U png_set_cHRM
         U png_set_cHRM_fixed
         U png_set_gAMA
         U png_set_gAMA_fixed
         U png_set_hIST
         U png_set_iCCP
         U png_set_oFFs
         U png_set_pCAL
         U png_set_pHYs
         U png_set_sBIT
         U png_set_sCAL
         U png_set_sPLT
         U png_set_sRGB_gAMA_and_cHRM
         U png_set_tIME
         U png_set_tRNS
         U png_set_text_2
         U png_set_unknown_chunks
         U png_warning
         U sprintf
         U strcpy
         U strlen
         U strtod

pngset.o:
00000000 a @feat.00
         U memcpy
         U memset
         U png_error
         U png_free
         U png_free_data
         U png_malloc
         U png_malloc_warn
000012d0 T png_permit_empty_plte
000012f0 T png_permit_mng_features
000004f0 T png_set_IHDR
00000a10 T png_set_PLTE
00001570 T png_set_asm_flags
00000000 T png_set_bKGD
00000030 T png_set_cHRM
000001c0 T png_set_cHRM_fixed
000014f0 T png_set_compression_buffer_size
00000320 T png_set_gAMA
000003c0 T png_set_gAMA_fixed
00000440 T png_set_hIST
00000b70 T png_set_iCCP
00001550 T png_set_invalid
00001310 T png_set_keep_unknown_chunks
00001580 T png_set_mmx_thresholds
00000790 T png_set_oFFs
000007c0 T png_set_pCAL
000009e0 T png_set_pHYs
00001470 T png_set_read_user_chunk_fn
00001480 T png_set_rows
00000ab0 T png_set_sBIT
000009a0 T png_set_sCAL
00000fc0 T png_set_sPLT
00000ae0 T png_set_sRGB
00000b00 T png_set_sRGB_gAMA_and_cHRM
00000ef0 T png_set_tIME
00000f20 T png_set_tRNS
00000cb0 T png_set_text
00000ce0 T png_set_text_2
00001290 T png_set_unknown_chunk_location
00001110 T png_set_unknown_chunks
00001590 T png_set_user_limits
         U png_warning
         U strcpy
         U strlen
         U strncpy

pngtrans.o:
00000000 a @feat.00
00000220 r fourbppswaptable
00000020 r onebppswaptable
00000c30 T png_do_bgr
000001b0 T png_do_invert
000003b0 T png_do_packswap
00000420 T png_do_strip_filler
00000340 T png_do_swap
00000e80 T png_get_user_transform_ptr
00000110 T png_set_add_alpha
00000000 T png_set_bgr
000000b0 T png_set_filler
00000090 T png_set_interlace_handling
00000190 T png_set_invert_alpha
000001a0 T png_set_invert_mono
00000030 T png_set_packing
00000050 T png_set_packswap
00000070 T png_set_shift
00000010 T png_set_swap
00000180 T png_set_swap_alpha
00000e60 T png_set_user_transform_info
00000120 r twobppswaptable

pngvcrd.o:
00000000 a @feat.00

pngwio.o:
00000000 a @feat.00
         U fflush
         U fwrite
00000080 T png_default_flush
00000020 T png_default_write_data
         U png_error
00000070 T png_flush
000000a0 T png_set_write_fn
         U png_warning
00000000 T png_write_data

pngwrite.o:
00000000 R .refptr.png_libpng_ver
00000000 a @feat.00
         U __intrinsic_setjmpex
         U _gmtime64
         U abort
         U deflate
         U deflateEnd
         U memcpy
         U memset
00000780 T png_convert_from_struct_tm
000007b0 T png_convert_from_time_t
         U png_create_struct
         U png_create_struct_2
00000800 T png_create_write_struct
00000820 T png_create_write_struct_2
         U png_destroy_struct
         U png_destroy_struct_2
00001870 T png_destroy_write_struct
         U png_do_write_interlace
         U png_do_write_intrapixel
         U png_do_write_transformations
         U png_error
         U png_flush
         U png_free
         U png_free_data
         U png_handle_as_unknown
         U png_init_mmx_flags
         U png_libpng_ver
         U png_malloc
         U png_memcpy_check
         U png_set_bgr
00001d00 T png_set_compression_level
00001d10 T png_set_compression_mem_level
00001d90 T png_set_compression_method
00001d20 T png_set_compression_strategy
00001d30 T png_set_compression_window_bits
         U png_set_error_fn
         U png_set_filler
00001a90 T png_set_filter
00000ac0 T png_set_filter_heuristics
00001770 T png_set_flush
         U png_set_interlace_handling
         U png_set_invert_alpha
         U png_set_invert_mono
         U png_set_mem_fn
         U png_set_packing
         U png_set_packswap
         U png_set_shift
         U png_set_swap
         U png_set_swap_alpha
         U png_set_write_fn
00001dd0 T png_set_write_status_fn
00001de0 T png_set_write_user_transform_fn
         U png_warning
         U png_write_IDAT
         U png_write_IEND
         U png_write_IHDR
         U png_write_PLTE
         U png_write_bKGD
         U png_write_cHRM
         U png_write_chunk
00001940 T png_write_destroy
000005f0 T png_write_end
         U png_write_find_filter
         U png_write_finish_row
00001780 T png_write_flush
         U png_write_gAMA
         U png_write_hIST
         U png_write_iCCP
000016f0 T png_write_image
00000260 T png_write_info
00000000 T png_write_info_before_PLTE
000010b0 T png_write_init
00001180 T png_write_init_2
00001290 T png_write_init_3
         U png_write_oFFs
         U png_write_pCAL
         U png_write_pHYs
00001df0 T png_write_png
00001490 T png_write_row
00001450 T png_write_rows
         U png_write_sBIT
         U png_write_sCAL
         U png_write_sPLT
         U png_write_sRGB
         U png_write_sig
         U png_write_start_row
         U png_write_tEXt
         U png_write_tIME
         U png_write_tRNS
         U png_write_zTXt
         U sprintf

pngwtran.o:
00000000 a @feat.00
         U memset
         U png_do_bgr
         U png_do_invert
00000360 T png_do_pack
         U png_do_packswap
000005c0 T png_do_shift
         U png_do_strip_filler
         U png_do_swap
00000ba0 T png_do_write_intrapixel
00000830 T png_do_write_invert_alpha
00000960 T png_do_write_swap_alpha
00000000 T png_do_write_transformations

pngwutil.o:
00000000 R .refptr.png_IDAT
00000000 R .refptr.png_IEND
00000000 R .refptr.png_IHDR
00000000 R .refptr.png_PLTE
00000000 R .refptr.png_bKGD
00000000 R .refptr.png_cHRM
00000000 R .refptr.png_gAMA
00000000 R .refptr.png_hIST
00000000 R .refptr.png_iCCP
00000000 R .refptr.png_oFFs
00000000 R .refptr.png_pCAL
00000000 R .refptr.png_pHYs
00000000 R .refptr.png_pass_inc
00000000 R .refptr.png_pass_start
00000000 R .refptr.png_pass_yinc
00000000 R .refptr.png_pass_ystart
00000000 R .refptr.png_sBIT
00000000 R .refptr.png_sCAL
00000000 R .refptr.png_sPLT
00000000 R .refptr.png_sRGB
00000000 R .refptr.png_tEXt
00000000 R .refptr.png_tIME
00000000 R .refptr.png_tRNS
00000000 R .refptr.png_zTXt
00000000 a @feat.00
         U __imp___acrt_iob_func
         U deflate
         U deflateInit2_
         U deflateReset
         U fprintf
         U memcpy
         U memset
         U png_IDAT
         U png_IEND
         U png_IHDR
         U png_PLTE
         U png_bKGD
         U png_cHRM
         U png_calculate_crc
00000d20 T png_check_keyword
00003430 T png_do_write_interlace
         U png_error
         U png_free
         U png_gAMA
         U png_hIST
         U png_iCCP
         U png_malloc
         U png_malloc_warn
         U png_oFFs
         U png_pCAL
         U png_pHYs
         U png_pass_inc
         U png_pass_start
         U png_pass_yinc
         U png_pass_ystart
         U png_reset_crc
         U png_sBIT
         U png_sCAL
         U png_sPLT
         U png_sRGB
00000010 T png_save_int_32
00000020 T png_save_uint_16
00000000 T png_save_uint_32
         U png_tEXt
         U png_tIME
         U png_tRNS
00000f80 t png_text_compress
         U png_warning
000007c0 T png_write_IDAT
00000910 T png_write_IEND
00000210 T png_write_IHDR
00000670 T png_write_PLTE
00001fe0 T png_write_bKGD
000016f0 T png_write_cHRM
00001b00 T png_write_cHRM_fixed
00000030 T png_write_chunk
00000140 T png_write_chunk_data
00000190 T png_write_chunk_end
000000e0 T png_write_chunk_start
00001250 t png_write_compressed_data_out
         U png_write_data
00005f90 T png_write_filtered_row
00003900 T png_write_find_filter
00002f60 T png_write_finish_row
         U png_write_flush
00000990 T png_write_gAMA
00000a50 T png_write_gAMA_fixed
00002240 T png_write_hIST
00000bc0 T png_write_iCCP
00002660 T png_write_oFFs
00002760 T png_write_pCAL
00002b60 T png_write_pHYs
000015e0 T png_write_sBIT
000029f0 T png_write_sCAL
000013a0 T png_write_sPLT
00000b00 T png_write_sRGB
000001c0 T png_write_sig
00002d70 T png_write_start_row
00002350 T png_write_tEXt
00002c60 T png_write_tIME
00001dd0 T png_write_tRNS
00002490 T png_write_zTXt
         U png_zTXt
         U png_zalloc
         U png_zfree
         U sprintf
         U strlen

SDL.o:
00000000 a @feat.00
         U SDL_AssertionsQuit
         U SDL_AudioInit_REAL
         U SDL_AudioQuit_REAL
         U SDL_ClearError_REAL
         U SDL_ClearHints_REAL
         U SDL_EventsInit
         U SDL_EventsQuit
00000000 T SDL_ExitProcess
         U SDL_GameControllerInit
         U SDL_GameControllerQuit
         U SDL_GetHintBoolean_REAL
000005f0 T SDL_GetPlatform_REAL
000005e0 T SDL_GetRevisionNumber_REAL
000005d0 T SDL_GetRevision_REAL
00000560 T SDL_GetVersion_REAL
00000024 b SDL_GetVersion_REAL.check_hint
00000028 b SDL_GetVersion_REAL.legacy_version
         U SDL_HapticInit
         U SDL_HapticQuit
         U SDL_HelperWindowCreate
         U SDL_HelperWindowDestroy
00000040 T SDL_InitSubSystem_REAL
00000420 T SDL_Init_REAL
00000600 T SDL_IsTablet_REAL
         U SDL_JoystickInit
         U SDL_JoystickQuit
         U SDL_LogInit
         U SDL_LogQuit
00000230 T SDL_QuitSubSystem_REAL
00000500 T SDL_Quit_REAL
         U SDL_SensorInit
         U SDL_SensorQuit
00000030 T SDL_SetMainReady_REAL
00000000 b SDL_SubsystemRefCount
         U SDL_TLSCleanup_REAL
         U SDL_TicksInit
         U SDL_TicksQuit
         U SDL_TimerInit
         U SDL_TimerQuit
         U SDL_VideoInit_REAL
         U SDL_VideoQuit_REAL
00000430 T SDL_WasInit_REAL
00000020 b SDL_bInMainQuit
         U SDL_memset_REAL
00000610 T _DllMainCRTStartup
         U __imp_ExitProcess
         U __imp_GetCurrentProcess
         U __imp_TerminateProcess

SDL_assert.o:
00000000 a @feat.00
00000120 t SDL_AbortAssertion
00000140 T SDL_AssertionsQuit
         U SDL_AtomicLock_REAL
         U SDL_AtomicUnlock_REAL
         U SDL_CreateMutex_REAL
         U SDL_DestroyMutex_REAL
         U SDL_ExitProcess
000005d0 T SDL_GetAssertionHandler_REAL
00000570 T SDL_GetAssertionReport_REAL
000005c0 T SDL_GetDefaultAssertionHandler_REAL
         U SDL_GetFocusWindow
         U SDL_GetWindowFlags_REAL
         U SDL_LockMutex_REAL
         U SDL_LogMessageV_REAL
         U SDL_MinimizeWindow_REAL
000002a0 t SDL_PromptAssertion
         U SDL_Quit_REAL
00000000 T SDL_ReportAssertion_REAL
00000000 b SDL_ReportAssertion_REAL.assertion_running
00000004 b SDL_ReportAssertion_REAL.spinlock
00000580 T SDL_ResetAssertionReport_REAL
         U SDL_RestoreWindow_REAL
00000270 T SDL_SetAssertionHandler_REAL
         U SDL_ShowMessageBox_REAL
         U SDL_UnlockMutex_REAL
         U SDL_free_REAL
         U SDL_getenv_REAL
         U SDL_malloc_REAL
         U SDL_memset_REAL
         U SDL_snprintf_REAL
         U SDL_strcmp_REAL
00000000 d assertion_handler
00000008 b assertion_mutex
00000010 b assertion_userdata
000005f0 t debug_print
00000018 b triggered_assertions

SDL_atomic.o:
00000000 a @feat.00
00000040 T SDL_AtomicAdd_REAL
00000010 T SDL_AtomicCASPtr_REAL
00000000 T SDL_AtomicCAS_REAL
00000060 T SDL_AtomicGetPtr_REAL
00000050 T SDL_AtomicGet_REAL
00000030 T SDL_AtomicSetPtr_REAL
00000020 T SDL_AtomicSet_REAL
00000080 T SDL_MemoryBarrierAcquireFunction_REAL
00000070 T SDL_MemoryBarrierReleaseFunction_REAL

SDL_audio.o:
00000000 R .refptr.DISKAUDIO_bootstrap
00000000 R .refptr.DSOUND_bootstrap
00000000 R .refptr.DUMMYAUDIO_bootstrap
00000000 R .refptr.WASAPI_bootstrap
00000000 R .refptr.WINMM_bootstrap
00000000 a @feat.00
         U DISKAUDIO_bootstrap
         U DSOUND_bootstrap
         U DUMMYAUDIO_bootstrap
00000000 T SDL_AddAudioDevice
         U SDL_AtomicGet_REAL
         U SDL_AtomicSet_REAL
000028e0 t SDL_AudioCaptureFromDevice_Default
00002900 t SDL_AudioCloseDevice_Default
00002980 t SDL_AudioDeinitialize_Default
00002780 t SDL_AudioDetectDevices_Default
000028f0 t SDL_AudioFlushCapture_Default
00002970 t SDL_AudioFreeDeviceHandle_Default
000028d0 t SDL_AudioGetDeviceBuf_Default
00000670 T SDL_AudioInit_REAL
00002910 t SDL_AudioLockDevice_Default
00002880 t SDL_AudioOpenDevice_Default
000028c0 t SDL_AudioPlayDevice_Default
00000d30 T SDL_AudioQuit_REAL
         U SDL_AudioStreamAvailable_REAL
         U SDL_AudioStreamClear_REAL
         U SDL_AudioStreamGet_REAL
         U SDL_AudioStreamPut_REAL
000028a0 t SDL_AudioThreadDeinit_Default
00002890 t SDL_AudioThreadInit_Default
00002940 t SDL_AudioUnlockDevice_Default
000028b0 t SDL_AudioWaitDevice_Default
00000470 t SDL_BufferQueueDrainCallback
00000550 t SDL_BufferQueueFillCallback
00002590 T SDL_CalculateAudioSpec
00002990 t SDL_CaptureAudio
         U SDL_ClearDataQueue
000005e0 T SDL_ClearQueuedAudio_REAL
00002300 T SDL_CloseAudioDevice_REAL
00002410 T SDL_CloseAudio_REAL
         U SDL_CountDataQueue
         U SDL_CreateMutex_REAL
         U SDL_CreateThreadInternal
         U SDL_Delay_REAL
000004c0 T SDL_DequeueAudio_REAL
         U SDL_DestroyMutex_REAL
         U SDL_Error_REAL
         U SDL_EventState_REAL
00002440 T SDL_FirstAudioFormat
         U SDL_FreeAudioStream_REAL
         U SDL_FreeDataQueue
000010e0 T SDL_GetAudioDeviceName_REAL
000011f0 T SDL_GetAudioDeviceSpec_REAL
000020b0 T SDL_GetAudioDeviceStatus_REAL
00000650 T SDL_GetAudioDriver_REAL
00002110 T SDL_GetAudioStatus_REAL
00000d20 T SDL_GetCurrentAudioDriver_REAL
00001330 T SDL_GetDefaultAudioInfo_REAL
         U SDL_GetHint_REAL
00000f40 T SDL_GetNumAudioDevices_REAL
00000640 T SDL_GetNumAudioDrivers_REAL
00000560 T SDL_GetQueuedAudioSize_REAL
         U SDL_InitSubSystem_REAL
00002220 T SDL_LockAudioDevice_REAL
00002260 T SDL_LockAudio_REAL
         U SDL_LockMutex_REAL
         U SDL_MixAudioFormat_REAL
000025d0 T SDL_MixAudio_REAL
         U SDL_NewAudioStream_REAL
         U SDL_NewDataQueue
00002520 T SDL_NextAudioFormat
00002090 T SDL_OpenAudioDevice_REAL
00001390 T SDL_OpenAudio_REAL
000000a0 T SDL_OpenedAudioDeviceDisconnected
00002160 T SDL_PauseAudioDevice_REAL
000021c0 T SDL_PauseAudio_REAL
         U SDL_PushEvent_REAL
000003c0 T SDL_QueueAudio_REAL
         U SDL_ReadFromDataQueue
00000140 T SDL_RemoveAudioDevice
00002bf0 t SDL_RunAudio
         U SDL_SetError_REAL
         U SDL_SetThreadPriority_REAL
00002570 T SDL_SilenceValueForFormat
         U SDL_ThreadID_REAL
00002290 T SDL_UnlockAudioDevice_REAL
000022d0 T SDL_UnlockAudio_REAL
         U SDL_UnlockMutex_REAL
         U SDL_WaitThread_REAL
         U SDL_WasInit_REAL
         U SDL_WriteToDataQueue
         U SDL_atoi_REAL
         U SDL_calloc_REAL
         U SDL_free_REAL
         U SDL_getenv_REAL
         U SDL_malloc_REAL
         U SDL_memcpy_REAL
         U SDL_memset_REAL
         U SDL_powerof2
         U SDL_snprintf_REAL
         U SDL_strchr_REAL
         U SDL_strcmp_REAL
         U SDL_strdup_REAL
         U SDL_strlen_REAL
         U SDL_strncasecmp_REAL
         U WASAPI_bootstrap
         U WINMM_bootstrap
00002610 t add_audio_device
00000070 r bootstrap
00002340 t close_audio_device
00000000 b current_audio
00000150 b format_idx
00000154 b format_idx_sub
00000170 r format_list
00001460 t open_audio_device
000000d0 b open_devices

SDL_audiocvt.o:
00000000 R .refptr.SDL_Convert_F32_to_S16
00000000 R .refptr.SDL_Convert_F32_to_S32
00000000 R .refptr.SDL_Convert_F32_to_S8
00000000 R .refptr.SDL_Convert_F32_to_U16
00000000 R .refptr.SDL_Convert_F32_to_U8
00000000 R .refptr.SDL_Convert_S16_to_F32
00000000 R .refptr.SDL_Convert_S32_to_F32
00000000 R .refptr.SDL_Convert_S8_to_F32
00000000 R .refptr.SDL_Convert_U16_to_F32
00000000 R .refptr.SDL_Convert_U8_to_F32
00000000 a @feat.00
00000750 r ResamplerFilter
00002f60 r ResamplerFilterDifference
00001ba0 T SDL_AudioStreamAvailable_REAL
00001bd0 T SDL_AudioStreamClear_REAL
000019f0 T SDL_AudioStreamFlush_REAL
00001b10 T SDL_AudioStreamGet_REAL
00001750 t SDL_AudioStreamPutInternal
000015e0 T SDL_AudioStreamPut_REAL
00000040 T SDL_BuildAudioCVT_REAL
00000de0 t SDL_BuildAudioResampleCVT
00000f30 t SDL_BuildAudioTypeCVTFromFloat
00000770 t SDL_BuildAudioTypeCVTToFloat
         U SDL_ChooseAudioConverters
000015d0 t SDL_CleanupAudioStreamResampler
         U SDL_ClearDataQueue
00002fc0 t SDL_Convert21To41
000030f0 t SDL_Convert21To51
00003240 t SDL_Convert21To61
000033b0 t SDL_Convert21To71
00002c20 t SDL_Convert21ToMono
00002ef0 t SDL_Convert21ToQuad
00002d90 t SDL_Convert21ToStereo
000040e0 t SDL_Convert41To21
000042c0 t SDL_Convert41To51
00004440 t SDL_Convert41To61
00004540 t SDL_Convert41To71
00003d60 t SDL_Convert41ToMono
000041e0 t SDL_Convert41ToQuad
00003f90 t SDL_Convert41ToStereo
00004a90 t SDL_Convert51To21
00004ce0 t SDL_Convert51To41
00004dc0 t SDL_Convert51To61
00004ec0 t SDL_Convert51To71
000046c0 t SDL_Convert51ToMono
00004be0 t SDL_Convert51ToQuad
00004900 t SDL_Convert51ToStereo
00005460 t SDL_Convert61To21
000057b0 t SDL_Convert61To41
000058f0 t SDL_Convert61To51
00005a30 t SDL_Convert61To71
00004f90 t SDL_Convert61ToMono
000055e0 t SDL_Convert61ToQuad
000052a0 t SDL_Convert61ToStereo
00006030 t SDL_Convert71To21
000063b0 t SDL_Convert71To41
00006500 t SDL_Convert71To51
00006620 t SDL_Convert71To61
00005b10 t SDL_Convert71ToMono
00006200 t SDL_Convert71ToQuad
00005e10 t SDL_Convert71ToStereo
00000000 T SDL_ConvertAudio_REAL
00001c40 t SDL_ConvertMonoTo21
00001ed0 t SDL_ConvertMonoTo41
00002030 t SDL_ConvertMonoTo51
00002150 t SDL_ConvertMonoTo61
000022a0 t SDL_ConvertMonoTo71
00001d80 t SDL_ConvertMonoToQuad
00000aa0 t SDL_ConvertMonoToStereo
00000bc0 t SDL_ConvertMonoToStereo_SSE
00003790 t SDL_ConvertQuadTo21
00003880 t SDL_ConvertQuadTo41
000039c0 t SDL_ConvertQuadTo51
00003b10 t SDL_ConvertQuadTo61
00003bf0 t SDL_ConvertQuadTo71
000034f0 t SDL_ConvertQuadToMono
000036b0 t SDL_ConvertQuadToStereo
00002420 t SDL_ConvertStereoTo21
000026c0 t SDL_ConvertStereoTo41
000027d0 t SDL_ConvertStereoTo51
00002910 t SDL_ConvertStereoTo61
00002a90 t SDL_ConvertStereoTo71
00000960 t SDL_ConvertStereoToMono
00002560 t SDL_ConvertStereoToQuad
000004a0 t SDL_Convert_Byteswap
         U SDL_Convert_F32_to_S16
         U SDL_Convert_F32_to_S32
         U SDL_Convert_F32_to_S8
         U SDL_Convert_F32_to_U16
         U SDL_Convert_F32_to_U8
         U SDL_Convert_S16_to_F32
         U SDL_Convert_S32_to_F32
         U SDL_Convert_S8_to_F32
         U SDL_Convert_U16_to_F32
         U SDL_Convert_U8_to_F32
         U SDL_CountDataQueue
         U SDL_Error_REAL
000014a0 T SDL_FreeAudioStream_REAL
         U SDL_FreeDataQueue
         U SDL_HasSSE_REAL
00001110 T SDL_NewAudioStream_REAL
         U SDL_NewDataQueue
         U SDL_ReadFromDataQueue
000068d0 t SDL_ResampleAudio
00001510 t SDL_ResampleAudioStream
000067a0 t SDL_ResampleCVT
00006750 t SDL_ResampleCVT_c1
00006760 t SDL_ResampleCVT_c2
00006770 t SDL_ResampleCVT_c4
00006780 t SDL_ResampleCVT_c6
00006790 t SDL_ResampleCVT_c8
000015b0 t SDL_ResetAudioStreamResampler
         U SDL_SetError_REAL
         U SDL_WriteToDataQueue
         U SDL_calloc_REAL
         U SDL_ceil_REAL
         U SDL_free_REAL
         U SDL_malloc_REAL
         U SDL_memcpy_REAL
         U SDL_memmove_REAL
         U SDL_memset_REAL
         U SDL_realloc_REAL
00000430 r channel_converters
         U memset

SDL_audiodev.o:
00000000 a @feat.00

SDL_audiotypecvt.o:
00000000 a @feat.00
00000000 T SDL_ChooseAudioConverters
00000050 b SDL_ChooseAudioConverters.converters_chosen
00000038 B SDL_Convert_F32_to_S16
000019c0 t SDL_Convert_F32_to_S16_SSE2
00000048 B SDL_Convert_F32_to_S32
00002010 t SDL_Convert_F32_to_S32_SSE2
00000028 B SDL_Convert_F32_to_S8
00000f10 t SDL_Convert_F32_to_S8_SSE2
00000040 B SDL_Convert_F32_to_U16
00001d80 t SDL_Convert_F32_to_U16_SSE2
00000030 B SDL_Convert_F32_to_U8
00001470 t SDL_Convert_F32_to_U8_SSE2
00000010 B SDL_Convert_S16_to_F32
00000830 t SDL_Convert_S16_to_F32_SSE2
00000020 B SDL_Convert_S32_to_F32
00000ca0 t SDL_Convert_S32_to_F32_SSE2
00000000 B SDL_Convert_S8_to_F32
000000c0 t SDL_Convert_S8_to_F32_SSE2
00000018 B SDL_Convert_U16_to_F32
00000a60 t SDL_Convert_U16_to_F32_SSE2
00000008 B SDL_Convert_U8_to_F32
00000430 t SDL_Convert_U8_to_F32_SSE2
         U SDL_HasSSE2_REAL

SDL_blendfillrect.o:
00000000 R .refptr.SDL_expand_byte
00000000 a @feat.00
00000000 T SDL_BlendFillRect
00002650 t SDL_BlendFillRect_ARGB8888
00003170 t SDL_BlendFillRect_RGB
000001d0 t SDL_BlendFillRect_RGB555
00000f00 t SDL_BlendFillRect_RGB565
00001c20 t SDL_BlendFillRect_RGB888
00005f10 t SDL_BlendFillRect_RGBA
00007ad0 T SDL_BlendFillRects
         U SDL_Error_REAL
         U SDL_IntersectRect_REAL
         U SDL_SetError_REAL
         U SDL_expand_byte

SDL_blendline.o:
00000000 R .refptr.SDL_expand_byte
00000000 a @feat.00
00000000 T SDL_BlendLine
00005a90 t SDL_BlendLine_ARGB8888
00003760 t SDL_BlendLine_RGB2
0000be10 t SDL_BlendLine_RGB4
00000370 t SDL_BlendLine_RGB555
00001d50 t SDL_BlendLine_RGB565
000079b0 t SDL_BlendLine_RGB888
00009690 t SDL_BlendLine_RGBA4
00000150 T SDL_BlendLines
         U SDL_BlendPoint
         U SDL_IntersectRectAndLine_REAL
         U SDL_SetError_REAL
         U SDL_expand_byte

SDL_blendpoint.o:
00000000 R .refptr.SDL_expand_byte
00000000 a @feat.00
00000000 T SDL_BlendPoint
000009c0 t SDL_BlendPoint_ARGB8888
00000c50 t SDL_BlendPoint_RGB
000001c0 t SDL_BlendPoint_RGB555
00000490 t SDL_BlendPoint_RGB565
00000780 t SDL_BlendPoint_RGB888
000014c0 t SDL_BlendPoint_RGBA
00001ac0 T SDL_BlendPoints
         U SDL_Error_REAL
         U SDL_SetError_REAL
         U SDL_expand_byte

SDL_blit.o:
00000000 R .refptr.SDL_GeneratedBlitFuncTable
00000000 a @feat.00
         U SDL_BlitCopy
         U SDL_Blit_Slow
00000000 T SDL_CalculateBlit
         U SDL_CalculateBlit0
         U SDL_CalculateBlit1
         U SDL_CalculateBlitA
         U SDL_CalculateBlitN
00000000 d SDL_ChooseBlitFunc.features
         U SDL_GeneratedBlitFuncTable
         U SDL_Has3DNow_REAL
         U SDL_HasAltiVec_REAL
         U SDL_HasMMX_REAL
         U SDL_HasSSE2_REAL
         U SDL_HasSSE_REAL
         U SDL_InvalidateMap
         U SDL_LockSurface_REAL
         U SDL_RLESurface
         U SDL_SetError_REAL
000002e0 t SDL_SoftBlit
         U SDL_UnRLESurface
         U SDL_UnlockSurface_REAL
         U SDL_getenv_REAL
         U SDL_sscanf_REAL

SDL_blit_0.o:
00000000 R .refptr.SDL_expand_byte
00000000 a @feat.00
000000d0 t Blit4bto4
000001a0 t Blit4bto4Key
00001130 t BlitBto1
000019c0 t BlitBto1Key
000014c0 t BlitBto2
00001cc0 t BlitBto2Key
000016b0 t BlitBto3
00001e00 t BlitBto3Key
000017f0 t BlitBto4
00001f60 t BlitBto4Key
00000260 t BlitBtoNAlpha
000009e0 t BlitBtoNAlphaKey
00000000 T SDL_CalculateBlit0
         U SDL_expand_byte
         U SDL_memcpy_REAL
00000080 r bitmap_blit
000000b0 r colorkey_blit

SDL_blit_1.o:
00000000 R .refptr.SDL_expand_byte
00000000 a @feat.00
00002690 t Blit1to1
00002b90 t Blit1to1Key
000027a0 t Blit1to2
00002df0 t Blit1to2Key
000028c0 t Blit1to3
00002f60 t Blit1to3Key
00002a70 t Blit1to4
00003160 t Blit1to4Key
000000a0 t Blit1toNAlpha
00000d70 t Blit1toNAlphaKey
00000000 T SDL_CalculateBlit1
         U SDL_expand_byte
000002d0 r one_blit
00000300 r one_blitkey

SDL_blit_A.o:
00000000 R .refptr.SDL_expand_byte
00000000 a @feat.00
00007230 t Blit16to16SurfaceAlpha128
00004a90 t Blit555to555SurfaceAlpha
00004710 t Blit555to555SurfaceAlphaMMX
00004520 t Blit565to565SurfaceAlpha
00004210 t Blit565to565SurfaceAlphaMMX
00001eb0 t BlitARGBto555PixelAlpha
00001b80 t BlitARGBto565PixelAlpha
000002f0 t BlitNto1PixelAlpha
00002ac0 t BlitNto1SurfaceAlpha
000053a0 t BlitNto1SurfaceAlphaKey
00000ab0 t BlitNtoNPixelAlpha
000031c0 t BlitNtoNSurfaceAlpha
000061d0 t BlitNtoNSurfaceAlphaKey
00002750 t BlitRGBtoBGRPixelAlpha
00002460 t BlitRGBtoRGBPixelAlpha
000021e0 t BlitRGBtoRGBPixelAlphaMMX
00005040 t BlitRGBtoRGBSurfaceAlpha
00004c80 t BlitRGBtoRGBSurfaceAlphaMMX
00000000 T SDL_CalculateBlitA
         U SDL_HasMMX_REAL
         U SDL_expand_byte

SDL_blit_auto.o:
00000000 a @feat.00
00010160 t SDL_Blit_ABGR8888_ARGB8888_Blend
00010420 t SDL_Blit_ABGR8888_ARGB8888_Blend_Scale
000106e0 t SDL_Blit_ABGR8888_ARGB8888_Modulate
00011070 t SDL_Blit_ABGR8888_ARGB8888_Modulate_Blend
00011390 t SDL_Blit_ABGR8888_ARGB8888_Modulate_Blend_Scale
00010e00 t SDL_Blit_ABGR8888_ARGB8888_Modulate_Scale
00010080 t SDL_Blit_ABGR8888_ARGB8888_Scale
0000ef30 t SDL_Blit_ABGR8888_BGR888_Blend
0000f1b0 t SDL_Blit_ABGR8888_BGR888_Blend_Scale
0000f450 t SDL_Blit_ABGR8888_BGR888_Modulate
0000fa70 t SDL_Blit_ABGR8888_BGR888_Modulate_Blend
0000fd70 t SDL_Blit_ABGR8888_BGR888_Modulate_Blend_Scale
0000f840 t SDL_Blit_ABGR8888_BGR888_Modulate_Scale
0000ede0 t SDL_Blit_ABGR8888_BGR888_Scale
0000dc80 t SDL_Blit_ABGR8888_RGB888_Blend
0000df00 t SDL_Blit_ABGR8888_RGB888_Blend_Scale
0000e1a0 t SDL_Blit_ABGR8888_RGB888_Modulate
0000e7c0 t SDL_Blit_ABGR8888_RGB888_Modulate_Blend
0000eac0 t SDL_Blit_ABGR8888_RGB888_Modulate_Blend_Scale
0000e630 t SDL_Blit_ABGR8888_RGB888_Modulate_Scale
0000dba0 t SDL_Blit_ABGR8888_RGB888_Scale
00008a50 t SDL_Blit_ARGB8888_ARGB8888_Blend
00008d10 t SDL_Blit_ARGB8888_ARGB8888_Blend_Scale
00008fd0 t SDL_Blit_ARGB8888_ARGB8888_Modulate
00009970 t SDL_Blit_ARGB8888_ARGB8888_Modulate_Blend
00009c90 t SDL_Blit_ARGB8888_ARGB8888_Modulate_Blend_Scale
000096b0 t SDL_Blit_ARGB8888_ARGB8888_Modulate_Scale
00008920 t SDL_Blit_ARGB8888_ARGB8888_Scale
000077f0 t SDL_Blit_ARGB8888_BGR888_Blend
00007a70 t SDL_Blit_ARGB8888_BGR888_Blend_Scale
00007d10 t SDL_Blit_ARGB8888_BGR888_Modulate
00008310 t SDL_Blit_ARGB8888_BGR888_Modulate_Blend
00008610 t SDL_Blit_ARGB8888_BGR888_Modulate_Blend_Scale
00008180 t SDL_Blit_ARGB8888_BGR888_Modulate_Scale
00007710 t SDL_Blit_ARGB8888_BGR888_Scale
000065b0 t SDL_Blit_ARGB8888_RGB888_Blend
00006830 t SDL_Blit_ARGB8888_RGB888_Blend_Scale
00006ad0 t SDL_Blit_ARGB8888_RGB888_Modulate
000070f0 t SDL_Blit_ARGB8888_RGB888_Modulate_Blend
000073f0 t SDL_Blit_ARGB8888_RGB888_Modulate_Blend_Scale
00006ec0 t SDL_Blit_ARGB8888_RGB888_Modulate_Scale
00006460 t SDL_Blit_ARGB8888_RGB888_Scale
00005400 t SDL_Blit_BGR888_ARGB8888_Blend
000055a0 t SDL_Blit_BGR888_ARGB8888_Blend_Scale
00005790 t SDL_Blit_BGR888_ARGB8888_Modulate
00005e30 t SDL_Blit_BGR888_ARGB8888_Modulate_Blend
00006130 t SDL_Blit_BGR888_ARGB8888_Modulate_Blend_Scale
00005c70 t SDL_Blit_BGR888_ARGB8888_Modulate_Scale
00005320 t SDL_Blit_BGR888_ARGB8888_Scale
000043c0 t SDL_Blit_BGR888_BGR888_Blend
00004540 t SDL_Blit_BGR888_BGR888_Blend_Scale
00004710 t SDL_Blit_BGR888_BGR888_Modulate
00004d30 t SDL_Blit_BGR888_BGR888_Modulate_Blend
00005010 t SDL_Blit_BGR888_BGR888_Modulate_Blend_Scale
00004b00 t SDL_Blit_BGR888_BGR888_Modulate_Scale
00004290 t SDL_Blit_BGR888_BGR888_Scale
00003330 t SDL_Blit_BGR888_RGB888_Blend
000034b0 t SDL_Blit_BGR888_RGB888_Blend_Scale
00003680 t SDL_Blit_BGR888_RGB888_Modulate
00003ca0 t SDL_Blit_BGR888_RGB888_Modulate_Blend
00003f80 t SDL_Blit_BGR888_RGB888_Modulate_Blend_Scale
00003b10 t SDL_Blit_BGR888_RGB888_Modulate_Scale
00003250 t SDL_Blit_BGR888_RGB888_Scale
00013d30 t SDL_Blit_BGRA8888_ARGB8888_Blend
00013ff0 t SDL_Blit_BGRA8888_ARGB8888_Blend_Scale
000142b0 t SDL_Blit_BGRA8888_ARGB8888_Modulate
00014c40 t SDL_Blit_BGRA8888_ARGB8888_Modulate_Blend
00014f70 t SDL_Blit_BGRA8888_ARGB8888_Modulate_Blend_Scale
00014970 t SDL_Blit_BGRA8888_ARGB8888_Modulate_Scale
00013c00 t SDL_Blit_BGRA8888_ARGB8888_Scale
00012aa0 t SDL_Blit_BGRA8888_BGR888_Blend
00012d20 t SDL_Blit_BGRA8888_BGR888_Blend_Scale
00012fc0 t SDL_Blit_BGRA8888_BGR888_Modulate
000135c0 t SDL_Blit_BGRA8888_BGR888_Modulate_Blend
000138e0 t SDL_Blit_BGRA8888_BGR888_Modulate_Blend_Scale
000133b0 t SDL_Blit_BGRA8888_BGR888_Modulate_Scale
00012960 t SDL_Blit_BGRA8888_BGR888_Scale
000117c0 t SDL_Blit_BGRA8888_RGB888_Blend
00011a40 t SDL_Blit_BGRA8888_RGB888_Blend_Scale
00011ce0 t SDL_Blit_BGRA8888_RGB888_Modulate
00012330 t SDL_Blit_BGRA8888_RGB888_Modulate_Blend
00012640 t SDL_Blit_BGRA8888_RGB888_Modulate_Blend_Scale
00012180 t SDL_Blit_BGRA8888_RGB888_Modulate_Scale
000116e0 t SDL_Blit_BGRA8888_RGB888_Scale
00002220 t SDL_Blit_RGB888_ARGB8888_Blend
000023b0 t SDL_Blit_RGB888_ARGB8888_Blend_Scale
00002580 t SDL_Blit_RGB888_ARGB8888_Modulate
00002c20 t SDL_Blit_RGB888_ARGB8888_Modulate_Blend
00002f20 t SDL_Blit_RGB888_ARGB8888_Modulate_Blend_Scale
000029e0 t SDL_Blit_RGB888_ARGB8888_Modulate_Scale
000020d0 t SDL_Blit_RGB888_ARGB8888_Scale
00001170 t SDL_Blit_RGB888_BGR888_Blend
000012f0 t SDL_Blit_RGB888_BGR888_Blend_Scale
000014c0 t SDL_Blit_RGB888_BGR888_Modulate
00001ac0 t SDL_Blit_RGB888_BGR888_Modulate_Blend
00001da0 t SDL_Blit_RGB888_BGR888_Modulate_Blend_Scale
00001930 t SDL_Blit_RGB888_BGR888_Modulate_Scale
00001090 t SDL_Blit_RGB888_BGR888_Scale
00000130 t SDL_Blit_RGB888_RGB888_Blend
000002b0 t SDL_Blit_RGB888_RGB888_Blend_Scale
00000480 t SDL_Blit_RGB888_RGB888_Modulate
00000aa0 t SDL_Blit_RGB888_RGB888_Modulate_Blend
00000d80 t SDL_Blit_RGB888_RGB888_Modulate_Blend_Scale
00000870 t SDL_Blit_RGB888_RGB888_Modulate_Scale
00000000 t SDL_Blit_RGB888_RGB888_Scale
0000c680 t SDL_Blit_RGBA8888_ARGB8888_Blend
0000c930 t SDL_Blit_RGBA8888_ARGB8888_Blend_Scale
0000cbf0 t SDL_Blit_RGBA8888_ARGB8888_Modulate
0000d510 t SDL_Blit_RGBA8888_ARGB8888_Modulate_Blend
0000d850 t SDL_Blit_RGBA8888_ARGB8888_Modulate_Blend_Scale
0000d260 t SDL_Blit_RGBA8888_ARGB8888_Modulate_Scale
0000c540 t SDL_Blit_RGBA8888_ARGB8888_Scale
0000b380 t SDL_Blit_RGBA8888_BGR888_Blend
0000b610 t SDL_Blit_RGBA8888_BGR888_Blend_Scale
0000b8c0 t SDL_Blit_RGBA8888_BGR888_Modulate
0000bf00 t SDL_Blit_RGBA8888_BGR888_Modulate_Blend
0000c210 t SDL_Blit_RGBA8888_BGR888_Modulate_Blend_Scale
0000bd60 t SDL_Blit_RGBA8888_BGR888_Modulate_Scale
0000b2a0 t SDL_Blit_RGBA8888_BGR888_Scale
0000a120 t SDL_Blit_RGBA8888_RGB888_Blend
0000a3b0 t SDL_Blit_RGBA8888_RGB888_Blend_Scale
0000a660 t SDL_Blit_RGBA8888_RGB888_Modulate
0000ac70 t SDL_Blit_RGBA8888_RGB888_Modulate_Blend
0000af80 t SDL_Blit_RGBA8888_RGB888_Modulate_Blend_Scale
0000aa60 t SDL_Blit_RGBA8888_RGB888_Modulate_Scale
00009fe0 t SDL_Blit_RGBA8888_RGB888_Scale
00000000 D SDL_GeneratedBlitFuncTable

SDL_blit_copy.o:
00000000 a @feat.00
00000000 T SDL_BlitCopy
         U SDL_HasMMX_REAL
         U SDL_HasSSE_REAL
         U SDL_memcpy_REAL
         U SDL_memmove_REAL

SDL_blit_N.o:
00000000 R .refptr.SDL_expand_byte
00000000 a @feat.00
00003480 t Blit2101010toN
000054d0 t Blit2to2Key
000052b0 t Blit4to4MaskAlpha
00000a90 t BlitNto1
00005670 t BlitNto1Key
00004160 t BlitNto2101010
000019d0 t BlitNtoN
00004ce0 t BlitNtoNCopyAlpha
00007eb0 t BlitNtoNKey
000066c0 t BlitNtoNKeyCopyAlpha
0000a8c0 t Blit_3or4_to_3or4__inversed_rgb
0000a610 t Blit_3or4_to_3or4__same_rgb
00000690 t Blit_RGB101010_index8
0000a350 t Blit_RGB555_ARGB1555
0000a490 t Blit_RGB565_32
0000a320 t Blit_RGB565_ABGR8888
0000a310 t Blit_RGB565_ARGB8888
0000a340 t Blit_RGB565_BGRA8888
0000a330 t Blit_RGB565_RGBA8888
0000b010 t Blit_RGB888_RGB555
0000adf0 t Blit_RGB888_RGB565
00000290 t Blit_RGB888_index8
00001780 r RGB565_ABGR8888_LUT
00000f80 r RGB565_ARGB8888_LUT
00002780 r RGB565_BGRA8888_LUT
00001f80 r RGB565_RGBA8888_LUT
         U SDL_BlitCopy
00000000 T SDL_CalculateBlitN
         U SDL_HasARMSIMD_REAL
         U SDL_HasMMX_REAL
         U SDL_expand_byte
0000b230 t get_permutation
00000ae0 r normal_blit
00000b00 r normal_blit_1
00000b30 r normal_blit_2
00000c80 r normal_blit_3
00000dd0 r normal_blit_4

SDL_blit_slow.o:
00000000 R .refptr.SDL_expand_byte
00000000 a @feat.00
00000000 T SDL_Blit_Slow
         U SDL_expand_byte

SDL_bmp.o:
00000000 a @feat.00
00000ca0 t CorrectAlphaChannel
         U SDL_ClearError_REAL
         U SDL_ConvertSurface_REAL
         U SDL_CreateRGBSurface_REAL
         U SDL_Error_REAL
         U SDL_FreeSurface_REAL
         U SDL_GetError_REAL
         U SDL_GetHintBoolean_REAL
         U SDL_InitFormat
00000000 T SDL_LoadBMP_RW_REAL
         U SDL_LockSurface_REAL
         U SDL_RWclose_REAL
         U SDL_RWread_REAL
         U SDL_RWseek_REAL
         U SDL_RWtell_REAL
         U SDL_RWwrite_REAL
         U SDL_ReadLE16_REAL
         U SDL_ReadLE32_REAL
00000d00 T SDL_SaveBMP_RW_REAL
         U SDL_SetError_REAL
         U SDL_UnlockSurface_REAL
         U SDL_WriteLE16_REAL
         U SDL_WriteLE32_REAL
         U SDL_strcmp_REAL
         U SDL_strncmp_REAL
00000920 t readRlePixels

SDL_clipboard.o:
00000000 a @feat.00
00000100 T SDL_GetClipboardText_REAL
00000160 T SDL_GetPrimarySelectionText_REAL
         U SDL_GetVideoDevice
000001c0 T SDL_HasClipboardText_REAL
00000210 T SDL_HasPrimarySelectionText_REAL
00000000 T SDL_SetClipboardText_REAL
         U SDL_SetError_REAL
00000080 T SDL_SetPrimarySelectionText_REAL
         U SDL_free_REAL
         U SDL_strdup_REAL

SDL_clipboardevents.o:
00000000 a @feat.00
         U SDL_EventState_REAL
         U SDL_PushEvent_REAL
00000000 T SDL_SendClipboardUpdate

SDL_controller_type.o:
00000000 a @feat.00
00000220 T GuessControllerName
00000000 T GuessControllerType
         U SDL_GetHint_REAL
         U SDL_snprintf_REAL
         U SDL_strlen_REAL
         U SDL_strncasecmp_REAL
         U SDL_strncmp_REAL
         U SDL_strstr_REAL
00000030 r arrControllers

SDL_cpuinfo.o:
00000000 a @feat.00
00000020 b CPU_CPUIDFeatures.2
00000030 b CPU_CPUIDFeatures.3
00000018 b CPU_CPUIDMaxFunction
00000034 b CPU_OSSavesYMM
00000038 b CPU_OSSavesZMM
0000001c b CPU_calcCPUIDFeatures.checked
00000000 b SDL_CPUCount
00000004 d SDL_CPUFeatures
00000040 T SDL_GetCPUCacheLineSize_REAL
00000000 T SDL_GetCPUCount_REAL
00000260 t SDL_GetCPUFeatures
00000008 b SDL_GetCPUType.SDL_CPUType
000007a0 T SDL_GetSystemRAM_REAL
00000600 T SDL_Has3DNow_REAL
00000720 T SDL_HasARMSIMD_REAL
000006e0 T SDL_HasAVX2_REAL
00000700 T SDL_HasAVX512F_REAL
000006c0 T SDL_HasAVX_REAL
000005c0 T SDL_HasAltiVec_REAL
00000780 T SDL_HasLASX_REAL
00000760 T SDL_HasLSX_REAL
000005e0 T SDL_HasMMX_REAL
00000740 T SDL_HasNEON_REAL
00000240 T SDL_HasRDTSC_REAL
00000640 T SDL_HasSSE2_REAL
00000660 T SDL_HasSSE3_REAL
00000680 T SDL_HasSSE41_REAL
000006a0 T SDL_HasSSE42_REAL
00000620 T SDL_HasSSE_REAL
00000000 d SDL_SIMDAlignment
00000820 T SDL_SIMDAlloc_REAL
00000a00 T SDL_SIMDFree_REAL
000007f0 T SDL_SIMDGetAlignment_REAL
000008e0 T SDL_SIMDRealloc_REAL
00000004 b SDL_SystemRAM
         U SDL_free_REAL
         U SDL_malloc_REAL
         U SDL_memmove_REAL
         U SDL_realloc_REAL
         U SDL_strcmp_REAL
         U SDL_strlcpy_REAL
         U __imp_GetSystemInfo
         U __imp_GlobalMemoryStatusEx

SDL_crc16.o:
00000000 a @feat.00
00000000 T SDL_crc16_REAL

SDL_crc32.o:
00000000 a @feat.00
00000000 T SDL_crc32_REAL

SDL_d3dmath.o:
00000000 a @feat.00
00000000 T MatrixIdentity
00000040 T MatrixMultiply
00000250 T MatrixRotationX
000002d0 T MatrixRotationY
00000350 T MatrixRotationZ
00000170 T MatrixScaling
000001d0 T MatrixTranslation
         U SDL_cosf_REAL
         U SDL_memset_REAL
         U SDL_sinf_REAL

SDL_dataqueue.o:
00000000 a @feat.00
00000150 T SDL_ClearDataQueue
00000580 T SDL_CountDataQueue
         U SDL_CreateMutex_REAL
         U SDL_DestroyMutex_REAL
         U SDL_Error_REAL
000000e0 T SDL_FreeDataQueue
000005c0 T SDL_GetDataQueueMutex
         U SDL_LockMutex_REAL
00000000 T SDL_NewDataQueue
00000400 T SDL_PeekIntoDataQueue
000004a0 T SDL_ReadFromDataQueue
         U SDL_SetError_REAL
         U SDL_UnlockMutex_REAL
00000240 T SDL_WriteToDataQueue
         U SDL_calloc_REAL
         U SDL_free_REAL
         U SDL_malloc_REAL
         U SDL_memcpy_REAL

SDL_dbus.o:
00000000 a @feat.00

SDL_dinputhaptic.o:
00000000 R .refptr.CLSID_DirectInput8
00000000 R .refptr.GUID_ConstantForce
00000000 R .refptr.GUID_CustomForce
00000000 R .refptr.GUID_Damper
00000000 R .refptr.GUID_Friction
00000000 R .refptr.GUID_Inertia
00000000 R .refptr.GUID_RampForce
00000000 R .refptr.GUID_RxAxis
00000000 R .refptr.GUID_RyAxis
00000000 R .refptr.GUID_RzAxis
00000000 R .refptr.GUID_SawtoothDown
00000000 R .refptr.GUID_SawtoothUp
00000000 R .refptr.GUID_Sine
00000000 R .refptr.GUID_Spring
00000000 R .refptr.GUID_Triangle
00000000 R .refptr.GUID_XAxis
00000000 R .refptr.GUID_YAxis
00000000 R .refptr.GUID_ZAxis
00000000 R .refptr.IID_IDirectInput8W
00000000 R .refptr.SDL_HelperWindow
00000000 R .refptr.SDL_c_dfDIJoystick2
00000000 R .refptr.SDL_hapticlist
00000000 a @feat.00
         U CLSID_DirectInput8
00001990 t DI_DeviceObjectCallback
00001a90 t DI_EffectCallback
00000200 t EnumHapticsCallback
         U GUID_ConstantForce
         U GUID_CustomForce
         U GUID_Damper
         U GUID_Friction
         U GUID_Inertia
         U GUID_RampForce
         U GUID_RxAxis
         U GUID_RyAxis
         U GUID_RzAxis
         U GUID_SawtoothDown
         U GUID_SawtoothUp
         U GUID_Sine
         U GUID_Spring
         U GUID_Triangle
         U GUID_XAxis
         U GUID_YAxis
         U GUID_ZAxis
         U IID_IDirectInput8W
00000880 T SDL_DINPUT_HapticClose
00001710 T SDL_DINPUT_HapticDestroyEffect
000017c0 T SDL_DINPUT_HapticGetEffectStatus
00000000 T SDL_DINPUT_HapticInit
00000220 T SDL_DINPUT_HapticMaybeAddDevice
000003b0 T SDL_DINPUT_HapticMaybeRemoveDevice
00000900 T SDL_DINPUT_HapticNewEffect
00000440 T SDL_DINPUT_HapticOpen
000004b0 t SDL_DINPUT_HapticOpenFromDevice
000007c0 T SDL_DINPUT_HapticOpenFromJoystick
000018d0 T SDL_DINPUT_HapticPause
000008c0 T SDL_DINPUT_HapticQuit
00001690 T SDL_DINPUT_HapticRunEffect
00001870 T SDL_DINPUT_HapticSetAutocenter
00001810 T SDL_DINPUT_HapticSetGain
00001950 T SDL_DINPUT_HapticStopAll
000016d0 T SDL_DINPUT_HapticStopEffect
00001910 T SDL_DINPUT_HapticUnpause
00001490 T SDL_DINPUT_HapticUpdateEffect
00000740 T SDL_DINPUT_JoystickSameHaptic
         U SDL_Error_REAL
         U SDL_GetHintBoolean_REAL
         U SDL_HelperWindow
         U SDL_SYS_AddHapticDevice
         U SDL_SYS_HapticQuit
         U SDL_SYS_RemoveHapticDevice
00001bb0 t SDL_SYS_SetDirection
00000ad0 t SDL_SYS_ToDIEFFECT
         U SDL_SetError_REAL
         U SDL_WasInit_REAL
         U SDL_abs_REAL
         U SDL_c_dfDIJoystick2
         U SDL_calloc_REAL
         U SDL_free_REAL
         U SDL_hapticlist
         U SDL_iconv_string_REAL
         U SDL_malloc_REAL
         U SDL_memcmp_REAL
         U SDL_memcpy_REAL
         U SDL_memset_REAL
         U SDL_wcslen_REAL
         U WIN_CoInitialize
         U WIN_CoUninitialize
         U WIN_IsEqualGUID
         U __imp_CoCreateInstance
         U __imp_GetLastError
         U __imp_GetModuleHandleW
00000008 b coinitialized
00000000 b dinput

SDL_dinputjoystick.o:
00000000 R .refptr.CLSID_DirectInput8
00000000 R .refptr.GUID_RxAxis
00000000 R .refptr.GUID_RyAxis
00000000 R .refptr.GUID_RzAxis
00000000 R .refptr.GUID_Sine
00000000 R .refptr.GUID_Slider
00000000 R .refptr.GUID_XAxis
00000000 R .refptr.GUID_YAxis
00000000 R .refptr.GUID_ZAxis
00000000 R .refptr.IID_IDirectInput8W
00000000 R .refptr.SDL_HelperWindow
00000000 R .refptr.SYS_Joystick
00000000 a @feat.00
         U CLSID_DirectInput8
00000040 T CreateRumbleEffectData
00000b80 t EnumDevObjectsCallback
000002a0 t EnumJoystickDetectCallback
000006f0 t EnumJoystickPresentCallback
00000000 T FreeRumbleEffectData
         U GUID_POV
         U GUID_RxAxis
         U GUID_RyAxis
         U GUID_RzAxis
         U GUID_Sine
         U GUID_Slider
         U GUID_XAxis
         U GUID_YAxis
         U GUID_ZAxis
         U HIDAPI_IsDevicePresent
         U IID_IDirectInput8W
         U RAWINPUT_IsDevicePresent
         U RAWINPUT_IsEnabled
         U SDL_CreateJoystickGUID
         U SDL_CreateJoystickName
000014e0 T SDL_DINPUT_JoystickClose
00000260 T SDL_DINPUT_JoystickDetect
000010a0 T SDL_DINPUT_JoystickGetCapabilities
00000140 T SDL_DINPUT_JoystickInit
000007b0 T SDL_DINPUT_JoystickOpen
00000690 T SDL_DINPUT_JoystickPresent
00001590 T SDL_DINPUT_JoystickQuit
00000e20 T SDL_DINPUT_JoystickRumble
000010c0 T SDL_DINPUT_JoystickUpdate
         U SDL_Delay_REAL
         U SDL_Error_REAL
         U SDL_GetHintBoolean_REAL
         U SDL_GetJoystickGameControllerTypeFromVIDPID
         U SDL_HelperWindow
         U SDL_PrivateJoystickAxis
         U SDL_PrivateJoystickButton
         U SDL_PrivateJoystickHat
         U SDL_SetError_REAL
         U SDL_ShouldIgnoreJoystick
         U SDL_XINPUT_Enabled
00000060 R SDL_c_dfDIJoystick2
         U SDL_calloc_REAL
         U SDL_free_REAL
         U SDL_iconv_string_REAL
         U SDL_malloc_REAL
         U SDL_memcmp_REAL
         U SDL_memcpy_REAL
         U SDL_memset_REAL
         U SDL_qsort_REAL
         U SDL_strcmp_REAL
         U SDL_strlcpy_REAL
         U SDL_strstr_REAL
         U SDL_strupr_REAL
         U SDL_wcslen_REAL
         U SYS_Joystick
000015d0 t SortDevFunc
00001310 t UpdateDINPUTJoystickState_Polled
         U WINDOWS_AddJoystickDevice
         U WIN_CoInitialize
         U WIN_CoUninitialize
         U __imp_CoCreateInstance
         U __imp_GetLastError
         U __imp_GetModuleHandleW
00000008 b coinitialized
00000000 d dfDIJoystick2
00000000 b dinput

SDL_DirectFB_dyn.o:
00000000 a @feat.00

SDL_DirectFB_events.o:
00000000 a @feat.00

SDL_DirectFB_modes.o:
00000000 a @feat.00

SDL_DirectFB_mouse.o:
00000000 a @feat.00

SDL_DirectFB_opengl.o:
00000000 a @feat.00

SDL_DirectFB_render.o:
00000000 a @feat.00

SDL_DirectFB_shape.o:
00000000 a @feat.00

SDL_DirectFB_video.o:
00000000 a @feat.00

SDL_DirectFB_vulkan.o:
00000000 a @feat.00

SDL_DirectFB_window.o:
00000000 a @feat.00

SDL_DirectFB_WM.o:
00000000 a @feat.00

SDL_directsound.o:
00000000 a @feat.00
000013b0 t DSOUND_CaptureFromDevice
00001530 t DSOUND_CloseDevice
000015f0 t DSOUND_Deinitialize
00000230 t DSOUND_DetectDevices
000014f0 t DSOUND_FlushCapture
000015e0 t DSOUND_FreeDeviceHandle
00001660 t DSOUND_GetDefaultAudioInfo
00001040 t DSOUND_GetDeviceBuf
00000000 t DSOUND_Init
00000280 t DSOUND_OpenDevice
00000db0 t DSOUND_PlayDevice
00000df0 t DSOUND_WaitDevice
00000000 D DSOUND_bootstrap
00000008 b DSoundDLL
00001680 t FindAllDevs
         U SDL_AddAudioDevice
         U SDL_AtomicGet_REAL
         U SDL_CalculateAudioSpec
         U SDL_Delay_REAL
         U SDL_Error_REAL
         U SDL_FirstAudioFormat
         U SDL_IMMDevice_EnumerateEndpoints
         U SDL_IMMDevice_GetDefaultAudioInfo
         U SDL_IMMDevice_Init
         U SDL_IMMDevice_Quit
00000140 r SDL_KSDATAFORMAT_SUBTYPE_IEEE_FLOAT
00000150 r SDL_KSDATAFORMAT_SUBTYPE_PCM
         U SDL_LoadFunction_REAL
         U SDL_LoadObject_REAL
         U SDL_NextAudioFormat
         U SDL_SetError_REAL
         U SDL_UnloadObject_REAL
         U SDL_free_REAL
         U SDL_malloc_REAL
         U SDL_memcpy_REAL
         U SDL_memset_REAL
00000000 b SupportsIMMDevice
         U WIN_LookupAudioDeviceName
         U __imp_GetDesktopWindow
00000020 b pDirectSoundCaptureCreate8
00000028 b pDirectSoundCaptureEnumerateW
00000010 b pDirectSoundCreate8
00000018 b pDirectSoundEnumerateW

SDL_diskaudio.o:
00000000 a @feat.00
00000250 t DISKAUDIO_CaptureFromDevice
000002e0 t DISKAUDIO_CloseDevice
00000320 t DISKAUDIO_DetectDevices
000002d0 t DISKAUDIO_FlushCapture
00000240 t DISKAUDIO_GetDeviceBuf
00000000 t DISKAUDIO_Init
00000080 t DISKAUDIO_OpenDevice
00000200 t DISKAUDIO_PlayDevice
000001f0 t DISKAUDIO_WaitDevice
00000000 D DISKAUDIO_bootstrap
         U SDL_AddAudioDevice
         U SDL_Delay_REAL
         U SDL_Error_REAL
         U SDL_LogCritical_REAL
         U SDL_OpenedAudioDeviceDisconnected
         U SDL_RWFromFile_REAL
         U SDL_RWclose_REAL
         U SDL_RWread_REAL
         U SDL_RWwrite_REAL
         U SDL_atoi_REAL
         U SDL_free_REAL
         U SDL_getenv_REAL
         U SDL_malloc_REAL
         U SDL_memset_REAL

SDL_displayevents.o:
00000000 a @feat.00
         U SDL_EventState_REAL
         U SDL_GetIndexOfDisplay
         U SDL_PushEvent_REAL
00000000 T SDL_SendDisplayEvent

SDL_drawline.o:
00000000 a @feat.00
00000000 T SDL_DrawLine
00000290 t SDL_DrawLine1
00000630 t SDL_DrawLine2
00000ca0 t SDL_DrawLine4
000000e0 T SDL_DrawLines
         U SDL_DrawPoint
         U SDL_GetRGBA_REAL
         U SDL_IntersectRectAndLine_REAL
         U SDL_SetError_REAL
         U SDL_memset_REAL

SDL_drawpoint.o:
00000000 a @feat.00
00000000 T SDL_DrawPoint
000000f0 T SDL_DrawPoints
         U SDL_Error_REAL
         U SDL_SetError_REAL

SDL_dropevents.o:
00000000 a @feat.00
         U SDL_EventState_REAL
         U SDL_PushEvent_REAL
00000010 t SDL_SendDrop
00000000 b SDL_SendDrop.app_is_dropping
00000170 T SDL_SendDropComplete
00000000 T SDL_SendDropFile
00000160 T SDL_SendDropText
         U SDL_memset_REAL
         U SDL_strdup_REAL

SDL_dummyaudio.o:
00000000 a @feat.00
00000050 t DUMMYAUDIO_CaptureFromDevice
00000000 t DUMMYAUDIO_Init
00000040 t DUMMYAUDIO_OpenDevice
00000000 D DUMMYAUDIO_bootstrap
         U SDL_Delay_REAL
         U SDL_memset_REAL

SDL_dummysensor.o:
00000000 a @feat.00

SDL_dynapi.o:
00000000 a @feat.00
00000500 T SDL_AddEventWatch
00007540 t SDL_AddEventWatch_DEFAULT
         U SDL_AddEventWatch_REAL
00000930 T SDL_AddHintCallback
00007ed0 t SDL_AddHintCallback_DEFAULT
         U SDL_AddHintCallback_REAL
00001bc0 T SDL_AddTimer
0000b160 t SDL_AddTimer_DEFAULT
         U SDL_AddTimer_REAL
00000ef0 T SDL_AllocFormat
00008bf0 t SDL_AllocFormat_DEFAULT
         U SDL_AllocFormat_REAL
00000f10 T SDL_AllocPalette
00008c30 t SDL_AllocPalette_DEFAULT
         U SDL_AllocPalette_REAL
00001390 T SDL_AllocRW
00009a30 t SDL_AllocRW_DEFAULT
         U SDL_AllocRW_REAL
00000150 T SDL_AtomicAdd
00006c70 t SDL_AtomicAdd_DEFAULT
         U SDL_AtomicAdd_REAL
00000120 T SDL_AtomicCAS
00000160 T SDL_AtomicCASPtr
00006ca0 t SDL_AtomicCASPtr_DEFAULT
         U SDL_AtomicCASPtr_REAL
00006bf0 t SDL_AtomicCAS_DEFAULT
         U SDL_AtomicCAS_REAL
00000140 T SDL_AtomicGet
00000180 T SDL_AtomicGetPtr
00006d00 t SDL_AtomicGetPtr_DEFAULT
         U SDL_AtomicGetPtr_REAL
00006c50 t SDL_AtomicGet_DEFAULT
         U SDL_AtomicGet_REAL
00000100 T SDL_AtomicLock
00006bb0 t SDL_AtomicLock_DEFAULT
         U SDL_AtomicLock_REAL
00000130 T SDL_AtomicSet
00000170 T SDL_AtomicSetPtr
00006cd0 t SDL_AtomicSetPtr_DEFAULT
         U SDL_AtomicSetPtr_REAL
00006c20 t SDL_AtomicSet_DEFAULT
         U SDL_AtomicSet_REAL
000000f0 T SDL_AtomicTryLock
00006b90 t SDL_AtomicTryLock_DEFAULT
         U SDL_AtomicTryLock_REAL
00000110 T SDL_AtomicUnlock
00006bd0 t SDL_AtomicUnlock_DEFAULT
         U SDL_AtomicUnlock_REAL
000001b0 T SDL_AudioInit
00006d60 t SDL_AudioInit_DEFAULT
         U SDL_AudioInit_REAL
000001c0 T SDL_AudioQuit
00006d80 t SDL_AudioQuit_DEFAULT
         U SDL_AudioQuit_REAL
00002580 T SDL_AudioStreamAvailable
0000c9d0 t SDL_AudioStreamAvailable_DEFAULT
         U SDL_AudioStreamAvailable_REAL
00002570 T SDL_AudioStreamClear
0000c9b0 t SDL_AudioStreamClear_DEFAULT
         U SDL_AudioStreamClear_REAL
000025a0 T SDL_AudioStreamFlush
0000ca10 t SDL_AudioStreamFlush_DEFAULT
         U SDL_AudioStreamFlush_REAL
00002560 T SDL_AudioStreamGet
0000c980 t SDL_AudioStreamGet_DEFAULT
         U SDL_AudioStreamGet_REAL
00002550 T SDL_AudioStreamPut
0000c950 t SDL_AudioStreamPut_DEFAULT
         U SDL_AudioStreamPut_REAL
00000280 T SDL_BuildAudioCVT
00006f70 t SDL_BuildAudioCVT_DEFAULT
         U SDL_BuildAudioCVT_REAL
00000f90 T SDL_CalculateGammaRamp
00008de0 t SDL_CalculateGammaRamp_DEFAULT
         U SDL_CalculateGammaRamp_REAL
00002180 T SDL_CaptureMouse
0000bf90 t SDL_CaptureMouse_DEFAULT
         U SDL_CaptureMouse_REAL
000031e0 T SDL_ClearComposition
0000eb90 t SDL_ClearComposition_DEFAULT
         U SDL_ClearComposition_REAL
00000420 T SDL_ClearError
00007310 t SDL_ClearError_DEFAULT
         U SDL_ClearError_REAL
00000950 T SDL_ClearHints
00007f30 t SDL_ClearHints_DEFAULT
         U SDL_ClearHints_REAL
000021e0 T SDL_ClearQueuedAudio
0000c080 t SDL_ClearQueuedAudio_DEFAULT
         U SDL_ClearQueuedAudio_REAL
00000300 T SDL_CloseAudio
00000310 T SDL_CloseAudioDevice
000070f0 t SDL_CloseAudioDevice_DEFAULT
         U SDL_CloseAudioDevice_REAL
000070d0 t SDL_CloseAudio_DEFAULT
         U SDL_CloseAudio_REAL
00002470 T SDL_ComposeCustomBlendMode
0000c6e0 t SDL_ComposeCustomBlendMode_DEFAULT
         U SDL_ComposeCustomBlendMode_REAL
00000e90 T SDL_CondBroadcast
00008ad0 t SDL_CondBroadcast_DEFAULT
         U SDL_CondBroadcast_REAL
00000e80 T SDL_CondSignal
00008ab0 t SDL_CondSignal_DEFAULT
         U SDL_CondSignal_REAL
00000ea0 T SDL_CondWait
00000eb0 T SDL_CondWaitTimeout
00008b20 t SDL_CondWaitTimeout_DEFAULT
         U SDL_CondWaitTimeout_REAL
00008af0 t SDL_CondWait_DEFAULT
         U SDL_CondWait_REAL
00000290 T SDL_ConvertAudio
00006fb0 t SDL_ConvertAudio_DEFAULT
         U SDL_ConvertAudio_REAL
00001a60 T SDL_ConvertPixels
0000ad80 t SDL_ConvertPixels_DEFAULT
         U SDL_ConvertPixels_REAL
00001a40 T SDL_ConvertSurface
00001a50 T SDL_ConvertSurfaceFormat
0000ad50 t SDL_ConvertSurfaceFormat_DEFAULT
         U SDL_ConvertSurfaceFormat_REAL
0000ad20 t SDL_ConvertSurface_DEFAULT
         U SDL_ConvertSurface_REAL
00000d30 T SDL_CreateColorCursor
000087f0 t SDL_CreateColorCursor_DEFAULT
         U SDL_CreateColorCursor_REAL
00000e60 T SDL_CreateCond
00008a70 t SDL_CreateCond_DEFAULT
         U SDL_CreateCond_REAL
00000d20 T SDL_CreateCursor
000087b0 t SDL_CreateCursor_DEFAULT
         U SDL_CreateCursor_REAL
00000da0 T SDL_CreateMutex
000088e0 t SDL_CreateMutex_DEFAULT
         U SDL_CreateMutex_REAL
00001910 T SDL_CreateRGBSurface
00001920 T SDL_CreateRGBSurfaceFrom
0000a9c0 t SDL_CreateRGBSurfaceFrom_DEFAULT
         U SDL_CreateRGBSurfaceFrom_REAL
000022f0 T SDL_CreateRGBSurfaceWithFormat
00002300 T SDL_CreateRGBSurfaceWithFormatFrom
0000c3a0 t SDL_CreateRGBSurfaceWithFormatFrom_DEFAULT
         U SDL_CreateRGBSurfaceWithFormatFrom_REAL
0000c360 t SDL_CreateRGBSurfaceWithFormat_DEFAULT
         U SDL_CreateRGBSurfaceWithFormat_REAL
0000a980 t SDL_CreateRGBSurface_DEFAULT
         U SDL_CreateRGBSurface_REAL
00001040 T SDL_CreateRenderer
00009000 t SDL_CreateRenderer_DEFAULT
         U SDL_CreateRenderer_REAL
00000df0 T SDL_CreateSemaphore
00008980 t SDL_CreateSemaphore_DEFAULT
         U SDL_CreateSemaphore_REAL
00001490 T SDL_CreateShapedWindow
00009ca0 t SDL_CreateShapedWindow_DEFAULT
         U SDL_CreateShapedWindow_REAL
00001050 T SDL_CreateSoftwareRenderer
00009030 t SDL_CreateSoftwareRenderer_DEFAULT
         U SDL_CreateSoftwareRenderer_REAL
00000d40 T SDL_CreateSystemCursor
00008820 t SDL_CreateSystemCursor_DEFAULT
         U SDL_CreateSystemCursor_REAL
00001090 T SDL_CreateTexture
000010a0 T SDL_CreateTextureFromSurface
00009110 t SDL_CreateTextureFromSurface_DEFAULT
         U SDL_CreateTextureFromSurface_REAL
000090d0 t SDL_CreateTexture_DEFAULT
         U SDL_CreateTexture_REAL
00000000 T SDL_CreateThread
00002870 T SDL_CreateThreadWithStackSize
0000d170 t SDL_CreateThreadWithStackSize_DEFAULT
         U SDL_CreateThreadWithStackSize_REAL
00006940 t SDL_CreateThread_DEFAULT
         U SDL_CreateThread_REAL
00001d60 T SDL_CreateWindow
00001030 T SDL_CreateWindowAndRenderer
00008fc0 t SDL_CreateWindowAndRenderer_DEFAULT
         U SDL_CreateWindowAndRenderer_REAL
00001d70 T SDL_CreateWindowFrom
0000b570 t SDL_CreateWindowFrom_DEFAULT
         U SDL_CreateWindowFrom_REAL
0000b530 t SDL_CreateWindow_DEFAULT
         U SDL_CreateWindow_REAL
00002120 T SDL_DXGIGetOutputInfo
0000be80 t SDL_DXGIGetOutputInfo_DEFAULT
         U SDL_DXGIGetOutputInfo_REAL
00003770 T SDL_DYNAPI_entry
00000510 T SDL_DelEventWatch
00007570 t SDL_DelEventWatch_DEFAULT
         U SDL_DelEventWatch_REAL
00000940 T SDL_DelHintCallback
00007f00 t SDL_DelHintCallback_DEFAULT
         U SDL_DelHintCallback_REAL
00001bb0 T SDL_Delay
0000b140 t SDL_Delay_DEFAULT
         U SDL_Delay_REAL
000022d0 T SDL_DequeueAudio
0000c300 t SDL_DequeueAudio_DEFAULT
         U SDL_DequeueAudio_REAL
00000e70 T SDL_DestroyCond
00008a90 t SDL_DestroyCond_DEFAULT
         U SDL_DestroyCond_REAL
00000de0 T SDL_DestroyMutex
00008960 t SDL_DestroyMutex_DEFAULT
         U SDL_DestroyMutex_REAL
00001330 T SDL_DestroyRenderer
00009930 t SDL_DestroyRenderer_DEFAULT
         U SDL_DestroyRenderer_REAL
00000e00 T SDL_DestroySemaphore
000089a0 t SDL_DestroySemaphore_DEFAULT
         U SDL_DestroySemaphore_REAL
00001320 T SDL_DestroyTexture
00009910 t SDL_DestroyTexture_DEFAULT
         U SDL_DestroyTexture_REAL
00001f90 T SDL_DestroyWindow
00003490 T SDL_DestroyWindowSurface
0000f220 t SDL_DestroyWindowSurface_DEFAULT
         U SDL_DestroyWindowSurface_REAL
0000bb00 t SDL_DestroyWindow_DEFAULT
         U SDL_DestroyWindow_REAL
00001b40 T SDL_DetachThread
0000b050 t SDL_DetachThread_DEFAULT
         U SDL_DetachThread_REAL
00000040 T SDL_Direct3D9GetAdapterIndex
00006a00 t SDL_Direct3D9GetAdapterIndex_DEFAULT
         U SDL_Direct3D9GetAdapterIndex_REAL
00001fc0 T SDL_DisableScreenSaver
0000bb60 t SDL_DisableScreenSaver_DEFAULT
         U SDL_DisableScreenSaver_REAL
00002480 T SDL_DuplicateSurface
0000c720 t SDL_DuplicateSurface_DEFAULT
         U SDL_DuplicateSurface_REAL
00001fb0 T SDL_EnableScreenSaver
0000bb40 t SDL_EnableScreenSaver_DEFAULT
         U SDL_EnableScreenSaver_REAL
00003230 T SDL_EncloseFPoints
0000ec60 t SDL_EncloseFPoints_DEFAULT
         U SDL_EncloseFPoints_REAL
00000ff0 T SDL_EnclosePoints
00008ef0 t SDL_EnclosePoints_DEFAULT
         U SDL_EnclosePoints_REAL
00000430 T SDL_Error
00007330 t SDL_Error_DEFAULT
         U SDL_Error_REAL
00000530 T SDL_EventState
000075d0 t SDL_EventState_DEFAULT
         U SDL_EventState_REAL
         U SDL_ExitProcess
00001a70 T SDL_FillRect
0000adc0 t SDL_FillRect_DEFAULT
         U SDL_FillRect_REAL
00001a80 T SDL_FillRects
0000adf0 t SDL_FillRects_DEFAULT
         U SDL_FillRects_REAL
00000520 T SDL_FilterEvents
000075a0 t SDL_FilterEvents_DEFAULT
         U SDL_FilterEvents_REAL
00002f30 T SDL_FlashWindow
0000e3a0 t SDL_FlashWindow_DEFAULT
         U SDL_FlashWindow_REAL
00000480 T SDL_FlushEvent
00007400 t SDL_FlushEvent_DEFAULT
         U SDL_FlushEvent_REAL
00000490 T SDL_FlushEvents
00007420 t SDL_FlushEvents_DEFAULT
         U SDL_FlushEvents_REAL
00002590 T SDL_FreeAudioStream
0000c9f0 t SDL_FreeAudioStream_DEFAULT
         U SDL_FreeAudioStream_REAL
00000d80 T SDL_FreeCursor
000088a0 t SDL_FreeCursor_DEFAULT
         U SDL_FreeCursor_REAL
00000f00 T SDL_FreeFormat
00008c10 t SDL_FreeFormat_DEFAULT
         U SDL_FreeFormat_REAL
00000f40 T SDL_FreePalette
00008cc0 t SDL_FreePalette_DEFAULT
         U SDL_FreePalette_REAL
000013a0 T SDL_FreeRW
00009a50 t SDL_FreeRW_DEFAULT
         U SDL_FreeRW_REAL
00001930 T SDL_FreeSurface
0000aa00 t SDL_FreeSurface_DEFAULT
         U SDL_FreeSurface_REAL
00000270 T SDL_FreeWAV
00006f50 t SDL_FreeWAV_DEFAULT
         U SDL_FreeWAV_REAL
00001340 T SDL_GL_BindTexture
00009950 t SDL_GL_BindTexture_DEFAULT
         U SDL_GL_BindTexture_REAL
00002030 T SDL_GL_CreateContext
0000bc60 t SDL_GL_CreateContext_DEFAULT
         U SDL_GL_CreateContext_REAL
000020b0 T SDL_GL_DeleteContext
0000bd80 t SDL_GL_DeleteContext_DEFAULT
         U SDL_GL_DeleteContext_REAL
00002000 T SDL_GL_ExtensionSupported
0000bbe0 t SDL_GL_ExtensionSupported_DEFAULT
         U SDL_GL_ExtensionSupported_REAL
00002020 T SDL_GL_GetAttribute
0000bc30 t SDL_GL_GetAttribute_DEFAULT
         U SDL_GL_GetAttribute_REAL
00002060 T SDL_GL_GetCurrentContext
0000bcd0 t SDL_GL_GetCurrentContext_DEFAULT
         U SDL_GL_GetCurrentContext_REAL
00002050 T SDL_GL_GetCurrentWindow
0000bcb0 t SDL_GL_GetCurrentWindow_DEFAULT
         U SDL_GL_GetCurrentWindow_REAL
00002070 T SDL_GL_GetDrawableSize
0000bcf0 t SDL_GL_GetDrawableSize_DEFAULT
         U SDL_GL_GetDrawableSize_REAL
00001fe0 T SDL_GL_GetProcAddress
0000bba0 t SDL_GL_GetProcAddress_DEFAULT
         U SDL_GL_GetProcAddress_REAL
00002090 T SDL_GL_GetSwapInterval
0000bd40 t SDL_GL_GetSwapInterval_DEFAULT
         U SDL_GL_GetSwapInterval_REAL
00001fd0 T SDL_GL_LoadLibrary
0000bb80 t SDL_GL_LoadLibrary_DEFAULT
         U SDL_GL_LoadLibrary_REAL
00002040 T SDL_GL_MakeCurrent
0000bc80 t SDL_GL_MakeCurrent_DEFAULT
         U SDL_GL_MakeCurrent_REAL
000020e0 T SDL_GL_ResetAttributes
0000be00 t SDL_GL_ResetAttributes_DEFAULT
         U SDL_GL_ResetAttributes_REAL
00002010 T SDL_GL_SetAttribute
0000bc00 t SDL_GL_SetAttribute_DEFAULT
         U SDL_GL_SetAttribute_REAL
00002080 T SDL_GL_SetSwapInterval
0000bd20 t SDL_GL_SetSwapInterval_DEFAULT
         U SDL_GL_SetSwapInterval_REAL
000020a0 T SDL_GL_SwapWindow
0000bd60 t SDL_GL_SwapWindow_DEFAULT
         U SDL_GL_SwapWindow_REAL
00001350 T SDL_GL_UnbindTexture
00009980 t SDL_GL_UnbindTexture_DEFAULT
         U SDL_GL_UnbindTexture_REAL
00001ff0 T SDL_GL_UnloadLibrary
0000bbc0 t SDL_GL_UnloadLibrary_DEFAULT
         U SDL_GL_UnloadLibrary_REAL
00003300 T SDL_GUIDFromString
0000ee60 t SDL_GUIDFromString_DEFAULT
         U SDL_GUIDFromString_REAL
000032e0 T SDL_GUIDToString
0000ee20 t SDL_GUIDToString_DEFAULT
         U SDL_GUIDToString_REAL
00000570 T SDL_GameControllerAddMapping
00007670 t SDL_GameControllerAddMapping_DEFAULT
         U SDL_GameControllerAddMapping_REAL
000020d0 T SDL_GameControllerAddMappingsFromRW
0000bdd0 t SDL_GameControllerAddMappingsFromRW_DEFAULT
         U SDL_GameControllerAddMappingsFromRW_REAL
000006d0 T SDL_GameControllerClose
00007920 t SDL_GameControllerClose_DEFAULT
         U SDL_GameControllerClose_REAL
00000610 T SDL_GameControllerEventState
000077a0 t SDL_GameControllerEventState_DEFAULT
         U SDL_GameControllerEventState_REAL
00002230 T SDL_GameControllerFromInstanceID
0000c150 t SDL_GameControllerFromInstanceID_DEFAULT
         U SDL_GameControllerFromInstanceID_REAL
00002aa0 T SDL_GameControllerFromPlayerIndex
0000d790 t SDL_GameControllerFromPlayerIndex_DEFAULT
         U SDL_GameControllerFromPlayerIndex_REAL
00003000 T SDL_GameControllerGetAppleSFSymbolsNameForAxis
0000e650 t SDL_GameControllerGetAppleSFSymbolsNameForAxis_DEFAULT
         U SDL_GameControllerGetAppleSFSymbolsNameForAxis_REAL
00002ff0 T SDL_GameControllerGetAppleSFSymbolsNameForButton
0000e620 t SDL_GameControllerGetAppleSFSymbolsNameForButton_DEFAULT
         U SDL_GameControllerGetAppleSFSymbolsNameForButton_REAL
000005f0 T SDL_GameControllerGetAttached
00007760 t SDL_GameControllerGetAttached_DEFAULT
         U SDL_GameControllerGetAttached_REAL
00000670 T SDL_GameControllerGetAxis
00000630 T SDL_GameControllerGetAxisFromString
000077e0 t SDL_GameControllerGetAxisFromString_DEFAULT
         U SDL_GameControllerGetAxisFromString_REAL
00007850 t SDL_GameControllerGetAxis_DEFAULT
         U SDL_GameControllerGetAxis_REAL
00000650 T SDL_GameControllerGetBindForAxis
00007820 t SDL_GameControllerGetBindForAxis_DEFAULT
         U SDL_GameControllerGetBindForAxis_REAL
000006a0 T SDL_GameControllerGetBindForButton
000078c0 t SDL_GameControllerGetBindForButton_DEFAULT
         U SDL_GameControllerGetBindForButton_REAL
000006c0 T SDL_GameControllerGetButton
00000680 T SDL_GameControllerGetButtonFromString
00007880 t SDL_GameControllerGetButtonFromString_DEFAULT
         U SDL_GameControllerGetButtonFromString_REAL
000078f0 t SDL_GameControllerGetButton_DEFAULT
         U SDL_GameControllerGetButton_REAL
000032c0 T SDL_GameControllerGetFirmwareVersion
0000ede0 t SDL_GameControllerGetFirmwareVersion_DEFAULT
         U SDL_GameControllerGetFirmwareVersion_REAL
00000600 T SDL_GameControllerGetJoystick
00007780 t SDL_GameControllerGetJoystick_DEFAULT
         U SDL_GameControllerGetJoystick_REAL
00002d20 T SDL_GameControllerGetNumTouchpadFingers
0000de10 t SDL_GameControllerGetNumTouchpadFingers_DEFAULT
         U SDL_GameControllerGetNumTouchpadFingers_REAL
00002d10 T SDL_GameControllerGetNumTouchpads
0000ddf0 t SDL_GameControllerGetNumTouchpads_DEFAULT
         U SDL_GameControllerGetNumTouchpads_REAL
000028a0 T SDL_GameControllerGetPlayerIndex
0000d1f0 t SDL_GameControllerGetPlayerIndex_DEFAULT
         U SDL_GameControllerGetPlayerIndex_REAL
00002390 T SDL_GameControllerGetProduct
000023a0 T SDL_GameControllerGetProductVersion
0000c510 t SDL_GameControllerGetProductVersion_DEFAULT
         U SDL_GameControllerGetProductVersion_REAL
0000c4f0 t SDL_GameControllerGetProduct_DEFAULT
         U SDL_GameControllerGetProduct_REAL
00002da0 T SDL_GameControllerGetSensorData
00002f60 T SDL_GameControllerGetSensorDataRate
0000e430 t SDL_GameControllerGetSensorDataRate_DEFAULT
         U SDL_GameControllerGetSensorDataRate_REAL
00003440 T SDL_GameControllerGetSensorDataWithTimestamp
0000f130 t SDL_GameControllerGetSensorDataWithTimestamp_DEFAULT
         U SDL_GameControllerGetSensorDataWithTimestamp_REAL
0000df80 t SDL_GameControllerGetSensorData_DEFAULT
         U SDL_GameControllerGetSensorData_REAL
00002d50 T SDL_GameControllerGetSerial
0000deb0 t SDL_GameControllerGetSerial_DEFAULT
         U SDL_GameControllerGetSerial_REAL
00000640 T SDL_GameControllerGetStringForAxis
00007800 t SDL_GameControllerGetStringForAxis_DEFAULT
         U SDL_GameControllerGetStringForAxis_REAL
00000690 T SDL_GameControllerGetStringForButton
000078a0 t SDL_GameControllerGetStringForButton_DEFAULT
         U SDL_GameControllerGetStringForButton_REAL
00002d30 T SDL_GameControllerGetTouchpadFinger
0000de40 t SDL_GameControllerGetTouchpadFinger_DEFAULT
         U SDL_GameControllerGetTouchpadFinger_REAL
00002a90 T SDL_GameControllerGetType
0000d770 t SDL_GameControllerGetType_DEFAULT
         U SDL_GameControllerGetType_REAL
00002380 T SDL_GameControllerGetVendor
0000c4d0 t SDL_GameControllerGetVendor_DEFAULT
         U SDL_GameControllerGetVendor_REAL
00002cf0 T SDL_GameControllerHasAxis
0000dd90 t SDL_GameControllerHasAxis_DEFAULT
         U SDL_GameControllerHasAxis_REAL
00002d00 T SDL_GameControllerHasButton
0000ddc0 t SDL_GameControllerHasButton_DEFAULT
         U SDL_GameControllerHasButton_REAL
00002c90 T SDL_GameControllerHasLED
0000dc50 t SDL_GameControllerHasLED_DEFAULT
         U SDL_GameControllerHasLED_REAL
00003190 T SDL_GameControllerHasRumble
000031a0 T SDL_GameControllerHasRumbleTriggers
0000eaf0 t SDL_GameControllerHasRumbleTriggers_DEFAULT
         U SDL_GameControllerHasRumbleTriggers_REAL
0000ead0 t SDL_GameControllerHasRumble_DEFAULT
         U SDL_GameControllerHasRumble_REAL
00002d70 T SDL_GameControllerHasSensor
0000def0 t SDL_GameControllerHasSensor_DEFAULT
         U SDL_GameControllerHasSensor_REAL
00002d90 T SDL_GameControllerIsSensorEnabled
0000df50 t SDL_GameControllerIsSensorEnabled_DEFAULT
         U SDL_GameControllerIsSensorEnabled_REAL
000005a0 T SDL_GameControllerMapping
000026f0 T SDL_GameControllerMappingForDeviceIndex
0000ce00 t SDL_GameControllerMappingForDeviceIndex_DEFAULT
         U SDL_GameControllerMappingForDeviceIndex_REAL
00000580 T SDL_GameControllerMappingForGUID
00007690 t SDL_GameControllerMappingForGUID_DEFAULT
         U SDL_GameControllerMappingForGUID_REAL
000023d0 T SDL_GameControllerMappingForIndex
0000c570 t SDL_GameControllerMappingForIndex_DEFAULT
         U SDL_GameControllerMappingForIndex_REAL
000076c0 t SDL_GameControllerMapping_DEFAULT
         U SDL_GameControllerMapping_REAL
000005e0 T SDL_GameControllerName
000005c0 T SDL_GameControllerNameForIndex
00007700 t SDL_GameControllerNameForIndex_DEFAULT
         U SDL_GameControllerNameForIndex_REAL
00007740 t SDL_GameControllerName_DEFAULT
         U SDL_GameControllerName_REAL
000023c0 T SDL_GameControllerNumMappings
0000c550 t SDL_GameControllerNumMappings_DEFAULT
         U SDL_GameControllerNumMappings_REAL
000005d0 T SDL_GameControllerOpen
00007720 t SDL_GameControllerOpen_DEFAULT
         U SDL_GameControllerOpen_REAL
00003280 T SDL_GameControllerPath
00003270 T SDL_GameControllerPathForIndex
0000ed40 t SDL_GameControllerPathForIndex_DEFAULT
         U SDL_GameControllerPathForIndex_REAL
0000ed60 t SDL_GameControllerPath_DEFAULT
         U SDL_GameControllerPath_REAL
00002740 T SDL_GameControllerRumble
00002cd0 T SDL_GameControllerRumbleTriggers
0000dd10 t SDL_GameControllerRumbleTriggers_DEFAULT
         U SDL_GameControllerRumbleTriggers_REAL
0000cec0 t SDL_GameControllerRumble_DEFAULT
         U SDL_GameControllerRumble_REAL
00002f40 T SDL_GameControllerSendEffect
0000e3d0 t SDL_GameControllerSendEffect_DEFAULT
         U SDL_GameControllerSendEffect_REAL
00002ca0 T SDL_GameControllerSetLED
0000dc70 t SDL_GameControllerSetLED_DEFAULT
         U SDL_GameControllerSetLED_REAL
00002ab0 T SDL_GameControllerSetPlayerIndex
0000d7b0 t SDL_GameControllerSetPlayerIndex_DEFAULT
         U SDL_GameControllerSetPlayerIndex_REAL
00002d80 T SDL_GameControllerSetSensorEnabled
0000df20 t SDL_GameControllerSetSensorEnabled_DEFAULT
         U SDL_GameControllerSetSensorEnabled_REAL
00002a80 T SDL_GameControllerTypeForIndex
0000d750 t SDL_GameControllerTypeForIndex_DEFAULT
         U SDL_GameControllerTypeForIndex_REAL
00000620 T SDL_GameControllerUpdate
000077c0 t SDL_GameControllerUpdate_DEFAULT
         U SDL_GameControllerUpdate_REAL
00002110 T SDL_GetAssertionHandler
0000be60 t SDL_GetAssertionHandler_DEFAULT
         U SDL_GetAssertionHandler_REAL
000000d0 T SDL_GetAssertionReport
00006b50 t SDL_GetAssertionReport_DEFAULT
         U SDL_GetAssertionReport_REAL
00000200 T SDL_GetAudioDeviceName
00006e10 t SDL_GetAudioDeviceName_DEFAULT
         U SDL_GetAudioDeviceName_REAL
00002f00 T SDL_GetAudioDeviceSpec
0000e320 t SDL_GetAudioDeviceSpec_DEFAULT
         U SDL_GetAudioDeviceSpec_REAL
00000230 T SDL_GetAudioDeviceStatus
00006ea0 t SDL_GetAudioDeviceStatus_DEFAULT
         U SDL_GetAudioDeviceStatus_REAL
000001a0 T SDL_GetAudioDriver
00006d40 t SDL_GetAudioDriver_DEFAULT
         U SDL_GetAudioDriver_REAL
00000220 T SDL_GetAudioStatus
00006e80 t SDL_GetAudioStatus_DEFAULT
         U SDL_GetAudioStatus_REAL
00000550 T SDL_GetBasePath
00007620 t SDL_GetBasePath_DEFAULT
         U SDL_GetBasePath_REAL
00000360 T SDL_GetCPUCacheLineSize
00007190 t SDL_GetCPUCacheLineSize_DEFAULT
         U SDL_GetCPUCacheLineSize_REAL
00000350 T SDL_GetCPUCount
00007170 t SDL_GetCPUCount_DEFAULT
         U SDL_GetCPUCount_REAL
00001a30 T SDL_GetClipRect
0000acf0 t SDL_GetClipRect_DEFAULT
         U SDL_GetClipRect_REAL
00000330 T SDL_GetClipboardText
00007130 t SDL_GetClipboardText_DEFAULT
         U SDL_GetClipboardText_REAL
00001d10 T SDL_GetClosestDisplayMode
0000b460 t SDL_GetClosestDisplayMode_DEFAULT
         U SDL_GetClosestDisplayMode_REAL
000019b0 T SDL_GetColorKey
0000ab50 t SDL_GetColorKey_DEFAULT
         U SDL_GetColorKey_REAL
000001d0 T SDL_GetCurrentAudioDriver
00006da0 t SDL_GetCurrentAudioDriver_DEFAULT
         U SDL_GetCurrentAudioDriver_REAL
00001d00 T SDL_GetCurrentDisplayMode
0000b430 t SDL_GetCurrentDisplayMode_DEFAULT
         U SDL_GetCurrentDisplayMode_REAL
00001c90 T SDL_GetCurrentVideoDriver
0000b320 t SDL_GetCurrentVideoDriver_DEFAULT
         U SDL_GetCurrentVideoDriver_REAL
00000d60 T SDL_GetCursor
00008860 t SDL_GetCursor_DEFAULT
         U SDL_GetCursor_REAL
00002100 T SDL_GetDefaultAssertionHandler
0000be40 t SDL_GetDefaultAssertionHandler_DEFAULT
         U SDL_GetDefaultAssertionHandler_REAL
00003380 T SDL_GetDefaultAudioInfo
0000ef80 t SDL_GetDefaultAudioInfo_DEFAULT
         U SDL_GetDefaultAudioInfo_REAL
00000d70 T SDL_GetDefaultCursor
00008880 t SDL_GetDefaultCursor_DEFAULT
         U SDL_GetDefaultCursor_REAL
00001cf0 T SDL_GetDesktopDisplayMode
0000b400 t SDL_GetDesktopDisplayMode_DEFAULT
         U SDL_GetDesktopDisplayMode_REAL
00001cc0 T SDL_GetDisplayBounds
0000b380 t SDL_GetDisplayBounds_DEFAULT
         U SDL_GetDisplayBounds_REAL
00002210 T SDL_GetDisplayDPI
0000c0f0 t SDL_GetDisplayDPI_DEFAULT
         U SDL_GetDisplayDPI_REAL
00001ce0 T SDL_GetDisplayMode
0000b3d0 t SDL_GetDisplayMode_DEFAULT
         U SDL_GetDisplayMode_REAL
00001cb0 T SDL_GetDisplayName
0000b360 t SDL_GetDisplayName_DEFAULT
         U SDL_GetDisplayName_REAL
00002850 T SDL_GetDisplayOrientation
0000d130 t SDL_GetDisplayOrientation_DEFAULT
         U SDL_GetDisplayOrientation_REAL
00002250 T SDL_GetDisplayUsableBounds
0000c190 t SDL_GetDisplayUsableBounds_DEFAULT
         U SDL_GetDisplayUsableBounds_REAL
00000410 T SDL_GetError
00002be0 T SDL_GetErrorMsg
0000daa0 t SDL_GetErrorMsg_DEFAULT
         U SDL_GetErrorMsg_REAL
000072f0 t SDL_GetError_DEFAULT
         U SDL_GetError_REAL
000004f0 T SDL_GetEventFilter
00007510 t SDL_GetEventFilter_DEFAULT
         U SDL_GetEventFilter_REAL
000021a0 T SDL_GetGlobalMouseState
0000bfe0 t SDL_GetGlobalMouseState_DEFAULT
         U SDL_GetGlobalMouseState_REAL
000021f0 T SDL_GetGrabbedWindow
0000c0a0 t SDL_GetGrabbedWindow_DEFAULT
         U SDL_GetGrabbedWindow_REAL
00000920 T SDL_GetHint
00002310 T SDL_GetHintBoolean
0000c3e0 t SDL_GetHintBoolean_DEFAULT
         U SDL_GetHintBoolean_REAL
00007eb0 t SDL_GetHint_DEFAULT
         U SDL_GetHint_REAL
000033e0 T SDL_GetJoystickGUIDInfo
0000f070 t SDL_GetJoystickGUIDInfo_DEFAULT
         U SDL_GetJoystickGUIDInfo_REAL
00000b80 T SDL_GetKeyFromName
000083b0 t SDL_GetKeyFromName_DEFAULT
         U SDL_GetKeyFromName_REAL
00000b30 T SDL_GetKeyFromScancode
00008310 t SDL_GetKeyFromScancode_DEFAULT
         U SDL_GetKeyFromScancode_REAL
00000b70 T SDL_GetKeyName
00008390 t SDL_GetKeyName_DEFAULT
         U SDL_GetKeyName_REAL
00000af0 T SDL_GetKeyboardFocus
00008290 t SDL_GetKeyboardFocus_DEFAULT
         U SDL_GetKeyboardFocus_REAL
00000b00 T SDL_GetKeyboardState
000082b0 t SDL_GetKeyboardState_DEFAULT
         U SDL_GetKeyboardState_REAL
00002510 T SDL_GetMemoryFunctions
0000c870 t SDL_GetMemoryFunctions_DEFAULT
         U SDL_GetMemoryFunctions_REAL
00000b10 T SDL_GetModState
000082d0 t SDL_GetModState_DEFAULT
         U SDL_GetModState_REAL
00000cc0 T SDL_GetMouseFocus
000086c0 t SDL_GetMouseFocus_DEFAULT
         U SDL_GetMouseFocus_REAL
00000cd0 T SDL_GetMouseState
000086e0 t SDL_GetMouseState_DEFAULT
         U SDL_GetMouseState_REAL
00002530 T SDL_GetNumAllocations
0000c8f0 t SDL_GetNumAllocations_DEFAULT
         U SDL_GetNumAllocations_REAL
000001f0 T SDL_GetNumAudioDevices
00006df0 t SDL_GetNumAudioDevices_DEFAULT
         U SDL_GetNumAudioDevices_REAL
00000190 T SDL_GetNumAudioDrivers
00006d20 t SDL_GetNumAudioDrivers_DEFAULT
         U SDL_GetNumAudioDrivers_REAL
00001cd0 T SDL_GetNumDisplayModes
0000b3b0 t SDL_GetNumDisplayModes_DEFAULT
         U SDL_GetNumDisplayModes_REAL
00001010 T SDL_GetNumRenderDrivers
00008f70 t SDL_GetNumRenderDrivers_DEFAULT
         U SDL_GetNumRenderDrivers_REAL
00001be0 T SDL_GetNumTouchDevices
0000b1b0 t SDL_GetNumTouchDevices_DEFAULT
         U SDL_GetNumTouchDevices_REAL
00001c00 T SDL_GetNumTouchFingers
0000b1f0 t SDL_GetNumTouchFingers_DEFAULT
         U SDL_GetNumTouchFingers_REAL
00001ca0 T SDL_GetNumVideoDisplays
0000b340 t SDL_GetNumVideoDisplays_DEFAULT
         U SDL_GetNumVideoDisplays_REAL
00001c50 T SDL_GetNumVideoDrivers
0000b2a0 t SDL_GetNumVideoDrivers_DEFAULT
         U SDL_GetNumVideoDrivers_REAL
00003360 T SDL_GetOriginalMemoryFunctions
0000ef20 t SDL_GetOriginalMemoryFunctions_DEFAULT
         U SDL_GetOriginalMemoryFunctions_REAL
00001b90 T SDL_GetPerformanceCounter
0000b100 t SDL_GetPerformanceCounter_DEFAULT
         U SDL_GetPerformanceCounter_REAL
00001ba0 T SDL_GetPerformanceFrequency
0000b120 t SDL_GetPerformanceFrequency_DEFAULT
         U SDL_GetPerformanceFrequency_REAL
00000ec0 T SDL_GetPixelFormatName
00008b50 t SDL_GetPixelFormatName_DEFAULT
         U SDL_GetPixelFormatName_REAL
00000fa0 T SDL_GetPlatform
00008e10 t SDL_GetPlatform_DEFAULT
         U SDL_GetPlatform_REAL
00003390 T SDL_GetPointDisplayIndex
0000efb0 t SDL_GetPointDisplayIndex_DEFAULT
         U SDL_GetPointDisplayIndex_REAL
00000fb0 T SDL_GetPowerInfo
00008e30 t SDL_GetPowerInfo_DEFAULT
         U SDL_GetPowerInfo_REAL
00000560 T SDL_GetPrefPath
00007640 t SDL_GetPrefPath_DEFAULT
         U SDL_GetPrefPath_REAL
00002c50 T SDL_GetPreferredLocales
0000dbc0 t SDL_GetPreferredLocales_DEFAULT
         U SDL_GetPreferredLocales_REAL
00003420 T SDL_GetPrimarySelectionText
0000f0f0 t SDL_GetPrimarySelectionText_DEFAULT
         U SDL_GetPrimarySelectionText_REAL
000021d0 T SDL_GetQueuedAudioSize
0000c060 t SDL_GetQueuedAudioSize_DEFAULT
         U SDL_GetQueuedAudioSize_REAL
00000f70 T SDL_GetRGB
00000f80 T SDL_GetRGBA
00008da0 t SDL_GetRGBA_DEFAULT
         U SDL_GetRGBA_REAL
00008d60 t SDL_GetRGB_DEFAULT
         U SDL_GetRGB_REAL
000033a0 T SDL_GetRectDisplayIndex
0000efd0 t SDL_GetRectDisplayIndex_DEFAULT
         U SDL_GetRectDisplayIndex_REAL
00000d10 T SDL_GetRelativeMouseMode
00008790 t SDL_GetRelativeMouseMode_DEFAULT
         U SDL_GetRelativeMouseMode_REAL
00000ce0 T SDL_GetRelativeMouseState
00008710 t SDL_GetRelativeMouseState_DEFAULT
         U SDL_GetRelativeMouseState_REAL
00001240 T SDL_GetRenderDrawBlendMode
00009650 t SDL_GetRenderDrawBlendMode_DEFAULT
         U SDL_GetRenderDrawBlendMode_REAL
00001220 T SDL_GetRenderDrawColor
000095e0 t SDL_GetRenderDrawColor_DEFAULT
         U SDL_GetRenderDrawColor_REAL
00001020 T SDL_GetRenderDriverInfo
00008f90 t SDL_GetRenderDriverInfo_DEFAULT
         U SDL_GetRenderDriverInfo_REAL
00001180 T SDL_GetRenderTarget
000093f0 t SDL_GetRenderTarget_DEFAULT
         U SDL_GetRenderTarget_REAL
00001060 T SDL_GetRenderer
00001070 T SDL_GetRendererInfo
00009070 t SDL_GetRendererInfo_DEFAULT
         U SDL_GetRendererInfo_REAL
00001080 T SDL_GetRendererOutputSize
000090a0 t SDL_GetRendererOutputSize_DEFAULT
         U SDL_GetRendererOutputSize_REAL
00009050 t SDL_GetRenderer_DEFAULT
         U SDL_GetRenderer_REAL
00001c30 T SDL_GetRevision
00001c40 T SDL_GetRevisionNumber
0000b280 t SDL_GetRevisionNumber_DEFAULT
         U SDL_GetRevisionNumber_REAL
0000b260 t SDL_GetRevision_DEFAULT
         U SDL_GetRevision_REAL
00000b40 T SDL_GetScancodeFromKey
00008330 t SDL_GetScancodeFromKey_DEFAULT
         U SDL_GetScancodeFromKey_REAL
00000b60 T SDL_GetScancodeFromName
00008370 t SDL_GetScancodeFromName_DEFAULT
         U SDL_GetScancodeFromName_REAL
00000b50 T SDL_GetScancodeName
00008350 t SDL_GetScancodeName_DEFAULT
         U SDL_GetScancodeName_REAL
000014c0 T SDL_GetShapedWindowMode
00009d30 t SDL_GetShapedWindowMode_DEFAULT
         U SDL_GetShapedWindowMode_REAL
000019f0 T SDL_GetSurfaceAlphaMod
0000ac30 t SDL_GetSurfaceAlphaMod_DEFAULT
         U SDL_GetSurfaceAlphaMod_REAL
00001a10 T SDL_GetSurfaceBlendMode
0000ac90 t SDL_GetSurfaceBlendMode_DEFAULT
         U SDL_GetSurfaceBlendMode_REAL
000019d0 T SDL_GetSurfaceColorMod
0000abc0 t SDL_GetSurfaceColorMod_DEFAULT
         U SDL_GetSurfaceColorMod_REAL
00000400 T SDL_GetSystemRAM
000072d0 t SDL_GetSystemRAM_DEFAULT
         U SDL_GetSystemRAM_REAL
000010f0 T SDL_GetTextureAlphaMod
00009230 t SDL_GetTextureAlphaMod_DEFAULT
         U SDL_GetTextureAlphaMod_REAL
00001110 T SDL_GetTextureBlendMode
00009290 t SDL_GetTextureBlendMode_DEFAULT
         U SDL_GetTextureBlendMode_REAL
000010d0 T SDL_GetTextureColorMod
000091c0 t SDL_GetTextureColorMod_DEFAULT
         U SDL_GetTextureColorMod_REAL
00002af0 T SDL_GetTextureScaleMode
0000d860 t SDL_GetTextureScaleMode_DEFAULT
         U SDL_GetTextureScaleMode_REAL
00002f80 T SDL_GetTextureUserData
0000e490 t SDL_GetTextureUserData_DEFAULT
         U SDL_GetTextureUserData_REAL
00001b10 T SDL_GetThreadID
0000afe0 t SDL_GetThreadID_DEFAULT
         U SDL_GetThreadID_REAL
00001af0 T SDL_GetThreadName
0000afa0 t SDL_GetThreadName_DEFAULT
         U SDL_GetThreadName_REAL
00001b80 T SDL_GetTicks
00002fe0 T SDL_GetTicks64
0000e600 t SDL_GetTicks64_DEFAULT
         U SDL_GetTicks64_REAL
0000b0e0 t SDL_GetTicks_DEFAULT
         U SDL_GetTicks_REAL
00001bf0 T SDL_GetTouchDevice
00002960 T SDL_GetTouchDeviceType
0000d470 t SDL_GetTouchDeviceType_DEFAULT
         U SDL_GetTouchDeviceType_REAL
0000b1d0 t SDL_GetTouchDevice_DEFAULT
         U SDL_GetTouchDevice_REAL
00001c10 T SDL_GetTouchFinger
0000b210 t SDL_GetTouchFinger_DEFAULT
         U SDL_GetTouchFinger_REAL
000031d0 T SDL_GetTouchName
0000eb70 t SDL_GetTouchName_DEFAULT
         U SDL_GetTouchName_REAL
00001c20 T SDL_GetVersion
0000b240 t SDL_GetVersion_DEFAULT
         U SDL_GetVersion_REAL
00001c60 T SDL_GetVideoDriver
0000b2c0 t SDL_GetVideoDriver_DEFAULT
         U SDL_GetVideoDriver_REAL
00002260 T SDL_GetWindowBordersSize
0000c1c0 t SDL_GetWindowBordersSize_DEFAULT
         U SDL_GetWindowBordersSize_REAL
00001f60 T SDL_GetWindowBrightness
0000ba60 t SDL_GetWindowBrightness_DEFAULT
         U SDL_GetWindowBrightness_REAL
00001df0 T SDL_GetWindowData
0000b6a0 t SDL_GetWindowData_DEFAULT
         U SDL_GetWindowData_REAL
00001d20 T SDL_GetWindowDisplayIndex
0000b490 t SDL_GetWindowDisplayIndex_DEFAULT
         U SDL_GetWindowDisplayIndex_REAL
00001d40 T SDL_GetWindowDisplayMode
0000b4e0 t SDL_GetWindowDisplayMode_DEFAULT
         U SDL_GetWindowDisplayMode_REAL
00001da0 T SDL_GetWindowFlags
0000b5d0 t SDL_GetWindowFlags_DEFAULT
         U SDL_GetWindowFlags_REAL
00001d90 T SDL_GetWindowFromID
0000b5b0 t SDL_GetWindowFromID_DEFAULT
         U SDL_GetWindowFromID_REAL
00001f80 T SDL_GetWindowGammaRamp
0000bac0 t SDL_GetWindowGammaRamp_DEFAULT
         U SDL_GetWindowGammaRamp_REAL
00001f40 T SDL_GetWindowGrab
0000ba10 t SDL_GetWindowGrab_DEFAULT
         U SDL_GetWindowGrab_REAL
00002fd0 T SDL_GetWindowICCProfile
0000e5d0 t SDL_GetWindowICCProfile_DEFAULT
         U SDL_GetWindowICCProfile_REAL
00001d80 T SDL_GetWindowID
0000b590 t SDL_GetWindowID_DEFAULT
         U SDL_GetWindowID_REAL
00002e60 T SDL_GetWindowKeyboardGrab
0000e1e0 t SDL_GetWindowKeyboardGrab_DEFAULT
         U SDL_GetWindowKeyboardGrab_REAL
00001e70 T SDL_GetWindowMaximumSize
0000b820 t SDL_GetWindowMaximumSize_DEFAULT
         U SDL_GetWindowMaximumSize_REAL
00001e50 T SDL_GetWindowMinimumSize
0000b7c0 t SDL_GetWindowMinimumSize_DEFAULT
         U SDL_GetWindowMinimumSize_REAL
00002e70 T SDL_GetWindowMouseGrab
0000e200 t SDL_GetWindowMouseGrab_DEFAULT
         U SDL_GetWindowMouseGrab_REAL
00003140 T SDL_GetWindowMouseRect
0000e9e0 t SDL_GetWindowMouseRect_DEFAULT
         U SDL_GetWindowMouseRect_REAL
00002280 T SDL_GetWindowOpacity
0000c230 t SDL_GetWindowOpacity_DEFAULT
         U SDL_GetWindowOpacity_REAL
00001d50 T SDL_GetWindowPixelFormat
0000b510 t SDL_GetWindowPixelFormat_DEFAULT
         U SDL_GetWindowPixelFormat_REAL
00001e10 T SDL_GetWindowPosition
0000b700 t SDL_GetWindowPosition_DEFAULT
         U SDL_GetWindowPosition_REAL
00001e30 T SDL_GetWindowSize
000033d0 T SDL_GetWindowSizeInPixels
0000f040 t SDL_GetWindowSizeInPixels_DEFAULT
         U SDL_GetWindowSizeInPixels_REAL
0000b760 t SDL_GetWindowSize_DEFAULT
         U SDL_GetWindowSize_REAL
00001f00 T SDL_GetWindowSurface
0000b970 t SDL_GetWindowSurface_DEFAULT
         U SDL_GetWindowSurface_REAL
00001dc0 T SDL_GetWindowTitle
0000b620 t SDL_GetWindowTitle_DEFAULT
         U SDL_GetWindowTitle_REAL
00001ae0 T SDL_GetWindowWMInfo
0000af70 t SDL_GetWindowWMInfo_DEFAULT
         U SDL_GetWindowWMInfo_REAL
00002690 T SDL_GetYUVConversionMode
000026a0 T SDL_GetYUVConversionModeForResolution
0000cd30 t SDL_GetYUVConversionModeForResolution_DEFAULT
         U SDL_GetYUVConversionModeForResolution_REAL
0000cd10 t SDL_GetYUVConversionMode_DEFAULT
         U SDL_GetYUVConversionMode_REAL
000007b0 T SDL_HapticClose
00007b00 t SDL_HapticClose_DEFAULT
         U SDL_HapticClose_REAL
00000850 T SDL_HapticDestroyEffect
00007c90 t SDL_HapticDestroyEffect_DEFAULT
         U SDL_HapticDestroyEffect_REAL
00000800 T SDL_HapticEffectSupported
00007ba0 t SDL_HapticEffectSupported_DEFAULT
         U SDL_HapticEffectSupported_REAL
00000860 T SDL_HapticGetEffectStatus
00007cc0 t SDL_HapticGetEffectStatus_DEFAULT
         U SDL_HapticGetEffectStatus_REAL
00000760 T SDL_HapticIndex
00007a60 t SDL_HapticIndex_DEFAULT
         U SDL_HapticIndex_REAL
00000730 T SDL_HapticName
00007a00 t SDL_HapticName_DEFAULT
         U SDL_HapticName_REAL
00000810 T SDL_HapticNewEffect
00007bd0 t SDL_HapticNewEffect_DEFAULT
         U SDL_HapticNewEffect_REAL
000007f0 T SDL_HapticNumAxes
00007b80 t SDL_HapticNumAxes_DEFAULT
         U SDL_HapticNumAxes_REAL
000007c0 T SDL_HapticNumEffects
000007d0 T SDL_HapticNumEffectsPlaying
00007b40 t SDL_HapticNumEffectsPlaying_DEFAULT
         U SDL_HapticNumEffectsPlaying_REAL
00007b20 t SDL_HapticNumEffects_DEFAULT
         U SDL_HapticNumEffects_REAL
00000740 T SDL_HapticOpen
000007a0 T SDL_HapticOpenFromJoystick
00007ae0 t SDL_HapticOpenFromJoystick_DEFAULT
         U SDL_HapticOpenFromJoystick_REAL
00000780 T SDL_HapticOpenFromMouse
00007aa0 t SDL_HapticOpenFromMouse_DEFAULT
         U SDL_HapticOpenFromMouse_REAL
00007a20 t SDL_HapticOpen_DEFAULT
         U SDL_HapticOpen_REAL
00000750 T SDL_HapticOpened
00007a40 t SDL_HapticOpened_DEFAULT
         U SDL_HapticOpened_REAL
00000890 T SDL_HapticPause
00007d50 t SDL_HapticPause_DEFAULT
         U SDL_HapticPause_REAL
000007e0 T SDL_HapticQuery
00007b60 t SDL_HapticQuery_DEFAULT
         U SDL_HapticQuery_REAL
000008d0 T SDL_HapticRumbleInit
00007dd0 t SDL_HapticRumbleInit_DEFAULT
         U SDL_HapticRumbleInit_REAL
000008e0 T SDL_HapticRumblePlay
00007df0 t SDL_HapticRumblePlay_DEFAULT
         U SDL_HapticRumblePlay_REAL
000008f0 T SDL_HapticRumbleStop
00007e30 t SDL_HapticRumbleStop_DEFAULT
         U SDL_HapticRumbleStop_REAL
000008c0 T SDL_HapticRumbleSupported
00007db0 t SDL_HapticRumbleSupported_DEFAULT
         U SDL_HapticRumbleSupported_REAL
00000830 T SDL_HapticRunEffect
00007c30 t SDL_HapticRunEffect_DEFAULT
         U SDL_HapticRunEffect_REAL
00000880 T SDL_HapticSetAutocenter
00007d20 t SDL_HapticSetAutocenter_DEFAULT
         U SDL_HapticSetAutocenter_REAL
00000870 T SDL_HapticSetGain
00007cf0 t SDL_HapticSetGain_DEFAULT
         U SDL_HapticSetGain_REAL
000008b0 T SDL_HapticStopAll
00007d90 t SDL_HapticStopAll_DEFAULT
         U SDL_HapticStopAll_REAL
00000840 T SDL_HapticStopEffect
00007c60 t SDL_HapticStopEffect_DEFAULT
         U SDL_HapticStopEffect_REAL
000008a0 T SDL_HapticUnpause
00007d70 t SDL_HapticUnpause_DEFAULT
         U SDL_HapticUnpause_REAL
00000820 T SDL_HapticUpdateEffect
00007c00 t SDL_HapticUpdateEffect_DEFAULT
         U SDL_HapticUpdateEffect_REAL
000003a0 T SDL_Has3DNow
00007210 t SDL_Has3DNow_DEFAULT
         U SDL_Has3DNow_REAL
00002a40 T SDL_HasARMSIMD
0000d6a0 t SDL_HasARMSIMD_DEFAULT
         U SDL_HasARMSIMD_REAL
000020f0 T SDL_HasAVX
000021b0 T SDL_HasAVX2
0000c010 t SDL_HasAVX2_DEFAULT
         U SDL_HasAVX2_REAL
00002700 T SDL_HasAVX512F
0000ce20 t SDL_HasAVX512F_DEFAULT
         U SDL_HasAVX512F_REAL
0000be20 t SDL_HasAVX_DEFAULT
         U SDL_HasAVX_REAL
00000380 T SDL_HasAltiVec
000071d0 t SDL_HasAltiVec_DEFAULT
         U SDL_HasAltiVec_REAL
00000340 T SDL_HasClipboardText
00007150 t SDL_HasClipboardText_DEFAULT
         U SDL_HasClipboardText_REAL
00002860 T SDL_HasColorKey
0000d150 t SDL_HasColorKey_DEFAULT
         U SDL_HasColorKey_REAL
00000460 T SDL_HasEvent
000073b0 t SDL_HasEvent_DEFAULT
         U SDL_HasEvent_REAL
00000470 T SDL_HasEvents
000073d0 t SDL_HasEvents_DEFAULT
         U SDL_HasEvents_REAL
00000fc0 T SDL_HasIntersection
00003200 T SDL_HasIntersectionF
0000ebd0 t SDL_HasIntersectionF_DEFAULT
         U SDL_HasIntersectionF_REAL
00008e60 t SDL_HasIntersection_DEFAULT
         U SDL_HasIntersection_REAL
00003330 T SDL_HasLASX
0000eeb0 t SDL_HasLASX_DEFAULT
         U SDL_HasLASX_REAL
00003320 T SDL_HasLSX
0000ee90 t SDL_HasLSX_DEFAULT
         U SDL_HasLSX_REAL
00000390 T SDL_HasMMX
000071f0 t SDL_HasMMX_DEFAULT
         U SDL_HasMMX_REAL
000023b0 T SDL_HasNEON
0000c530 t SDL_HasNEON_DEFAULT
         U SDL_HasNEON_REAL
00003430 T SDL_HasPrimarySelectionText
0000f110 t SDL_HasPrimarySelectionText_DEFAULT
         U SDL_HasPrimarySelectionText_REAL
00000370 T SDL_HasRDTSC
000071b0 t SDL_HasRDTSC_DEFAULT
         U SDL_HasRDTSC_REAL
000003b0 T SDL_HasSSE
000003c0 T SDL_HasSSE2
00007250 t SDL_HasSSE2_DEFAULT
         U SDL_HasSSE2_REAL
000003d0 T SDL_HasSSE3
00007270 t SDL_HasSSE3_DEFAULT
         U SDL_HasSSE3_REAL
000003e0 T SDL_HasSSE41
00007290 t SDL_HasSSE41_DEFAULT
         U SDL_HasSSE41_REAL
000003f0 T SDL_HasSSE42
000072b0 t SDL_HasSSE42_DEFAULT
         U SDL_HasSSE42_REAL
00007230 t SDL_HasSSE_DEFAULT
         U SDL_HasSSE_REAL
00000bd0 T SDL_HasScreenKeyboardSupport
00008450 t SDL_HasScreenKeyboardSupport_DEFAULT
         U SDL_HasScreenKeyboardSupport_REAL
00002c80 T SDL_HasSurfaceRLE
0000dc30 t SDL_HasSurfaceRLE_DEFAULT
         U SDL_HasSurfaceRLE_REAL
00003480 T SDL_HasWindowSurface
0000f200 t SDL_HasWindowSurface_DEFAULT
         U SDL_HasWindowSurface_REAL
00001ea0 T SDL_HideWindow
0000b8a0 t SDL_HideWindow_DEFAULT
         U SDL_HideWindow_REAL
00000060 T SDL_Init
0000f240 t SDL_InitDynamicAPI
00000000 b SDL_InitDynamicAPI.already_initialized
00000004 b SDL_InitDynamicAPI.lock
00000070 T SDL_InitSubSystem
00006a60 t SDL_InitSubSystem_DEFAULT
         U SDL_InitSubSystem_REAL
00006a40 t SDL_Init_DEFAULT
         U SDL_Init_REAL
00003210 T SDL_IntersectFRect
00003240 T SDL_IntersectFRectAndLine
0000eca0 t SDL_IntersectFRectAndLine_DEFAULT
         U SDL_IntersectFRectAndLine_REAL
0000ec00 t SDL_IntersectFRect_DEFAULT
         U SDL_IntersectFRect_REAL
00000fd0 T SDL_IntersectRect
00001000 T SDL_IntersectRectAndLine
00008f30 t SDL_IntersectRectAndLine_DEFAULT
         U SDL_IntersectRectAndLine_REAL
00008e90 t SDL_IntersectRect_DEFAULT
         U SDL_IntersectRect_REAL
000005b0 T SDL_IsGameController
000076e0 t SDL_IsGameController_DEFAULT
         U SDL_IsGameController_REAL
00000be0 T SDL_IsScreenKeyboardShown
00008470 t SDL_IsScreenKeyboardShown_DEFAULT
         U SDL_IsScreenKeyboardShown_REAL
00001fa0 T SDL_IsScreenSaverEnabled
0000bb20 t SDL_IsScreenSaverEnabled_DEFAULT
         U SDL_IsScreenSaverEnabled_REAL
000014a0 T SDL_IsShapedWindow
00009ce0 t SDL_IsShapedWindow_DEFAULT
         U SDL_IsShapedWindow_REAL
00002840 T SDL_IsTablet
0000d110 t SDL_IsTablet_DEFAULT
         U SDL_IsTablet_REAL
00000ba0 T SDL_IsTextInputActive
000083f0 t SDL_IsTextInputActive_DEFAULT
         U SDL_IsTextInputActive_REAL
000031f0 T SDL_IsTextInputShown
0000ebb0 t SDL_IsTextInputShown_DEFAULT
         U SDL_IsTextInputShown_REAL
00002b80 T SDL_JoystickAttachVirtual
000032b0 T SDL_JoystickAttachVirtualEx
0000edc0 t SDL_JoystickAttachVirtualEx_DEFAULT
         U SDL_JoystickAttachVirtualEx_REAL
0000d990 t SDL_JoystickAttachVirtual_DEFAULT
         U SDL_JoystickAttachVirtual_REAL
00000ae0 T SDL_JoystickClose
00008270 t SDL_JoystickClose_DEFAULT
         U SDL_JoystickClose_REAL
00002220 T SDL_JoystickCurrentPowerLevel
0000c130 t SDL_JoystickCurrentPowerLevel_DEFAULT
         U SDL_JoystickCurrentPowerLevel_REAL
00002b90 T SDL_JoystickDetachVirtual
0000d9d0 t SDL_JoystickDetachVirtual_DEFAULT
         U SDL_JoystickDetachVirtual_REAL
00000a90 T SDL_JoystickEventState
00008180 t SDL_JoystickEventState_DEFAULT
         U SDL_JoystickEventState_REAL
00002240 T SDL_JoystickFromInstanceID
0000c170 t SDL_JoystickFromInstanceID_DEFAULT
         U SDL_JoystickFromInstanceID_REAL
00002ac0 T SDL_JoystickFromPlayerIndex
0000d7e0 t SDL_JoystickFromPlayerIndex_DEFAULT
         U SDL_JoystickFromPlayerIndex_REAL
00000a20 T SDL_JoystickGetAttached
000080a0 t SDL_JoystickGetAttached_DEFAULT
         U SDL_JoystickGetAttached_REAL
00000aa0 T SDL_JoystickGetAxis
000023e0 T SDL_JoystickGetAxisInitialState
0000c590 t SDL_JoystickGetAxisInitialState_DEFAULT
         U SDL_JoystickGetAxisInitialState_REAL
000081a0 t SDL_JoystickGetAxis_DEFAULT
         U SDL_JoystickGetAxis_REAL
00000ac0 T SDL_JoystickGetBall
00008200 t SDL_JoystickGetBall_DEFAULT
         U SDL_JoystickGetBall_REAL
00000ad0 T SDL_JoystickGetButton
00008240 t SDL_JoystickGetButton_DEFAULT
         U SDL_JoystickGetButton_REAL
000009a0 T SDL_JoystickGetDeviceGUID
00007fd0 t SDL_JoystickGetDeviceGUID_DEFAULT
         U SDL_JoystickGetDeviceGUID_REAL
00002430 T SDL_JoystickGetDeviceInstanceID
0000c640 t SDL_JoystickGetDeviceInstanceID_DEFAULT
         U SDL_JoystickGetDeviceInstanceID_REAL
00002880 T SDL_JoystickGetDevicePlayerIndex
0000d1b0 t SDL_JoystickGetDevicePlayerIndex_DEFAULT
         U SDL_JoystickGetDevicePlayerIndex_REAL
00002330 T SDL_JoystickGetDeviceProduct
00002340 T SDL_JoystickGetDeviceProductVersion
0000c450 t SDL_JoystickGetDeviceProductVersion_DEFAULT
         U SDL_JoystickGetDeviceProductVersion_REAL
0000c430 t SDL_JoystickGetDeviceProduct_DEFAULT
         U SDL_JoystickGetDeviceProduct_REAL
000023f0 T SDL_JoystickGetDeviceType
0000c5c0 t SDL_JoystickGetDeviceType_DEFAULT
         U SDL_JoystickGetDeviceType_REAL
00002320 T SDL_JoystickGetDeviceVendor
0000c410 t SDL_JoystickGetDeviceVendor_DEFAULT
         U SDL_JoystickGetDeviceVendor_REAL
000032d0 T SDL_JoystickGetFirmwareVersion
0000ee00 t SDL_JoystickGetFirmwareVersion_DEFAULT
         U SDL_JoystickGetFirmwareVersion_REAL
000009c0 T SDL_JoystickGetGUID
00000a00 T SDL_JoystickGetGUIDFromString
00008070 t SDL_JoystickGetGUIDFromString_DEFAULT
         U SDL_JoystickGetGUIDFromString_REAL
000009e0 T SDL_JoystickGetGUIDString
00008030 t SDL_JoystickGetGUIDString_DEFAULT
         U SDL_JoystickGetGUIDString_REAL
00008000 t SDL_JoystickGetGUID_DEFAULT
         U SDL_JoystickGetGUID_REAL
00000ab0 T SDL_JoystickGetHat
000081d0 t SDL_JoystickGetHat_DEFAULT
         U SDL_JoystickGetHat_REAL
00002890 T SDL_JoystickGetPlayerIndex
0000d1d0 t SDL_JoystickGetPlayerIndex_DEFAULT
         U SDL_JoystickGetPlayerIndex_REAL
00002360 T SDL_JoystickGetProduct
00002370 T SDL_JoystickGetProductVersion
0000c4b0 t SDL_JoystickGetProductVersion_DEFAULT
         U SDL_JoystickGetProductVersion_REAL
0000c490 t SDL_JoystickGetProduct_DEFAULT
         U SDL_JoystickGetProduct_REAL
00002d60 T SDL_JoystickGetSerial
0000ded0 t SDL_JoystickGetSerial_DEFAULT
         U SDL_JoystickGetSerial_REAL
00002400 T SDL_JoystickGetType
0000c5e0 t SDL_JoystickGetType_DEFAULT
         U SDL_JoystickGetType_REAL
00002350 T SDL_JoystickGetVendor
0000c470 t SDL_JoystickGetVendor_DEFAULT
         U SDL_JoystickGetVendor_REAL
00002cb0 T SDL_JoystickHasLED
0000dcb0 t SDL_JoystickHasLED_DEFAULT
         U SDL_JoystickHasLED_REAL
00003170 T SDL_JoystickHasRumble
00003180 T SDL_JoystickHasRumbleTriggers
0000eab0 t SDL_JoystickHasRumbleTriggers_DEFAULT
         U SDL_JoystickHasRumbleTriggers_REAL
0000ea90 t SDL_JoystickHasRumble_DEFAULT
         U SDL_JoystickHasRumble_REAL
00000a30 T SDL_JoystickInstanceID
000080c0 t SDL_JoystickInstanceID_DEFAULT
         U SDL_JoystickInstanceID_REAL
00000790 T SDL_JoystickIsHaptic
00007ac0 t SDL_JoystickIsHaptic_DEFAULT
         U SDL_JoystickIsHaptic_REAL
00002ba0 T SDL_JoystickIsVirtual
0000d9f0 t SDL_JoystickIsVirtual_DEFAULT
         U SDL_JoystickIsVirtual_REAL
00000990 T SDL_JoystickName
00000970 T SDL_JoystickNameForIndex
00007f70 t SDL_JoystickNameForIndex_DEFAULT
         U SDL_JoystickNameForIndex_REAL
00007fb0 t SDL_JoystickName_DEFAULT
         U SDL_JoystickName_REAL
00000a40 T SDL_JoystickNumAxes
000080e0 t SDL_JoystickNumAxes_DEFAULT
         U SDL_JoystickNumAxes_REAL
00000a50 T SDL_JoystickNumBalls
00008100 t SDL_JoystickNumBalls_DEFAULT
         U SDL_JoystickNumBalls_REAL
00000a70 T SDL_JoystickNumButtons
00008140 t SDL_JoystickNumButtons_DEFAULT
         U SDL_JoystickNumButtons_REAL
00000a60 T SDL_JoystickNumHats
00008120 t SDL_JoystickNumHats_DEFAULT
         U SDL_JoystickNumHats_REAL
00000980 T SDL_JoystickOpen
00007f90 t SDL_JoystickOpen_DEFAULT
         U SDL_JoystickOpen_REAL
000032a0 T SDL_JoystickPath
00003290 T SDL_JoystickPathForIndex
0000ed80 t SDL_JoystickPathForIndex_DEFAULT
         U SDL_JoystickPathForIndex_REAL
0000eda0 t SDL_JoystickPath_DEFAULT
         U SDL_JoystickPath_REAL
00002750 T SDL_JoystickRumble
00002ce0 T SDL_JoystickRumbleTriggers
0000dd50 t SDL_JoystickRumbleTriggers_DEFAULT
         U SDL_JoystickRumbleTriggers_REAL
0000cf00 t SDL_JoystickRumble_DEFAULT
         U SDL_JoystickRumble_REAL
00002f50 T SDL_JoystickSendEffect
0000e400 t SDL_JoystickSendEffect_DEFAULT
         U SDL_JoystickSendEffect_REAL
00002cc0 T SDL_JoystickSetLED
0000dcd0 t SDL_JoystickSetLED_DEFAULT
         U SDL_JoystickSetLED_REAL
00002ad0 T SDL_JoystickSetPlayerIndex
0000d800 t SDL_JoystickSetPlayerIndex_DEFAULT
         U SDL_JoystickSetPlayerIndex_REAL
00002bb0 T SDL_JoystickSetVirtualAxis
0000da10 t SDL_JoystickSetVirtualAxis_DEFAULT
         U SDL_JoystickSetVirtualAxis_REAL
00002bc0 T SDL_JoystickSetVirtualButton
0000da40 t SDL_JoystickSetVirtualButton_DEFAULT
         U SDL_JoystickSetVirtualButton_REAL
00002bd0 T SDL_JoystickSetVirtualHat
0000da70 t SDL_JoystickSetVirtualHat_DEFAULT
         U SDL_JoystickSetVirtualHat_REAL
00000a80 T SDL_JoystickUpdate
00008160 t SDL_JoystickUpdate_DEFAULT
         U SDL_JoystickUpdate_REAL
00001970 T SDL_LoadBMP_RW
0000aa90 t SDL_LoadBMP_RW_DEFAULT
         U SDL_LoadBMP_RW_REAL
00000710 T SDL_LoadDollarTemplates
000079b0 t SDL_LoadDollarTemplates_DEFAULT
         U SDL_LoadDollarTemplates_REAL
00002a00 T SDL_LoadFile
0000d600 t SDL_LoadFile_DEFAULT
         U SDL_LoadFile_REAL
00002450 T SDL_LoadFile_RW
0000c680 t SDL_LoadFile_RW_DEFAULT
         U SDL_LoadFile_RW_REAL
00000c00 T SDL_LoadFunction
000084b0 t SDL_LoadFunction_DEFAULT
         U SDL_LoadFunction_REAL
00000bf0 T SDL_LoadObject
00008490 t SDL_LoadObject_DEFAULT
         U SDL_LoadObject_REAL
00000260 T SDL_LoadWAV_RW
00006f10 t SDL_LoadWAV_RW_DEFAULT
         U SDL_LoadWAV_RW_REAL
000002c0 T SDL_LockAudio
000002d0 T SDL_LockAudioDevice
00007070 t SDL_LockAudioDevice_DEFAULT
         U SDL_LockAudioDevice_REAL
00007050 t SDL_LockAudio_DEFAULT
         U SDL_LockAudio_REAL
000024f0 T SDL_LockJoysticks
0000c830 t SDL_LockJoysticks_DEFAULT
         U SDL_LockJoysticks_REAL
00000db0 T SDL_LockMutex
00008900 t SDL_LockMutex_DEFAULT
         U SDL_LockMutex_REAL
00002bf0 T SDL_LockSensors
0000dad0 t SDL_LockSensors_DEFAULT
         U SDL_LockSensors_REAL
00001950 T SDL_LockSurface
0000aa50 t SDL_LockSurface_DEFAULT
         U SDL_LockSurface_REAL
00001140 T SDL_LockTexture
00002a30 T SDL_LockTextureToSurface
0000d670 t SDL_LockTextureToSurface_DEFAULT
         U SDL_LockTextureToSurface_REAL
00009340 t SDL_LockTexture_DEFAULT
         U SDL_LockTexture_REAL
000035f0 T SDL_Log
00003740 T SDL_LogCritical
00006840 t SDL_LogCritical_DEFAULT
         U SDL_LogCritical_REAL
00003680 T SDL_LogDebug
00006740 t SDL_LogDebug_DEFAULT
         U SDL_LogDebug_REAL
00003710 T SDL_LogError
00006800 t SDL_LogError_DEFAULT
         U SDL_LogError_REAL
00000c70 T SDL_LogGetOutputFunction
000085d0 t SDL_LogGetOutputFunction_DEFAULT
         U SDL_LogGetOutputFunction_REAL
00000c40 T SDL_LogGetPriority
00008550 t SDL_LogGetPriority_DEFAULT
         U SDL_LogGetPriority_REAL
000036b0 T SDL_LogInfo
00006780 t SDL_LogInfo_DEFAULT
         U SDL_LogInfo_REAL
00003630 T SDL_LogMessage
00000c60 T SDL_LogMessageV
00008590 t SDL_LogMessageV_DEFAULT
         U SDL_LogMessageV_REAL
00006880 t SDL_LogMessage_DEFAULT
         U SDL_LogMessage_REAL
00000c50 T SDL_LogResetPriorities
00008570 t SDL_LogResetPriorities_DEFAULT
         U SDL_LogResetPriorities_REAL
00000c20 T SDL_LogSetAllPriority
00008500 t SDL_LogSetAllPriority_DEFAULT
         U SDL_LogSetAllPriority_REAL
00000c80 T SDL_LogSetOutputFunction
00008600 t SDL_LogSetOutputFunction_DEFAULT
         U SDL_LogSetOutputFunction_REAL
00000c30 T SDL_LogSetPriority
00008520 t SDL_LogSetPriority_DEFAULT
         U SDL_LogSetPriority_REAL
00003650 T SDL_LogVerbose
00006700 t SDL_LogVerbose_DEFAULT
         U SDL_LogVerbose_REAL
000036e0 T SDL_LogWarn
000067c0 t SDL_LogWarn_DEFAULT
         U SDL_LogWarn_REAL
000066c0 t SDL_Log_DEFAULT
         U SDL_Log_REAL
00001aa0 T SDL_LowerBlit
00001ad0 T SDL_LowerBlitScaled
0000af30 t SDL_LowerBlitScaled_DEFAULT
         U SDL_LowerBlitScaled_REAL
0000ae70 t SDL_LowerBlit_DEFAULT
         U SDL_LowerBlit_REAL
00000f50 T SDL_MapRGB
00000f60 T SDL_MapRGBA
00008d20 t SDL_MapRGBA_DEFAULT
         U SDL_MapRGBA_REAL
00008ce0 t SDL_MapRGB_DEFAULT
         U SDL_MapRGB_REAL
00000ee0 T SDL_MasksToPixelFormatEnum
00008bb0 t SDL_MasksToPixelFormatEnum_DEFAULT
         U SDL_MasksToPixelFormatEnum_REAL
00001ec0 T SDL_MaximizeWindow
0000b8e0 t SDL_MaximizeWindow_DEFAULT
         U SDL_MaximizeWindow_REAL
00002420 T SDL_MemoryBarrierAcquireFunction
0000c620 t SDL_MemoryBarrierAcquireFunction_DEFAULT
         U SDL_MemoryBarrierAcquireFunction_REAL
00002410 T SDL_MemoryBarrierReleaseFunction
0000c600 t SDL_MemoryBarrierReleaseFunction_DEFAULT
         U SDL_MemoryBarrierReleaseFunction_REAL
00002a10 T SDL_Metal_CreateView
0000d630 t SDL_Metal_CreateView_DEFAULT
         U SDL_Metal_CreateView_REAL
00002a20 T SDL_Metal_DestroyView
0000d650 t SDL_Metal_DestroyView_DEFAULT
         U SDL_Metal_DestroyView_REAL
00002c20 T SDL_Metal_GetDrawableSize
0000db30 t SDL_Metal_GetDrawableSize_DEFAULT
         U SDL_Metal_GetDrawableSize_REAL
00002c10 T SDL_Metal_GetLayer
0000db10 t SDL_Metal_GetLayer_DEFAULT
         U SDL_Metal_GetLayer_REAL
00001ed0 T SDL_MinimizeWindow
0000b900 t SDL_MinimizeWindow_DEFAULT
         U SDL_MinimizeWindow_REAL
000002a0 T SDL_MixAudio
000002b0 T SDL_MixAudioFormat
00007010 t SDL_MixAudioFormat_DEFAULT
         U SDL_MixAudioFormat_REAL
00006fd0 t SDL_MixAudio_DEFAULT
         U SDL_MixAudio_REAL
00000770 T SDL_MouseIsHaptic
00007a80 t SDL_MouseIsHaptic_DEFAULT
         U SDL_MouseIsHaptic_REAL
00002540 T SDL_NewAudioStream
0000c910 t SDL_NewAudioStream_DEFAULT
         U SDL_NewAudioStream_REAL
00000720 T SDL_NumHaptics
000079e0 t SDL_NumHaptics_DEFAULT
         U SDL_NumHaptics_REAL
00000960 T SDL_NumJoysticks
00007f50 t SDL_NumJoysticks_DEFAULT
         U SDL_NumJoysticks_REAL
00002760 T SDL_NumSensors
0000cf40 t SDL_NumSensors_DEFAULT
         U SDL_NumSensors_REAL
00002b50 T SDL_OnApplicationDidBecomeActive
0000d930 t SDL_OnApplicationDidBecomeActive_DEFAULT
         U SDL_OnApplicationDidBecomeActive_REAL
00002b30 T SDL_OnApplicationDidEnterBackground
0000d8f0 t SDL_OnApplicationDidEnterBackground_DEFAULT
         U SDL_OnApplicationDidEnterBackground_REAL
00002b10 T SDL_OnApplicationDidReceiveMemoryWarning
0000d8b0 t SDL_OnApplicationDidReceiveMemoryWarning_DEFAULT
         U SDL_OnApplicationDidReceiveMemoryWarning_REAL
00002b40 T SDL_OnApplicationWillEnterForeground
0000d910 t SDL_OnApplicationWillEnterForeground_DEFAULT
         U SDL_OnApplicationWillEnterForeground_REAL
00002b20 T SDL_OnApplicationWillResignActive
0000d8d0 t SDL_OnApplicationWillResignActive_DEFAULT
         U SDL_OnApplicationWillResignActive_REAL
00002b00 T SDL_OnApplicationWillTerminate
0000d890 t SDL_OnApplicationWillTerminate_DEFAULT
         U SDL_OnApplicationWillTerminate_REAL
000001e0 T SDL_OpenAudio
00000210 T SDL_OpenAudioDevice
00006e40 t SDL_OpenAudioDevice_DEFAULT
         U SDL_OpenAudioDevice_REAL
00006dc0 t SDL_OpenAudio_DEFAULT
         U SDL_OpenAudio_REAL
00002c70 T SDL_OpenURL
0000dc10 t SDL_OpenURL_DEFAULT
         U SDL_OpenURL_REAL
00000240 T SDL_PauseAudio
00000250 T SDL_PauseAudioDevice
00006ee0 t SDL_PauseAudioDevice_DEFAULT
         U SDL_PauseAudioDevice_REAL
00006ec0 t SDL_PauseAudio_DEFAULT
         U SDL_PauseAudio_REAL
00000450 T SDL_PeepEvents
00007370 t SDL_PeepEvents_DEFAULT
         U SDL_PeepEvents_REAL
00000ed0 T SDL_PixelFormatEnumToMasks
00008b70 t SDL_PixelFormatEnumToMasks_DEFAULT
         U SDL_PixelFormatEnumToMasks_REAL
000004a0 T SDL_PollEvent
00007450 t SDL_PollEvent_DEFAULT
         U SDL_PollEvent_REAL
000031c0 T SDL_PremultiplyAlpha
0000eb30 t SDL_PremultiplyAlpha_DEFAULT
         U SDL_PremultiplyAlpha_REAL
00000440 T SDL_PumpEvents
00007350 t SDL_PumpEvents_DEFAULT
         U SDL_PumpEvents_REAL
000004d0 T SDL_PushEvent
000074c0 t SDL_PushEvent_DEFAULT
         U SDL_PushEvent_REAL
000010b0 T SDL_QueryTexture
00009140 t SDL_QueryTexture_DEFAULT
         U SDL_QueryTexture_REAL
000021c0 T SDL_QueueAudio
0000c030 t SDL_QueueAudio_DEFAULT
         U SDL_QueueAudio_REAL
000000a0 T SDL_Quit
00000080 T SDL_QuitSubSystem
00006a80 t SDL_QuitSubSystem_DEFAULT
         U SDL_QuitSubSystem_REAL
00006ac0 t SDL_Quit_DEFAULT
         U SDL_Quit_REAL
00001380 T SDL_RWFromConstMem
00009a00 t SDL_RWFromConstMem_DEFAULT
         U SDL_RWFromConstMem_REAL
00000010 T SDL_RWFromFP
00006980 t SDL_RWFromFP_DEFAULT
         U SDL_RWFromFP_REAL
00001360 T SDL_RWFromFile
000099a0 t SDL_RWFromFile_DEFAULT
         U SDL_RWFromFile_REAL
00001370 T SDL_RWFromMem
000099d0 t SDL_RWFromMem_DEFAULT
         U SDL_RWFromMem_REAL
000029f0 T SDL_RWclose
0000d5e0 t SDL_RWclose_DEFAULT
         U SDL_RWclose_REAL
000029d0 T SDL_RWread
0000d560 t SDL_RWread_DEFAULT
         U SDL_RWread_REAL
000029b0 T SDL_RWseek
0000d510 t SDL_RWseek_DEFAULT
         U SDL_RWseek_REAL
000029a0 T SDL_RWsize
0000d4f0 t SDL_RWsize_DEFAULT
         U SDL_RWsize_REAL
000029c0 T SDL_RWtell
0000d540 t SDL_RWtell_DEFAULT
         U SDL_RWtell_REAL
000029e0 T SDL_RWwrite
0000d5a0 t SDL_RWwrite_DEFAULT
         U SDL_RWwrite_REAL
00001eb0 T SDL_RaiseWindow
0000b8c0 t SDL_RaiseWindow_DEFAULT
         U SDL_RaiseWindow_REAL
000013d0 T SDL_ReadBE16
00009ab0 t SDL_ReadBE16_DEFAULT
         U SDL_ReadBE16_REAL
000013f0 T SDL_ReadBE32
00009af0 t SDL_ReadBE32_DEFAULT
         U SDL_ReadBE32_REAL
00001410 T SDL_ReadBE64
00009b30 t SDL_ReadBE64_DEFAULT
         U SDL_ReadBE64_REAL
000013c0 T SDL_ReadLE16
00009a90 t SDL_ReadLE16_DEFAULT
         U SDL_ReadLE16_REAL
000013e0 T SDL_ReadLE32
00009ad0 t SDL_ReadLE32_DEFAULT
         U SDL_ReadLE32_REAL
00001400 T SDL_ReadLE64
00009b10 t SDL_ReadLE64_DEFAULT
         U SDL_ReadLE64_REAL
000013b0 T SDL_ReadU8
00009a70 t SDL_ReadU8_DEFAULT
         U SDL_ReadU8_REAL
000006e0 T SDL_RecordGesture
00007940 t SDL_RecordGesture_DEFAULT
         U SDL_RecordGesture_REAL
00000020 T SDL_RegisterApp
000069b0 t SDL_RegisterApp_DEFAULT
         U SDL_RegisterApp_REAL
00000540 T SDL_RegisterEvents
00007600 t SDL_RegisterEvents_DEFAULT
         U SDL_RegisterEvents_REAL
00001bd0 T SDL_RemoveTimer
0000b190 t SDL_RemoveTimer_DEFAULT
         U SDL_RemoveTimer_REAL
00001250 T SDL_RenderClear
00009680 t SDL_RenderClear_DEFAULT
         U SDL_RenderClear_REAL
000012e0 T SDL_RenderCopy
000012f0 T SDL_RenderCopyEx
00002950 T SDL_RenderCopyExF
0000d430 t SDL_RenderCopyExF_DEFAULT
         U SDL_RenderCopyExF_REAL
00009870 t SDL_RenderCopyEx_DEFAULT
         U SDL_RenderCopyEx_REAL
00002940 T SDL_RenderCopyF
0000d3f0 t SDL_RenderCopyF_DEFAULT
         U SDL_RenderCopyF_REAL
00009830 t SDL_RenderCopy_DEFAULT
         U SDL_RenderCopy_REAL
00001280 T SDL_RenderDrawLine
000028e0 T SDL_RenderDrawLineF
0000d2a0 t SDL_RenderDrawLineF_DEFAULT
         U SDL_RenderDrawLineF_REAL
00009700 t SDL_RenderDrawLine_DEFAULT
         U SDL_RenderDrawLine_REAL
00001290 T SDL_RenderDrawLines
000028f0 T SDL_RenderDrawLinesF
0000d300 t SDL_RenderDrawLinesF_DEFAULT
         U SDL_RenderDrawLinesF_REAL
00009740 t SDL_RenderDrawLines_DEFAULT
         U SDL_RenderDrawLines_REAL
00001260 T SDL_RenderDrawPoint
000028c0 T SDL_RenderDrawPointF
0000d230 t SDL_RenderDrawPointF_DEFAULT
         U SDL_RenderDrawPointF_REAL
000096a0 t SDL_RenderDrawPoint_DEFAULT
         U SDL_RenderDrawPoint_REAL
00001270 T SDL_RenderDrawPoints
000028d0 T SDL_RenderDrawPointsF
0000d270 t SDL_RenderDrawPointsF_DEFAULT
         U SDL_RenderDrawPointsF_REAL
000096d0 t SDL_RenderDrawPoints_DEFAULT
         U SDL_RenderDrawPoints_REAL
000012a0 T SDL_RenderDrawRect
00002900 T SDL_RenderDrawRectF
0000d330 t SDL_RenderDrawRectF_DEFAULT
         U SDL_RenderDrawRectF_REAL
00009770 t SDL_RenderDrawRect_DEFAULT
         U SDL_RenderDrawRect_REAL
000012b0 T SDL_RenderDrawRects
00002910 T SDL_RenderDrawRectsF
0000d360 t SDL_RenderDrawRectsF_DEFAULT
         U SDL_RenderDrawRectsF_REAL
000097a0 t SDL_RenderDrawRects_DEFAULT
         U SDL_RenderDrawRects_REAL
000012c0 T SDL_RenderFillRect
00002920 T SDL_RenderFillRectF
0000d390 t SDL_RenderFillRectF_DEFAULT
         U SDL_RenderFillRectF_REAL
000097d0 t SDL_RenderFillRect_DEFAULT
         U SDL_RenderFillRect_REAL
000012d0 T SDL_RenderFillRects
00002930 T SDL_RenderFillRectsF
0000d3c0 t SDL_RenderFillRectsF_DEFAULT
         U SDL_RenderFillRectsF_REAL
00009800 t SDL_RenderFillRects_DEFAULT
         U SDL_RenderFillRects_REAL
000028b0 T SDL_RenderFlush
0000d210 t SDL_RenderFlush_DEFAULT
         U SDL_RenderFlush_REAL
00002f90 T SDL_RenderGeometry
00002fa0 T SDL_RenderGeometryRaw
0000e4f0 t SDL_RenderGeometryRaw_DEFAULT
         U SDL_RenderGeometryRaw_REAL
0000e4b0 t SDL_RenderGeometry_DEFAULT
         U SDL_RenderGeometry_REAL
000011e0 T SDL_RenderGetClipRect
00009500 t SDL_RenderGetClipRect_DEFAULT
         U SDL_RenderGetClipRect_REAL
00002e20 T SDL_RenderGetD3D11Device
0000e120 t SDL_RenderGetD3D11Device_DEFAULT
         U SDL_RenderGetD3D11Device_REAL
00003340 T SDL_RenderGetD3D12Device
0000eed0 t SDL_RenderGetD3D12Device_DEFAULT
         U SDL_RenderGetD3D12Device_REAL
00000050 T SDL_RenderGetD3D9Device
00006a20 t SDL_RenderGetD3D9Device_DEFAULT
         U SDL_RenderGetD3D9Device_REAL
000022c0 T SDL_RenderGetIntegerScale
0000c2e0 t SDL_RenderGetIntegerScale_DEFAULT
         U SDL_RenderGetIntegerScale_REAL
000011a0 T SDL_RenderGetLogicalSize
00009440 t SDL_RenderGetLogicalSize_DEFAULT
         U SDL_RenderGetLogicalSize_REAL
000026c0 T SDL_RenderGetMetalCommandEncoder
0000cd80 t SDL_RenderGetMetalCommandEncoder_DEFAULT
         U SDL_RenderGetMetalCommandEncoder_REAL
000026b0 T SDL_RenderGetMetalLayer
0000cd60 t SDL_RenderGetMetalLayer_DEFAULT
         U SDL_RenderGetMetalLayer_REAL
00001200 T SDL_RenderGetScale
00009570 t SDL_RenderGetScale_DEFAULT
         U SDL_RenderGetScale_REAL
000011c0 T SDL_RenderGetViewport
000094a0 t SDL_RenderGetViewport_DEFAULT
         U SDL_RenderGetViewport_REAL
00003250 T SDL_RenderGetWindow
0000ece0 t SDL_RenderGetWindow_DEFAULT
         U SDL_RenderGetWindow_REAL
00002130 T SDL_RenderIsClipEnabled
0000beb0 t SDL_RenderIsClipEnabled_DEFAULT
         U SDL_RenderIsClipEnabled_REAL
00003160 T SDL_RenderLogicalToWindow
0000ea40 t SDL_RenderLogicalToWindow_DEFAULT
         U SDL_RenderLogicalToWindow_REAL
00001310 T SDL_RenderPresent
000098f0 t SDL_RenderPresent_DEFAULT
         U SDL_RenderPresent_REAL
00001300 T SDL_RenderReadPixels
000098b0 t SDL_RenderReadPixels_DEFAULT
         U SDL_RenderReadPixels_REAL
000011d0 T SDL_RenderSetClipRect
000094d0 t SDL_RenderSetClipRect_DEFAULT
         U SDL_RenderSetClipRect_REAL
000022b0 T SDL_RenderSetIntegerScale
0000c2b0 t SDL_RenderSetIntegerScale_DEFAULT
         U SDL_RenderSetIntegerScale_REAL
00001190 T SDL_RenderSetLogicalSize
00009410 t SDL_RenderSetLogicalSize_DEFAULT
         U SDL_RenderSetLogicalSize_REAL
000011f0 T SDL_RenderSetScale
00009530 t SDL_RenderSetScale_DEFAULT
         U SDL_RenderSetScale_REAL
00002fb0 T SDL_RenderSetVSync
0000e530 t SDL_RenderSetVSync_DEFAULT
         U SDL_RenderSetVSync_REAL
000011b0 T SDL_RenderSetViewport
00009470 t SDL_RenderSetViewport_DEFAULT
         U SDL_RenderSetViewport_REAL
00001160 T SDL_RenderTargetSupported
000093a0 t SDL_RenderTargetSupported_DEFAULT
         U SDL_RenderTargetSupported_REAL
00003150 T SDL_RenderWindowToLogical
0000ea00 t SDL_RenderWindowToLogical_DEFAULT
         U SDL_RenderWindowToLogical_REAL
000000b0 T SDL_ReportAssertion
00006ae0 t SDL_ReportAssertion_DEFAULT
         U SDL_ReportAssertion_REAL
000000e0 T SDL_ResetAssertionReport
00006b70 t SDL_ResetAssertionReport_DEFAULT
         U SDL_ResetAssertionReport_REAL
000033b0 T SDL_ResetHint
0000eff0 t SDL_ResetHint_DEFAULT
         U SDL_ResetHint_REAL
00003460 T SDL_ResetHints
0000f1b0 t SDL_ResetHints_DEFAULT
         U SDL_ResetHints_REAL
00003370 T SDL_ResetKeyboard
0000ef60 t SDL_ResetKeyboard_DEFAULT
         U SDL_ResetKeyboard_REAL
00001ee0 T SDL_RestoreWindow
0000b920 t SDL_RestoreWindow_DEFAULT
         U SDL_RestoreWindow_REAL
00002980 T SDL_SIMDAlloc
0000d4b0 t SDL_SIMDAlloc_DEFAULT
         U SDL_SIMDAlloc_REAL
00002990 T SDL_SIMDFree
0000d4d0 t SDL_SIMDFree_DEFAULT
         U SDL_SIMDFree_REAL
00002970 T SDL_SIMDGetAlignment
0000d490 t SDL_SIMDGetAlignment_DEFAULT
         U SDL_SIMDGetAlignment_REAL
00002c60 T SDL_SIMDRealloc
0000dbe0 t SDL_SIMDRealloc_DEFAULT
         U SDL_SIMDRealloc_REAL
000006f0 T SDL_SaveAllDollarTemplates
00007960 t SDL_SaveAllDollarTemplates_DEFAULT
         U SDL_SaveAllDollarTemplates_REAL
00001980 T SDL_SaveBMP_RW
0000aac0 t SDL_SaveBMP_RW_DEFAULT
         U SDL_SaveBMP_RW_REAL
00000700 T SDL_SaveDollarTemplate
00007980 t SDL_SaveDollarTemplate_DEFAULT
         U SDL_SaveDollarTemplate_REAL
00000e40 T SDL_SemPost
00008a30 t SDL_SemPost_DEFAULT
         U SDL_SemPost_REAL
00000e20 T SDL_SemTryWait
000089e0 t SDL_SemTryWait_DEFAULT
         U SDL_SemTryWait_REAL
00000e50 T SDL_SemValue
00008a50 t SDL_SemValue_DEFAULT
         U SDL_SemValue_REAL
00000e10 T SDL_SemWait
00000e30 T SDL_SemWaitTimeout
00008a00 t SDL_SemWaitTimeout_DEFAULT
         U SDL_SemWaitTimeout_REAL
000089c0 t SDL_SemWait_DEFAULT
         U SDL_SemWait_REAL
00002820 T SDL_SensorClose
0000d0d0 t SDL_SensorClose_DEFAULT
         U SDL_SensorClose_REAL
000027c0 T SDL_SensorFromInstanceID
0000d000 t SDL_SensorFromInstanceID_DEFAULT
         U SDL_SensorFromInstanceID_REAL
00002810 T SDL_SensorGetData
00003450 T SDL_SensorGetDataWithTimestamp
0000f170 t SDL_SensorGetDataWithTimestamp_DEFAULT
         U SDL_SensorGetDataWithTimestamp_REAL
0000d0a0 t SDL_SensorGetData_DEFAULT
         U SDL_SensorGetData_REAL
000027a0 T SDL_SensorGetDeviceInstanceID
0000cfc0 t SDL_SensorGetDeviceInstanceID_DEFAULT
         U SDL_SensorGetDeviceInstanceID_REAL
00002770 T SDL_SensorGetDeviceName
0000cf60 t SDL_SensorGetDeviceName_DEFAULT
         U SDL_SensorGetDeviceName_REAL
00002790 T SDL_SensorGetDeviceNonPortableType
0000cfa0 t SDL_SensorGetDeviceNonPortableType_DEFAULT
         U SDL_SensorGetDeviceNonPortableType_REAL
00002780 T SDL_SensorGetDeviceType
0000cf80 t SDL_SensorGetDeviceType_DEFAULT
         U SDL_SensorGetDeviceType_REAL
00002800 T SDL_SensorGetInstanceID
0000d080 t SDL_SensorGetInstanceID_DEFAULT
         U SDL_SensorGetInstanceID_REAL
000027d0 T SDL_SensorGetName
0000d020 t SDL_SensorGetName_DEFAULT
         U SDL_SensorGetName_REAL
000027f0 T SDL_SensorGetNonPortableType
0000d060 t SDL_SensorGetNonPortableType_DEFAULT
         U SDL_SensorGetNonPortableType_REAL
000027e0 T SDL_SensorGetType
0000d040 t SDL_SensorGetType_DEFAULT
         U SDL_SensorGetType_REAL
000027b0 T SDL_SensorOpen
0000cfe0 t SDL_SensorOpen_DEFAULT
         U SDL_SensorOpen_REAL
00002830 T SDL_SensorUpdate
0000d0f0 t SDL_SensorUpdate_DEFAULT
         U SDL_SensorUpdate_REAL
000000c0 T SDL_SetAssertionHandler
00006b20 t SDL_SetAssertionHandler_DEFAULT
         U SDL_SetAssertionHandler_REAL
00001a20 T SDL_SetClipRect
0000acc0 t SDL_SetClipRect_DEFAULT
         U SDL_SetClipRect_REAL
00000320 T SDL_SetClipboardText
00007110 t SDL_SetClipboardText_DEFAULT
         U SDL_SetClipboardText_REAL
000019a0 T SDL_SetColorKey
0000ab20 t SDL_SetColorKey_DEFAULT
         U SDL_SetColorKey_REAL
00000d50 T SDL_SetCursor
00008840 t SDL_SetCursor_DEFAULT
         U SDL_SetCursor_REAL
000034a0 T SDL_SetError
000065f0 t SDL_SetError_DEFAULT
         U SDL_SetError_REAL
000004e0 T SDL_SetEventFilter
000074e0 t SDL_SetEventFilter_DEFAULT
         U SDL_SetEventFilter_REAL
00000910 T SDL_SetHint
00000900 T SDL_SetHintWithPriority
00007e50 t SDL_SetHintWithPriority_DEFAULT
         U SDL_SetHintWithPriority_REAL
00007e80 t SDL_SetHint_DEFAULT
         U SDL_SetHint_REAL
00000c90 T SDL_SetMainReady
00008630 t SDL_SetMainReady_DEFAULT
         U SDL_SetMainReady_REAL
00002520 T SDL_SetMemoryFunctions
0000c8b0 t SDL_SetMemoryFunctions_DEFAULT
         U SDL_SetMemoryFunctions_REAL
00000b20 T SDL_SetModState
000082f0 t SDL_SetModState_DEFAULT
         U SDL_SetModState_REAL
00000f30 T SDL_SetPaletteColors
00008c80 t SDL_SetPaletteColors_DEFAULT
         U SDL_SetPaletteColors_REAL
00000f20 T SDL_SetPixelFormatPalette
00008c50 t SDL_SetPixelFormatPalette_DEFAULT
         U SDL_SetPixelFormatPalette_REAL
00003410 T SDL_SetPrimarySelectionText
0000f0d0 t SDL_SetPrimarySelectionText_DEFAULT
         U SDL_SetPrimarySelectionText_REAL
00000d00 T SDL_SetRelativeMouseMode
00008770 t SDL_SetRelativeMouseMode_DEFAULT
         U SDL_SetRelativeMouseMode_REAL
00001230 T SDL_SetRenderDrawBlendMode
00009620 t SDL_SetRenderDrawBlendMode_DEFAULT
         U SDL_SetRenderDrawBlendMode_REAL
00001210 T SDL_SetRenderDrawColor
000095a0 t SDL_SetRenderDrawColor_DEFAULT
         U SDL_SetRenderDrawColor_REAL
00001170 T SDL_SetRenderTarget
000093c0 t SDL_SetRenderTarget_DEFAULT
         U SDL_SetRenderTarget_REAL
000019e0 T SDL_SetSurfaceAlphaMod
0000ac00 t SDL_SetSurfaceAlphaMod_DEFAULT
         U SDL_SetSurfaceAlphaMod_REAL
00001a00 T SDL_SetSurfaceBlendMode
0000ac60 t SDL_SetSurfaceBlendMode_DEFAULT
         U SDL_SetSurfaceBlendMode_REAL
000019c0 T SDL_SetSurfaceColorMod
0000ab80 t SDL_SetSurfaceColorMod_DEFAULT
         U SDL_SetSurfaceColorMod_REAL
00001940 T SDL_SetSurfacePalette
0000aa20 t SDL_SetSurfacePalette_DEFAULT
         U SDL_SetSurfacePalette_REAL
00001990 T SDL_SetSurfaceRLE
0000aaf0 t SDL_SetSurfaceRLE_DEFAULT
         U SDL_SetSurfaceRLE_REAL
00000bc0 T SDL_SetTextInputRect
00008430 t SDL_SetTextInputRect_DEFAULT
         U SDL_SetTextInputRect_REAL
000010e0 T SDL_SetTextureAlphaMod
00009200 t SDL_SetTextureAlphaMod_DEFAULT
         U SDL_SetTextureAlphaMod_REAL
00001100 T SDL_SetTextureBlendMode
00009260 t SDL_SetTextureBlendMode_DEFAULT
         U SDL_SetTextureBlendMode_REAL
000010c0 T SDL_SetTextureColorMod
00009180 t SDL_SetTextureColorMod_DEFAULT
         U SDL_SetTextureColorMod_REAL
00002ae0 T SDL_SetTextureScaleMode
0000d830 t SDL_SetTextureScaleMode_DEFAULT
         U SDL_SetTextureScaleMode_REAL
00002f70 T SDL_SetTextureUserData
0000e460 t SDL_SetTextureUserData_DEFAULT
         U SDL_SetTextureUserData_REAL
00001b20 T SDL_SetThreadPriority
0000b000 t SDL_SetThreadPriority_DEFAULT
         U SDL_SetThreadPriority_REAL
00002f20 T SDL_SetWindowAlwaysOnTop
0000e370 t SDL_SetWindowAlwaysOnTop_DEFAULT
         U SDL_SetWindowAlwaysOnTop_REAL
00001e80 T SDL_SetWindowBordered
0000b850 t SDL_SetWindowBordered_DEFAULT
         U SDL_SetWindowBordered_REAL
00001f50 T SDL_SetWindowBrightness
0000ba30 t SDL_SetWindowBrightness_DEFAULT
         U SDL_SetWindowBrightness_REAL
00001de0 T SDL_SetWindowData
0000b670 t SDL_SetWindowData_DEFAULT
         U SDL_SetWindowData_REAL
00001d30 T SDL_SetWindowDisplayMode
0000b4b0 t SDL_SetWindowDisplayMode_DEFAULT
         U SDL_SetWindowDisplayMode_REAL
00001ef0 T SDL_SetWindowFullscreen
0000b940 t SDL_SetWindowFullscreen_DEFAULT
         U SDL_SetWindowFullscreen_REAL
00001f70 T SDL_SetWindowGammaRamp
0000ba80 t SDL_SetWindowGammaRamp_DEFAULT
         U SDL_SetWindowGammaRamp_REAL
00001f30 T SDL_SetWindowGrab
0000b9e0 t SDL_SetWindowGrab_DEFAULT
         U SDL_SetWindowGrab_REAL
00002190 T SDL_SetWindowHitTest
0000bfb0 t SDL_SetWindowHitTest_DEFAULT
         U SDL_SetWindowHitTest_REAL
00001dd0 T SDL_SetWindowIcon
0000b640 t SDL_SetWindowIcon_DEFAULT
         U SDL_SetWindowIcon_REAL
00002290 T SDL_SetWindowInputFocus
0000c260 t SDL_SetWindowInputFocus_DEFAULT
         U SDL_SetWindowInputFocus_REAL
00002e40 T SDL_SetWindowKeyboardGrab
0000e180 t SDL_SetWindowKeyboardGrab_DEFAULT
         U SDL_SetWindowKeyboardGrab_REAL
00001e60 T SDL_SetWindowMaximumSize
0000b7f0 t SDL_SetWindowMaximumSize_DEFAULT
         U SDL_SetWindowMaximumSize_REAL
00001e40 T SDL_SetWindowMinimumSize
0000b790 t SDL_SetWindowMinimumSize_DEFAULT
         U SDL_SetWindowMinimumSize_REAL
000022a0 T SDL_SetWindowModalFor
0000c280 t SDL_SetWindowModalFor_DEFAULT
         U SDL_SetWindowModalFor_REAL
00002e50 T SDL_SetWindowMouseGrab
0000e1b0 t SDL_SetWindowMouseGrab_DEFAULT
         U SDL_SetWindowMouseGrab_REAL
00003130 T SDL_SetWindowMouseRect
0000e9b0 t SDL_SetWindowMouseRect_DEFAULT
         U SDL_SetWindowMouseRect_REAL
00002270 T SDL_SetWindowOpacity
0000c200 t SDL_SetWindowOpacity_DEFAULT
         U SDL_SetWindowOpacity_REAL
00001e00 T SDL_SetWindowPosition
0000b6d0 t SDL_SetWindowPosition_DEFAULT
         U SDL_SetWindowPosition_REAL
000022e0 T SDL_SetWindowResizable
0000c330 t SDL_SetWindowResizable_DEFAULT
         U SDL_SetWindowResizable_REAL
000014b0 T SDL_SetWindowShape
00009d00 t SDL_SetWindowShape_DEFAULT
         U SDL_SetWindowShape_REAL
00001e20 T SDL_SetWindowSize
0000b730 t SDL_SetWindowSize_DEFAULT
         U SDL_SetWindowSize_REAL
00001db0 T SDL_SetWindowTitle
0000b5f0 t SDL_SetWindowTitle_DEFAULT
         U SDL_SetWindowTitle_REAL
00002200 T SDL_SetWindowsMessageHook
0000c0c0 t SDL_SetWindowsMessageHook_DEFAULT
         U SDL_SetWindowsMessageHook_REAL
00002680 T SDL_SetYUVConversionMode
0000ccf0 t SDL_SetYUVConversionMode_DEFAULT
         U SDL_SetYUVConversionMode_REAL
00000d90 T SDL_ShowCursor
000088c0 t SDL_ShowCursor_DEFAULT
         U SDL_ShowCursor_REAL
00000ca0 T SDL_ShowMessageBox
00008650 t SDL_ShowMessageBox_DEFAULT
         U SDL_ShowMessageBox_REAL
00000cb0 T SDL_ShowSimpleMessageBox
00008680 t SDL_ShowSimpleMessageBox_DEFAULT
         U SDL_ShowSimpleMessageBox_REAL
00001e90 T SDL_ShowWindow
0000b880 t SDL_ShowWindow_DEFAULT
         U SDL_ShowWindow_REAL
00001ab0 T SDL_SoftStretch
00002e10 T SDL_SoftStretchLinear
0000e0e0 t SDL_SoftStretchLinear_DEFAULT
         U SDL_SoftStretchLinear_REAL
0000aeb0 t SDL_SoftStretch_DEFAULT
         U SDL_SoftStretch_REAL
00000b90 T SDL_StartTextInput
000083d0 t SDL_StartTextInput_DEFAULT
         U SDL_StartTextInput_REAL
00000bb0 T SDL_StopTextInput
00008410 t SDL_StopTextInput_DEFAULT
         U SDL_StopTextInput_REAL
00002f10 T SDL_TLSCleanup
0000e350 t SDL_TLSCleanup_DEFAULT
         U SDL_TLSCleanup_REAL
00001b50 T SDL_TLSCreate
0000b070 t SDL_TLSCreate_DEFAULT
         U SDL_TLSCreate_REAL
00001b60 T SDL_TLSGet
0000b090 t SDL_TLSGet_DEFAULT
         U SDL_TLSGet_REAL
00001b70 T SDL_TLSSet
0000b0b0 t SDL_TLSSet_DEFAULT
         U SDL_TLSSet_REAL
00001b00 T SDL_ThreadID
0000afc0 t SDL_ThreadID_DEFAULT
         U SDL_ThreadID_REAL
00000dc0 T SDL_TryLockMutex
00008920 t SDL_TryLockMutex_DEFAULT
         U SDL_TryLockMutex_REAL
00003220 T SDL_UnionFRect
0000ec30 t SDL_UnionFRect_DEFAULT
         U SDL_UnionFRect_REAL
00000fe0 T SDL_UnionRect
00008ec0 t SDL_UnionRect_DEFAULT
         U SDL_UnionRect_REAL
00000c10 T SDL_UnloadObject
000084e0 t SDL_UnloadObject_DEFAULT
         U SDL_UnloadObject_REAL
000002e0 T SDL_UnlockAudio
000002f0 T SDL_UnlockAudioDevice
000070b0 t SDL_UnlockAudioDevice_DEFAULT
         U SDL_UnlockAudioDevice_REAL
00007090 t SDL_UnlockAudio_DEFAULT
         U SDL_UnlockAudio_REAL
00002500 T SDL_UnlockJoysticks
0000c850 t SDL_UnlockJoysticks_DEFAULT
         U SDL_UnlockJoysticks_REAL
00000dd0 T SDL_UnlockMutex
00008940 t SDL_UnlockMutex_DEFAULT
         U SDL_UnlockMutex_REAL
00002c00 T SDL_UnlockSensors
0000daf0 t SDL_UnlockSensors_DEFAULT
         U SDL_UnlockSensors_REAL
00001960 T SDL_UnlockSurface
0000aa70 t SDL_UnlockSurface_DEFAULT
         U SDL_UnlockSurface_REAL
00001150 T SDL_UnlockTexture
00009380 t SDL_UnlockTexture_DEFAULT
         U SDL_UnlockTexture_REAL
00000030 T SDL_UnregisterApp
000069e0 t SDL_UnregisterApp_DEFAULT
         U SDL_UnregisterApp_REAL
00002e30 T SDL_UpdateNVTexture
0000e140 t SDL_UpdateNVTexture_DEFAULT
         U SDL_UpdateNVTexture_REAL
00001120 T SDL_UpdateTexture
000092c0 t SDL_UpdateTexture_DEFAULT
         U SDL_UpdateTexture_REAL
00001f10 T SDL_UpdateWindowSurface
00001f20 T SDL_UpdateWindowSurfaceRects
0000b9b0 t SDL_UpdateWindowSurfaceRects_DEFAULT
         U SDL_UpdateWindowSurfaceRects_REAL
0000b990 t SDL_UpdateWindowSurface_DEFAULT
         U SDL_UpdateWindowSurface_REAL
00001130 T SDL_UpdateYUVTexture
00009300 t SDL_UpdateYUVTexture_DEFAULT
         U SDL_UpdateYUVTexture_REAL
00001a90 T SDL_UpperBlit
00001ac0 T SDL_UpperBlitScaled
0000aef0 t SDL_UpperBlitScaled_DEFAULT
         U SDL_UpperBlitScaled_REAL
0000ae30 t SDL_UpperBlit_DEFAULT
         U SDL_UpperBlit_REAL
00001c70 T SDL_VideoInit
0000b2e0 t SDL_VideoInit_DEFAULT
         U SDL_VideoInit_REAL
00001c80 T SDL_VideoQuit
0000b300 t SDL_VideoQuit_DEFAULT
         U SDL_VideoQuit_REAL
000024d0 T SDL_Vulkan_CreateSurface
0000c7d0 t SDL_Vulkan_CreateSurface_DEFAULT
         U SDL_Vulkan_CreateSurface_REAL
000024e0 T SDL_Vulkan_GetDrawableSize
0000c800 t SDL_Vulkan_GetDrawableSize_DEFAULT
         U SDL_Vulkan_GetDrawableSize_REAL
000024c0 T SDL_Vulkan_GetInstanceExtensions
0000c7a0 t SDL_Vulkan_GetInstanceExtensions_DEFAULT
         U SDL_Vulkan_GetInstanceExtensions_REAL
000024a0 T SDL_Vulkan_GetVkGetInstanceProcAddr
0000c760 t SDL_Vulkan_GetVkGetInstanceProcAddr_DEFAULT
         U SDL_Vulkan_GetVkGetInstanceProcAddr_REAL
00002490 T SDL_Vulkan_LoadLibrary
0000c740 t SDL_Vulkan_LoadLibrary_DEFAULT
         U SDL_Vulkan_LoadLibrary_REAL
000024b0 T SDL_Vulkan_UnloadLibrary
0000c780 t SDL_Vulkan_UnloadLibrary_DEFAULT
         U SDL_Vulkan_UnloadLibrary_REAL
000004b0 T SDL_WaitEvent
000004c0 T SDL_WaitEventTimeout
00007490 t SDL_WaitEventTimeout_DEFAULT
         U SDL_WaitEventTimeout_REAL
00007470 t SDL_WaitEvent_DEFAULT
         U SDL_WaitEvent_REAL
00001b30 T SDL_WaitThread
0000b020 t SDL_WaitThread_DEFAULT
         U SDL_WaitThread_REAL
00002140 T SDL_WarpMouseGlobal
0000bed0 t SDL_WarpMouseGlobal_DEFAULT
         U SDL_WarpMouseGlobal_REAL
00000cf0 T SDL_WarpMouseInWindow
00008740 t SDL_WarpMouseInWindow_DEFAULT
         U SDL_WarpMouseInWindow_REAL
00000090 T SDL_WasInit
00006aa0 t SDL_WasInit_DEFAULT
         U SDL_WasInit_REAL
00001440 T SDL_WriteBE16
00009bb0 t SDL_WriteBE16_DEFAULT
         U SDL_WriteBE16_REAL
00001460 T SDL_WriteBE32
00009c10 t SDL_WriteBE32_DEFAULT
         U SDL_WriteBE32_REAL
00001480 T SDL_WriteBE64
00009c70 t SDL_WriteBE64_DEFAULT
         U SDL_WriteBE64_REAL
00001430 T SDL_WriteLE16
00009b80 t SDL_WriteLE16_DEFAULT
         U SDL_WriteLE16_REAL
00001450 T SDL_WriteLE32
00009be0 t SDL_WriteLE32_DEFAULT
         U SDL_WriteLE32_REAL
00001470 T SDL_WriteLE64
00009c40 t SDL_WriteLE64_DEFAULT
         U SDL_WriteLE64_REAL
00001420 T SDL_WriteU8
00009b50 t SDL_WriteU8_DEFAULT
         U SDL_WriteU8_REAL
00001540 T SDL_abs
00009e90 t SDL_abs_DEFAULT
         U SDL_abs_REAL
000017d0 T SDL_acos
0000a580 t SDL_acos_DEFAULT
         U SDL_acos_REAL
000025b0 T SDL_acosf
0000ca30 t SDL_acosf_DEFAULT
         U SDL_acosf_REAL
000017e0 T SDL_asin
0000a5b0 t SDL_asin_DEFAULT
         U SDL_asin_REAL
000025c0 T SDL_asinf
0000ca60 t SDL_asinf_DEFAULT
         U SDL_asinf_REAL
000035c0 T SDL_asprintf
0000e560 t SDL_asprintf_DEFAULT
         U SDL_asprintf_REAL
000017f0 T SDL_atan
00001800 T SDL_atan2
0000a610 t SDL_atan2_DEFAULT
         U SDL_atan2_REAL
000025e0 T SDL_atan2f
0000cac0 t SDL_atan2f_DEFAULT
         U SDL_atan2f_REAL
0000a5e0 t SDL_atan_DEFAULT
         U SDL_atan_REAL
000025d0 T SDL_atanf
0000ca90 t SDL_atanf_DEFAULT
         U SDL_atanf_REAL
00001720 T SDL_atof
0000a370 t SDL_atof_DEFAULT
         U SDL_atof_REAL
00001710 T SDL_atoi
0000a350 t SDL_atoi_DEFAULT
         U SDL_atoi_REAL
00003260 T SDL_bsearch
0000ed00 t SDL_bsearch_DEFAULT
         U SDL_bsearch_REAL
000014e0 T SDL_calloc
00009d80 t SDL_calloc_DEFAULT
         U SDL_calloc_REAL
00001810 T SDL_ceil
0000a650 t SDL_ceil_DEFAULT
         U SDL_ceil_REAL
000025f0 T SDL_ceilf
0000cb00 t SDL_ceilf_DEFAULT
         U SDL_ceilf_REAL
00001820 T SDL_copysign
0000a680 t SDL_copysign_DEFAULT
         U SDL_copysign_REAL
00002600 T SDL_copysignf
0000cb30 t SDL_copysignf_DEFAULT
         U SDL_copysignf_REAL
00001830 T SDL_cos
0000a6c0 t SDL_cos_DEFAULT
         U SDL_cos_REAL
00001840 T SDL_cosf
0000a6f0 t SDL_cosf_DEFAULT
         U SDL_cosf_REAL
000033c0 T SDL_crc16
0000f010 t SDL_crc16_DEFAULT
         U SDL_crc16_REAL
00002d40 T SDL_crc32
0000de80 t SDL_crc32_DEFAULT
         U SDL_crc32_REAL
00002710 T SDL_exp
0000ce40 t SDL_exp_DEFAULT
         U SDL_exp_REAL
00002720 T SDL_expf
0000ce70 t SDL_expf_DEFAULT
         U SDL_expf_REAL
00001850 T SDL_fabs
0000a720 t SDL_fabs_DEFAULT
         U SDL_fabs_REAL
00002610 T SDL_fabsf
0000cb70 t SDL_fabsf_DEFAULT
         U SDL_fabsf_REAL
00001860 T SDL_floor
0000a750 t SDL_floor_DEFAULT
         U SDL_floor_REAL
00002620 T SDL_floorf
0000cba0 t SDL_floorf_DEFAULT
         U SDL_floorf_REAL
00002660 T SDL_fmod
0000cc70 t SDL_fmod_DEFAULT
         U SDL_fmod_REAL
00002670 T SDL_fmodf
0000ccb0 t SDL_fmodf_DEFAULT
         U SDL_fmodf_REAL
00001500 T SDL_free
00009de0 t SDL_free_DEFAULT
         U SDL_free_REAL
00001510 T SDL_getenv
00009e00 t SDL_getenv_DEFAULT
         U SDL_getenv_REAL
000031b0 T SDL_hid_ble_scan
0000eb10 t SDL_hid_ble_scan_DEFAULT
         U SDL_hid_ble_scan_REAL
000030e0 T SDL_hid_close
0000e8c0 t SDL_hid_close_DEFAULT
         U SDL_hid_close_REAL
00003030 T SDL_hid_device_change_count
0000e6c0 t SDL_hid_device_change_count_DEFAULT
         U SDL_hid_device_change_count_REAL
00003040 T SDL_hid_enumerate
0000e6e0 t SDL_hid_enumerate_DEFAULT
         U SDL_hid_enumerate_REAL
00003020 T SDL_hid_exit
0000e6a0 t SDL_hid_exit_DEFAULT
         U SDL_hid_exit_REAL
00003050 T SDL_hid_free_enumeration
0000e710 t SDL_hid_free_enumeration_DEFAULT
         U SDL_hid_free_enumeration_REAL
000030d0 T SDL_hid_get_feature_report
0000e890 t SDL_hid_get_feature_report_DEFAULT
         U SDL_hid_get_feature_report_REAL
00003120 T SDL_hid_get_indexed_string
0000e970 t SDL_hid_get_indexed_string_DEFAULT
         U SDL_hid_get_indexed_string_REAL
000030f0 T SDL_hid_get_manufacturer_string
0000e8e0 t SDL_hid_get_manufacturer_string_DEFAULT
         U SDL_hid_get_manufacturer_string_REAL
00003100 T SDL_hid_get_product_string
0000e910 t SDL_hid_get_product_string_DEFAULT
         U SDL_hid_get_product_string_REAL
00003110 T SDL_hid_get_serial_number_string
0000e940 t SDL_hid_get_serial_number_string_DEFAULT
         U SDL_hid_get_serial_number_string_REAL
00003010 T SDL_hid_init
0000e680 t SDL_hid_init_DEFAULT
         U SDL_hid_init_REAL
00003060 T SDL_hid_open
0000e730 t SDL_hid_open_DEFAULT
         U SDL_hid_open_REAL
00003070 T SDL_hid_open_path
0000e760 t SDL_hid_open_path_DEFAULT
         U SDL_hid_open_path_REAL
000030a0 T SDL_hid_read
0000e800 t SDL_hid_read_DEFAULT
         U SDL_hid_read_REAL
00003090 T SDL_hid_read_timeout
0000e7c0 t SDL_hid_read_timeout_DEFAULT
         U SDL_hid_read_timeout_REAL
000030c0 T SDL_hid_send_feature_report
0000e860 t SDL_hid_send_feature_report_DEFAULT
         U SDL_hid_send_feature_report_REAL
000030b0 T SDL_hid_set_nonblocking
0000e830 t SDL_hid_set_nonblocking_DEFAULT
         U SDL_hid_set_nonblocking_REAL
00003080 T SDL_hid_write
0000e790 t SDL_hid_write_DEFAULT
         U SDL_hid_write_REAL
000018f0 T SDL_iconv
0000a900 t SDL_iconv_DEFAULT
         U SDL_iconv_REAL
000018e0 T SDL_iconv_close
0000a8e0 t SDL_iconv_close_DEFAULT
         U SDL_iconv_close_REAL
000018d0 T SDL_iconv_open
0000a8b0 t SDL_iconv_open_DEFAULT
         U SDL_iconv_open_REAL
00001900 T SDL_iconv_string
0000a940 t SDL_iconv_string_DEFAULT
         U SDL_iconv_string_REAL
00002e90 T SDL_isalnum
0000e240 t SDL_isalnum_DEFAULT
         U SDL_isalnum_REAL
00002e80 T SDL_isalpha
0000e220 t SDL_isalpha_DEFAULT
         U SDL_isalpha_REAL
00002ea0 T SDL_isblank
0000e260 t SDL_isblank_DEFAULT
         U SDL_isblank_REAL
00002eb0 T SDL_iscntrl
0000e280 t SDL_iscntrl_DEFAULT
         U SDL_iscntrl_REAL
00001550 T SDL_isdigit
00009eb0 t SDL_isdigit_DEFAULT
         U SDL_isdigit_REAL
00002ef0 T SDL_isgraph
0000e300 t SDL_isgraph_DEFAULT
         U SDL_isgraph_REAL
00002b70 T SDL_islower
0000d970 t SDL_islower_DEFAULT
         U SDL_islower_REAL
00002ee0 T SDL_isprint
0000e2e0 t SDL_isprint_DEFAULT
         U SDL_isprint_REAL
00002ed0 T SDL_ispunct
0000e2c0 t SDL_ispunct_DEFAULT
         U SDL_ispunct_REAL
00001560 T SDL_isspace
00009ed0 t SDL_isspace_DEFAULT
         U SDL_isspace_REAL
00002b60 T SDL_isupper
0000d950 t SDL_isupper_DEFAULT
         U SDL_isupper_REAL
00002ec0 T SDL_isxdigit
0000e2a0 t SDL_isxdigit_DEFAULT
         U SDL_isxdigit_REAL
000016b0 T SDL_itoa
0000a230 t SDL_itoa_DEFAULT
         U SDL_itoa_REAL
000016f0 T SDL_lltoa
0000a2f0 t SDL_lltoa_DEFAULT
         U SDL_lltoa_REAL
00001870 T SDL_log
000026d0 T SDL_log10
0000cda0 t SDL_log10_DEFAULT
         U SDL_log10_REAL
000026e0 T SDL_log10f
0000cdd0 t SDL_log10f_DEFAULT
         U SDL_log10f_REAL
0000a780 t SDL_log_DEFAULT
         U SDL_log_REAL
00002630 T SDL_logf
0000cbd0 t SDL_logf_DEFAULT
         U SDL_logf_REAL
00002df0 T SDL_lround
0000e080 t SDL_lround_DEFAULT
         U SDL_lround_REAL
00002e00 T SDL_lroundf
0000e0b0 t SDL_lroundf_DEFAULT
         U SDL_lroundf_REAL
000016d0 T SDL_ltoa
0000a290 t SDL_ltoa_DEFAULT
         U SDL_ltoa_REAL
000014d0 T SDL_malloc
00009d60 t SDL_malloc_DEFAULT
         U SDL_malloc_REAL
000015c0 T SDL_memcmp
00009fc0 t SDL_memcmp_DEFAULT
         U SDL_memcmp_REAL
000015a0 T SDL_memcpy
00009f60 t SDL_memcpy_DEFAULT
         U SDL_memcpy_REAL
000015b0 T SDL_memmove
00009f90 t SDL_memmove_DEFAULT
         U SDL_memmove_REAL
00001590 T SDL_memset
00009f30 t SDL_memset_DEFAULT
         U SDL_memset_REAL
00001880 T SDL_pow
0000a7b0 t SDL_pow_DEFAULT
         U SDL_pow_REAL
00002640 T SDL_powf
0000cc00 t SDL_powf_DEFAULT
         U SDL_powf_REAL
00001530 T SDL_qsort
00009e50 t SDL_qsort_DEFAULT
         U SDL_qsort_REAL
000014f0 T SDL_realloc
00009db0 t SDL_realloc_DEFAULT
         U SDL_realloc_REAL
00002dd0 T SDL_round
0000e020 t SDL_round_DEFAULT
         U SDL_round_REAL
00002de0 T SDL_roundf
0000e050 t SDL_roundf_DEFAULT
         U SDL_roundf_REAL
00001890 T SDL_scalbn
0000a7f0 t SDL_scalbn_DEFAULT
         U SDL_scalbn_REAL
00002650 T SDL_scalbnf
0000cc40 t SDL_scalbnf_DEFAULT
         U SDL_scalbnf_REAL
00001520 T SDL_setenv
00009e20 t SDL_setenv_DEFAULT
         U SDL_setenv_REAL
000018a0 T SDL_sin
0000a820 t SDL_sin_DEFAULT
         U SDL_sin_REAL
000018b0 T SDL_sinf
0000a850 t SDL_sinf_DEFAULT
         U SDL_sinf_REAL
000035a0 T SDL_snprintf
00006900 t SDL_snprintf_DEFAULT
         U SDL_snprintf_REAL
000018c0 T SDL_sqrt
0000a880 t SDL_sqrt_DEFAULT
         U SDL_sqrt_REAL
00002150 T SDL_sqrtf
0000bf00 t SDL_sqrtf_DEFAULT
         U SDL_sqrtf_REAL
00003570 T SDL_sscanf
000068c0 t SDL_sscanf_DEFAULT
         U SDL_sscanf_REAL
000017a0 T SDL_strcasecmp
0000a4e0 t SDL_strcasecmp_DEFAULT
         U SDL_strcasecmp_REAL
00003470 T SDL_strcasestr
0000f1d0 t SDL_strcasestr_DEFAULT
         U SDL_strcasestr_REAL
00001680 T SDL_strchr
0000a1a0 t SDL_strchr_DEFAULT
         U SDL_strchr_REAL
00001780 T SDL_strcmp
0000a480 t SDL_strcmp_DEFAULT
         U SDL_strcmp_REAL
00001640 T SDL_strdup
0000a120 t SDL_strdup_DEFAULT
         U SDL_strdup_REAL
00001630 T SDL_strlcat
0000a0f0 t SDL_strlcat_DEFAULT
         U SDL_strlcat_REAL
00001610 T SDL_strlcpy
0000a090 t SDL_strlcpy_DEFAULT
         U SDL_strlcpy_REAL
00001600 T SDL_strlen
0000a070 t SDL_strlen_DEFAULT
         U SDL_strlen_REAL
00001670 T SDL_strlwr
0000a180 t SDL_strlwr_DEFAULT
         U SDL_strlwr_REAL
000017b0 T SDL_strncasecmp
0000a510 t SDL_strncasecmp_DEFAULT
         U SDL_strncasecmp_REAL
00001790 T SDL_strncmp
0000a4b0 t SDL_strncmp_DEFAULT
         U SDL_strncmp_REAL
00001690 T SDL_strrchr
0000a1d0 t SDL_strrchr_DEFAULT
         U SDL_strrchr_REAL
00001650 T SDL_strrev
0000a140 t SDL_strrev_DEFAULT
         U SDL_strrev_REAL
000016a0 T SDL_strstr
0000a200 t SDL_strstr_DEFAULT
         U SDL_strstr_REAL
00001770 T SDL_strtod
0000a450 t SDL_strtod_DEFAULT
         U SDL_strtod_REAL
00002a50 T SDL_strtokr
0000d6c0 t SDL_strtokr_DEFAULT
         U SDL_strtokr_REAL
00001730 T SDL_strtol
0000a390 t SDL_strtol_DEFAULT
         U SDL_strtol_REAL
00001750 T SDL_strtoll
0000a3f0 t SDL_strtoll_DEFAULT
         U SDL_strtoll_REAL
00001740 T SDL_strtoul
0000a3c0 t SDL_strtoul_DEFAULT
         U SDL_strtoul_REAL
00001760 T SDL_strtoull
0000a420 t SDL_strtoull_DEFAULT
         U SDL_strtoull_REAL
00001660 T SDL_strupr
0000a160 t SDL_strupr_DEFAULT
         U SDL_strupr_REAL
00002160 T SDL_tan
0000bf30 t SDL_tan_DEFAULT
         U SDL_tan_REAL
00002170 T SDL_tanf
0000bf60 t SDL_tanf_DEFAULT
         U SDL_tanf_REAL
00001580 T SDL_tolower
00009f10 t SDL_tolower_DEFAULT
         U SDL_tolower_REAL
00001570 T SDL_toupper
00009ef0 t SDL_toupper_DEFAULT
         U SDL_toupper_REAL
00002c30 T SDL_trunc
0000db60 t SDL_trunc_DEFAULT
         U SDL_trunc_REAL
00002c40 T SDL_truncf
0000db90 t SDL_truncf_DEFAULT
         U SDL_truncf_REAL
000016c0 T SDL_uitoa
0000a260 t SDL_uitoa_DEFAULT
         U SDL_uitoa_REAL
00001700 T SDL_ulltoa
0000a320 t SDL_ulltoa_DEFAULT
         U SDL_ulltoa_REAL
000016e0 T SDL_ultoa
0000a2c0 t SDL_ultoa_DEFAULT
         U SDL_ultoa_REAL
00001620 T SDL_utf8strlcpy
0000a0c0 t SDL_utf8strlcpy_DEFAULT
         U SDL_utf8strlcpy_REAL
00002440 T SDL_utf8strlen
0000c660 t SDL_utf8strlen_DEFAULT
         U SDL_utf8strlen_REAL
00003350 T SDL_utf8strnlen
0000eef0 t SDL_utf8strnlen_DEFAULT
         U SDL_utf8strnlen_REAL
00002fc0 T SDL_vasprintf
0000e5a0 t SDL_vasprintf_DEFAULT
         U SDL_vasprintf_REAL
000017c0 T SDL_vsnprintf
0000a540 t SDL_vsnprintf_DEFAULT
         U SDL_vsnprintf_REAL
000020c0 T SDL_vsscanf
0000bda0 t SDL_vsscanf_DEFAULT
         U SDL_vsscanf_REAL
00002db0 T SDL_wcscasecmp
0000dfc0 t SDL_wcscasecmp_DEFAULT
         U SDL_wcscasecmp_REAL
00002460 T SDL_wcscmp
0000c6b0 t SDL_wcscmp_DEFAULT
         U SDL_wcscmp_REAL
00002730 T SDL_wcsdup
0000cea0 t SDL_wcsdup_DEFAULT
         U SDL_wcsdup_REAL
000015f0 T SDL_wcslcat
0000a040 t SDL_wcslcat_DEFAULT
         U SDL_wcslcat_REAL
000015e0 T SDL_wcslcpy
0000a010 t SDL_wcslcpy_DEFAULT
         U SDL_wcslcpy_REAL
000015d0 T SDL_wcslen
00009ff0 t SDL_wcslen_DEFAULT
         U SDL_wcslen_REAL
00002dc0 T SDL_wcsncasecmp
0000dff0 t SDL_wcsncasecmp_DEFAULT
         U SDL_wcsncasecmp_REAL
00002a70 T SDL_wcsncmp
0000d720 t SDL_wcsncmp_DEFAULT
         U SDL_wcsncmp_REAL
00002a60 T SDL_wcsstr
0000d6f0 t SDL_wcsstr_DEFAULT
         U SDL_wcsstr_REAL
         U __imp_FreeLibrary
         U __imp_GetProcAddress
         U __imp_LoadLibraryA
         U __imp_MessageBoxA
0000f3b0 t dynapi_warn
00003780 t initialize_jumptable
00000000 d jump_table

SDL_effects_internal.o:
00000000 a @feat.00
         U SDL_getenv
         U SDL_malloc
         U _Eff_PositionDeinit
00000730 T _Eff_build_volume_table_s8
00000040 T _Eff_build_volume_table_u8
00000008 B _Eff_volume_table
00000030 T _Mix_DeinitEffects
00000000 T _Mix_InitEffects
00000000 B _Mix_effects_max_speed

SDL_effect_position.o:
00000000 R .refptr._Eff_volume_table
00000000 a @feat.00
         U Mix_LockAudio
         U Mix_QuerySpec
00000fe0 T Mix_SetDistance
00000070 T Mix_SetPanning
000001d0 T Mix_SetPosition
         U Mix_UnlockAudio
         U SDL_Error
         U SDL_SetError
         U SDL_free
         U SDL_malloc
         U SDL_memset
         U SDL_realloc
00000000 T _Eff_PositionDeinit
00000f80 t _Eff_PositionDone
         U _Eff_build_volume_table_s8
         U _Eff_build_volume_table_u8
000048a0 t _Eff_position_f32sys
000049a0 t _Eff_position_f32sys_c4
00004a90 t _Eff_position_f32sys_c6
00002ce0 t _Eff_position_s16lsb
00002f00 t _Eff_position_s16lsb_c4
00003000 t _Eff_position_s16lsb_c6
000039a0 t _Eff_position_s16msb
00003b40 t _Eff_position_s16msb_c4
00003c50 t _Eff_position_s16msb_c6
00004430 t _Eff_position_s32lsb
00004600 t _Eff_position_s32lsb_c4
000046e0 t _Eff_position_s32lsb_c6
00003e60 t _Eff_position_s32msb
00004080 t _Eff_position_s32msb_c4
000041d0 t _Eff_position_s32msb_c6
00001fa0 t _Eff_position_s8
000022a0 t _Eff_position_s8_c4
000023f0 t _Eff_position_s8_c6
00001e50 t _Eff_position_table_s8
000010c0 t _Eff_position_table_u8
00002710 t _Eff_position_u16lsb
000029c0 t _Eff_position_u16lsb_c4
00002ac0 t _Eff_position_u16lsb_c6
00003200 t _Eff_position_u16msb
000035f0 t _Eff_position_u16msb_c4
00003720 t _Eff_position_u16msb_c6
000011e0 t _Eff_position_u8
000015c0 t _Eff_position_u8_c4
00001930 t _Eff_position_u8_c6
         U _Eff_volume_table
         U _Mix_RegisterEffect_locked
         U _Mix_UnregisterEffect_locked
00000d90 t get_position_arg
00000b30 t get_position_effect_func
         U memset
00000008 b pos_args_array
00000010 b pos_args_global
00000000 b position_channels
00000018 b speaker_amplitude.0
00000019 b speaker_amplitude.1
0000001a b speaker_amplitude.2
0000001b b speaker_amplitude.3

SDL_effect_stereoreverse.o:
00000000 a @feat.00
         U Mix_QuerySpec
         U Mix_RegisterEffect
00000000 T Mix_SetReverseStereo
         U Mix_UnregisterEffect
         U SDL_SetError
00000240 t _Eff_reversestereo16
000002f0 t _Eff_reversestereo32
000000a0 t _Eff_reversestereo8

SDL_egl.o:
00000000 a @feat.00
         U SDL_ClearError_REAL
00000f00 T SDL_EGL_ChooseConfig
000014d0 T SDL_EGL_CreateContext
00001c30 T SDL_EGL_CreateOffscreenSurface
00001ae0 T SDL_EGL_CreateSurface
00001910 T SDL_EGL_DeleteContext
00001c90 T SDL_EGL_DestroySurface
00000190 T SDL_EGL_GetProcAddress
00001a10 T SDL_EGL_GetSwapInterval
00000080 T SDL_EGL_HasExtension
00000c90 T SDL_EGL_InitializeOffscreen
00000980 T SDL_EGL_LoadLibrary
000002a0 T SDL_EGL_LoadLibraryOnly
000017f0 T SDL_EGL_MakeCurrent
00000fd0 t SDL_EGL_PrivateChooseConfig
00000000 T SDL_EGL_SetErrorEx
00000ef0 T SDL_EGL_SetRequiredVisualId
00001940 T SDL_EGL_SetSwapInterval
00001a40 T SDL_EGL_SwapBuffers
00000220 T SDL_EGL_UnloadLibrary
         U SDL_Error_REAL
         U SDL_GL_ExtensionSupported_REAL
         U SDL_GL_GetCurrentContext_REAL
         U SDL_GL_GetProcAddress_REAL
         U SDL_GetHintBoolean_REAL
         U SDL_GetHint_REAL
         U SDL_LoadFunction_REAL
         U SDL_LoadObject_REAL
         U SDL_LogWarn_REAL
         U SDL_Log_REAL
         U SDL_SetError_REAL
         U SDL_UnloadObject_REAL
         U SDL_atoi_REAL
         U SDL_calloc_REAL
         U SDL_free_REAL
         U SDL_getenv_REAL
         U SDL_snprintf_REAL
         U SDL_sscanf_REAL
         U SDL_strcasecmp_REAL
         U SDL_strchr_REAL
         U SDL_strlcpy_REAL
         U SDL_strlen_REAL
         U SDL_strstr_REAL
         U WIN_IsWindowsVistaOrGreater

SDL_error.o:
00000000 a @feat.00
00000100 T SDL_ClearError_REAL
00000120 T SDL_Error_REAL
         U SDL_GetErrBuf
00000160 T SDL_GetErrorMsg_REAL
000000d0 T SDL_GetError_REAL
         U SDL_LogDebug_REAL
         U SDL_LogGetPriority_REAL
00000000 T SDL_SetError_REAL
         U SDL_strlcpy_REAL
         U SDL_vsnprintf_REAL

SDL_events.o:
00000000 a @feat.00
00002470 T SDL_AddEventWatch_REAL
         U SDL_AddHintCallback_REAL
         U SDL_AtomicAdd_REAL
         U SDL_AtomicGet_REAL
         U SDL_AtomicSet_REAL
000028a0 t SDL_AutoUpdateJoysticksChanged
000028f0 t SDL_AutoUpdateSensorsChanged
         U SDL_CreateMutex_REAL
000024f0 T SDL_DelEventWatch_REAL
         U SDL_DelHintCallback_REAL
         U SDL_Delay_REAL
         U SDL_DestroyMutex_REAL
00002920 t SDL_EventLoggingChanged
00000888 b SDL_EventLoggingVerbosity
00000868 b SDL_EventOK
00000000 b SDL_EventQ
00000270 T SDL_EventState_REAL
00002800 T SDL_EventsInit
000029a0 T SDL_EventsQuit
00002590 T SDL_FilterEvents_REAL
000019c0 T SDL_FlushEvent_REAL
000019d0 T SDL_FlushEvents_REAL
         U SDL_GestureProcessEvent
00002410 T SDL_GetEventFilter_REAL
         U SDL_GetHintBoolean_REAL
         U SDL_GetHint_REAL
         U SDL_GetStringBoolean
         U SDL_GetTicks_REAL
         U SDL_GetVideoDevice
000018b0 T SDL_HasEvent_REAL
00001930 T SDL_HasEvents_REAL
         U SDL_JoystickEventState_REAL
         U SDL_JoystickUpdate_REAL
         U SDL_LockMutex_REAL
         U SDL_Log_REAL
         U SDL_NumJoysticks_REAL
         U SDL_NumSensors_REAL
000003c0 t SDL_PeepEventsInternal
000003a0 T SDL_PeepEvents_REAL
00001c30 T SDL_PollEvent_REAL
00002970 t SDL_PollSentinelChanged
00001b50 t SDL_PumpEventsInternal
00001af0 T SDL_PumpEvents_REAL
00002210 T SDL_PushEvent_REAL
         U SDL_QuitInit
         U SDL_QuitQuit
000026a0 T SDL_RegisterEvents_REAL
         U SDL_ReleaseAutoReleaseKeys
000026d0 T SDL_SendAppEvent
00002780 T SDL_SendKeymapChangedEvent
000027c0 T SDL_SendLocaleChangedEvent
         U SDL_SendPendingSignalEvents
00002720 T SDL_SendSysWMEvent
         U SDL_SensorUpdate_REAL
         U SDL_SetError_REAL
000023c0 T SDL_SetEventFilter_REAL
000001d0 T SDL_StartEventLoop
00000000 T SDL_StopEventLoop
         U SDL_ToggleDragAndDropSupport
         U SDL_UnlockMutex_REAL
00001ee0 t SDL_WaitEventTimeout_Device
00001c40 T SDL_WaitEventTimeout_REAL
00001ed0 T SDL_WaitEvent_REAL
         U SDL_WasInit_REAL
         U SDL_atoi_REAL
         U SDL_calloc_REAL
00000050 b SDL_disabled_events
00000858 b SDL_event_watchers
00000860 b SDL_event_watchers_count
00000880 b SDL_event_watchers_dispatching
00000850 b SDL_event_watchers_lock
00000884 b SDL_event_watchers_removed
         U SDL_free_REAL
         U SDL_malloc_REAL
         U SDL_memmove_REAL
         U SDL_memset_REAL
         U SDL_realloc_REAL
00000040 b SDL_sentinel_pending
         U SDL_snprintf_REAL
         U SDL_strlcpy_REAL
0000088c b SDL_update_joysticks
00000890 b SDL_update_sensors
00000000 d SDL_userevents

SDL_e_atan2.o:
00000000 a @feat.00
         U SDL_uclibc_atan
00000000 T SDL_uclibc_atan2
         U SDL_uclibc_fabs

SDL_e_exp.o:
00000000 a @feat.00
00000000 T SDL_uclibc_exp
000000a0 r halF
00000080 r ln2HI
00000090 r ln2LO

SDL_e_fmod.o:
00000000 a @feat.00
00000000 T SDL_uclibc_fmod
00000000 r Zero

SDL_e_log.o:
00000000 a @feat.00
00000000 T SDL_uclibc_log

SDL_e_log10.o:
00000000 a @feat.00
         U SDL_uclibc_log
00000000 T SDL_uclibc_log10

SDL_e_pow.o:
00000000 a @feat.00
         U SDL_uclibc_fabs
00000000 T SDL_uclibc_pow
         U SDL_uclibc_scalbn
         U SDL_uclibc_sqrt
00000130 r bp
00000150 r dp_h
00000140 r dp_l

SDL_e_rem_pio2.o:
00000000 a @feat.00
         U SDL_uclibc_fabs
00000000 T __ieee754_rem_pio2
         U __kernel_rem_pio2
00000080 r npio2_hw
00000100 r two_over_pi

SDL_e_sqrt.o:
00000000 a @feat.00
00000000 T SDL_uclibc_sqrt

SDL_fillrect.o:
00000000 a @feat.00
00000510 t SDL_FillRect1
000002a0 t SDL_FillRect1SSE
00000a00 t SDL_FillRect2
000006a0 t SDL_FillRect2SSE
00000af0 t SDL_FillRect3
000010d0 t SDL_FillRect4
00000bb0 t SDL_FillRect4SSE
00000000 T SDL_FillRect_REAL
00000060 T SDL_FillRects_REAL
         U SDL_HasSSE_REAL
         U SDL_IntersectRect_REAL
         U SDL_SetError_REAL
         U SDL_memset_REAL

SDL_framerate.o:
00000000 a @feat.00
         U SDL_Delay
         U SDL_GetTicks
000000c0 T SDL_framerateDelay
000000b0 T SDL_getFramecount
000000a0 T SDL_getFramerate
00000020 T SDL_initFramerate
00000060 T SDL_setFramerate
00000000 T _getTicks

SDL_gamecontroller.o:
00000000 a @feat.00
000009c0 t CreateMappingString
00004b50 t ResetOutput
         U SDL_AddEventWatch_REAL
         U SDL_AddHintCallback_REAL
         U SDL_AssertJoysticksLocked
00004660 t SDL_CreateMappingForHIDAPIController
00004940 t SDL_CreateMappingForRAWINPUTController
000049b0 t SDL_CreateMappingForWGIController
         U SDL_DelEventWatch_REAL
         U SDL_DelHintCallback_REAL
         U SDL_Error_REAL
         U SDL_EventState_REAL
000005e0 T SDL_GameControllerAddMapping_REAL
00000420 T SDL_GameControllerAddMappingsFromRW_REAL
00003a00 T SDL_GameControllerClose_REAL
00003c10 T SDL_GameControllerEventState_REAL
00001090 t SDL_GameControllerEventWatcher
000035d0 T SDL_GameControllerFromInstanceID_REAL
00003620 T SDL_GameControllerFromPlayerIndex_REAL
00003f00 T SDL_GameControllerGetAppleSFSymbolsNameForAxis_REAL
00003ef0 T SDL_GameControllerGetAppleSFSymbolsNameForButton_REAL
00003560 T SDL_GameControllerGetAttached_REAL
00000000 T SDL_GameControllerGetAxisFromString_REAL
00002570 T SDL_GameControllerGetAxis_REAL
000024b0 T SDL_GameControllerGetBindForAxis_REAL
000027d0 T SDL_GameControllerGetBindForButton_REAL
00000110 T SDL_GameControllerGetButtonFromString_REAL
00002890 T SDL_GameControllerGetButton_REAL
00003480 T SDL_GameControllerGetFirmwareVersion_REAL
00002a50 T SDL_GameControllerGetJoystick_REAL
00002ab0 T SDL_GameControllerGetNumTouchpadFingers_REAL
000029e0 T SDL_GameControllerGetNumTouchpads_REAL
00003240 T SDL_GameControllerGetPlayerIndex_REAL
00003410 T SDL_GameControllerGetProductVersion_REAL
000033a0 T SDL_GameControllerGetProduct_REAL
00002f00 T SDL_GameControllerGetSensorDataRate_REAL
00002fe0 T SDL_GameControllerGetSensorDataWithTimestamp_REAL
00002fc0 T SDL_GameControllerGetSensorData_REAL
000034f0 T SDL_GameControllerGetSerial_REAL
000000f0 T SDL_GameControllerGetStringForAxis_REAL
00000400 T SDL_GameControllerGetStringForButton_REAL
00002b50 T SDL_GameControllerGetTouchpadFinger_REAL
000031c0 T SDL_GameControllerGetType_REAL
00003330 T SDL_GameControllerGetVendor_REAL
00003d70 T SDL_GameControllerHandleDelayedGuideButton
00002430 T SDL_GameControllerHasAxis_REAL
00002750 T SDL_GameControllerHasButton_REAL
000037a0 T SDL_GameControllerHasLED_REAL
00003880 T SDL_GameControllerHasRumbleTriggers_REAL
00003810 T SDL_GameControllerHasRumble_REAL
00002c70 T SDL_GameControllerHasSensor_REAL
00000ff0 t SDL_GameControllerIgnoreDevicesChanged
00001000 t SDL_GameControllerIgnoreDevicesExceptChanged
00001010 T SDL_GameControllerInit
00000e70 T SDL_GameControllerInitMappings
00002e50 T SDL_GameControllerIsSensorEnabled_REAL
00001e90 T SDL_GameControllerMappingForDeviceIndex_REAL
00000b60 T SDL_GameControllerMappingForGUID_REAL
00000920 T SDL_GameControllerMappingForIndex_REAL
00000e00 T SDL_GameControllerMapping_REAL
00001a20 T SDL_GameControllerNameForIndex_REAL
000030d0 T SDL_GameControllerName_REAL
000008c0 T SDL_GameControllerNumMappings_REAL
000020a0 T SDL_GameControllerOpen_REAL
00001e10 T SDL_GameControllerPathForIndex_REAL
00003150 T SDL_GameControllerPath_REAL
00003ad0 T SDL_GameControllerQuit
00003b20 T SDL_GameControllerQuitMappings
00003710 T SDL_GameControllerRumbleTriggers_REAL
00003680 T SDL_GameControllerRumble_REAL
00003980 T SDL_GameControllerSendEffect_REAL
000038f0 T SDL_GameControllerSetLED_REAL
000032b0 T SDL_GameControllerSetPlayerIndex_REAL
00002d20 T SDL_GameControllerSetSensorEnabled_REAL
00001e50 T SDL_GameControllerTypeForIndex_REAL
00002420 T SDL_GameControllerUpdate_REAL
         U SDL_GetHintBoolean_REAL
         U SDL_GetHint_REAL
         U SDL_GetJoystickGUIDInfo_REAL
         U SDL_GetJoystickGameControllerTypeFromGUID
         U SDL_GetPlatform_REAL
         U SDL_GetTicks_REAL
00001f60 T SDL_IsGameControllerNameAndGUID
000019f0 T SDL_IsGameController_REAL
         U SDL_IsJoystickDualSenseEdge
         U SDL_IsJoystickHIDAPI
         U SDL_IsJoystickNintendoSwitchJoyConPair
         U SDL_IsJoystickRAWINPUT
         U SDL_IsJoystickSteamController
         U SDL_IsJoystickVirtual
         U SDL_IsJoystickWGI
         U SDL_IsJoystickXInput
         U SDL_IsJoystickXboxOneElite
         U SDL_IsJoystickXboxSeriesX
         U SDL_JoystickClose_REAL
         U SDL_JoystickFromPlayerIndex_REAL
         U SDL_JoystickGetAttached_REAL
         U SDL_JoystickGetAxis_REAL
         U SDL_JoystickGetButton_REAL
         U SDL_JoystickGetDeviceGUID_REAL
         U SDL_JoystickGetDeviceInstanceID_REAL
         U SDL_JoystickGetFirmwareVersion_REAL
         U SDL_JoystickGetGUIDFromString_REAL
         U SDL_JoystickGetGUIDString_REAL
         U SDL_JoystickGetGUID_REAL
         U SDL_JoystickGetHat_REAL
         U SDL_JoystickGetPlayerIndex_REAL
         U SDL_JoystickGetProductVersion_REAL
         U SDL_JoystickGetProduct_REAL
         U SDL_JoystickGetSerial_REAL
         U SDL_JoystickGetVendor_REAL
         U SDL_JoystickHasLED_REAL
         U SDL_JoystickHasRumbleTriggers_REAL
         U SDL_JoystickHasRumble_REAL
         U SDL_JoystickNameForIndex_REAL
         U SDL_JoystickName_REAL
         U SDL_JoystickOpen_REAL
         U SDL_JoystickPathForIndex_REAL
         U SDL_JoystickPath_REAL
         U SDL_JoystickRumbleTriggers_REAL
         U SDL_JoystickRumble_REAL
         U SDL_JoystickSendEffect_REAL
         U SDL_JoystickSetLED_REAL
         U SDL_JoystickSetPlayerIndex_REAL
         U SDL_JoystickUpdate_REAL
         U SDL_LoadFile_REAL
00004a20 t SDL_LoadVIDPIDListFromHint
         U SDL_LockJoysticks_REAL
         U SDL_NumJoysticks_REAL
00003f10 t SDL_PrivateAddMappingForGUID
00004c20 t SDL_PrivateAppendToMappingString
00000610 t SDL_PrivateGameControllerAddMapping
00003e20 t SDL_PrivateGameControllerButton
00004ce0 t SDL_PrivateGameControllerParseElement
00001a80 t SDL_PrivateGetControllerMapping
00000bc0 t SDL_PrivateGetControllerMappingForGUID
         U SDL_PrivateJoystickGetAutoGamepadMapping
         U SDL_PrivateJoystickValid
00002200 t SDL_PrivateLoadButtonMapping
00004370 t SDL_PrivateMatchControllerMappingForGUID
         U SDL_PushEvent_REAL
         U SDL_RWFromFile_REAL
         U SDL_RWclose_REAL
         U SDL_RWread_REAL
         U SDL_RWsize_REAL
         U SDL_SetError_REAL
         U SDL_SetJoystickGUIDCRC
         U SDL_SetJoystickGUIDVersion
00001fa0 T SDL_ShouldIgnoreGameController
         U SDL_UnlockJoysticks_REAL
00000020 b SDL_allowed_controllers
         U SDL_asprintf_REAL
         U SDL_atoi_REAL
         U SDL_calloc_REAL
         U SDL_free_REAL
00000040 b SDL_gamecontrollers
00000030 b SDL_ignored_controllers
         U SDL_isdigit_REAL
         U SDL_malloc_REAL
         U SDL_memcmp_REAL
         U SDL_memcpy_REAL
         U SDL_memset_REAL
         U SDL_realloc_REAL
         U SDL_snprintf_REAL
         U SDL_strcasecmp_REAL
         U SDL_strchr_REAL
         U SDL_strcmp_REAL
         U SDL_strdup_REAL
         U SDL_strlcat_REAL
         U SDL_strlcpy_REAL
         U SDL_strlen_REAL
         U SDL_strncasecmp_REAL
         U SDL_strstr_REAL
         U SDL_strtol_REAL
00000018 b gamecontroller_magic
000000d0 r map_StringForControllerAxis
00000110 r map_StringForControllerButton
00000260 r s_ControllerMappings
00000048 b s_pDefaultMapping
00000000 b s_pSupportedControllers
00000050 b s_pXInputMapping
00000008 b s_zeroGUID

SDL_gesture.o:
00000000 a @feat.00
000004f0 t SDL_AddDollarGesture
         U SDL_Error_REAL
         U SDL_EventState_REAL
00000740 T SDL_GestureAddTouch
000007d0 T SDL_GestureDelTouch
00000890 T SDL_GestureProcessEvent
00000120 T SDL_GestureQuit
000002d0 T SDL_LoadDollarTemplates_REAL
         U SDL_PushEvent_REAL
         U SDL_RWread_REAL
         U SDL_RWwrite_REAL
00000000 T SDL_RecordGesture_REAL
00000140 T SDL_SaveAllDollarTemplates_REAL
00000200 T SDL_SaveDollarTemplate_REAL
00001590 t SDL_SendDollarRecord
000015e0 t SDL_SendGestureDollar
         U SDL_SetError_REAL
         U SDL_atan2_REAL
         U SDL_cos_REAL
         U SDL_fabs_REAL
         U SDL_free_REAL
00000008 b SDL_gestureTouch
         U SDL_memcpy_REAL
         U SDL_memset_REAL
00000004 b SDL_numGestureTouches
         U SDL_realloc_REAL
         U SDL_sin_REAL
         U SDL_sqrt_REAL
00001650 t dollarDifference
000011e0 t dollarNormalize
00000000 b recordAll

SDL_getenv.o:
00000000 a @feat.00
00000000 b SDL_envmem
00000008 b SDL_envmemlen
00000080 T SDL_getenv_REAL
         U SDL_realloc_REAL
00000000 T SDL_setenv_REAL
         U SDL_strchr_REAL
         U __imp_GetEnvironmentVariableA
         U __imp_SetEnvironmentVariableA

SDL_gfxPrimitives.o:
00000000 a @feat.00
         U SDL_CreateRGBSurface
         U SDL_CreateTextureFromSurface
         U SDL_DestroyTexture
         U SDL_FreeSurface
         U SDL_RenderCopy
         U SDL_RenderDrawLine
         U SDL_RenderDrawLines
         U SDL_RenderDrawPoint
         U SDL_RenderDrawRect
         U SDL_RenderFillRect
         U SDL_RenderPresent
         U SDL_SetRenderDrawBlendMode
         U SDL_SetRenderDrawColor
         U SDL_SetTextureAlphaMod
         U SDL_SetTextureBlendMode
         U SDL_SetTextureColorMod
         U SDL_atan2
         U SDL_cos
         U SDL_fabs
         U SDL_sqrt
000054f0 T _HLineTextured
00001d90 T _aalineRGBA
000035f0 T _drawQuadrants
00003730 T _ellipseRGBA
000061c0 T _evaluateBezier
00005050 T _gfxPrimitivesCompareInt
00003ef0 T _pieRGBA
00002620 T aacircleColor
000035a0 T aacircleRGBA
00003e50 T aaellipseColor
00002660 T aaellipseRGBA
00002400 T aalineColor
00002450 T aalineRGBA
00004a60 T aapolygonColor
00004cb0 T aapolygonRGBA
00004950 T aatrigonColor
00004b80 T aatrigonRGBA
000025c0 T arcColor
00000c50 T arcRGBA
00006320 T bezierColor
00006370 T bezierRGBA
00001bc0 T boxColor
00001a10 T boxRGBA
0000000c d charHeight
00000018 d charHeightLocal
0000000c b charRotation
00000010 d charSize
00000008 d charWidth
00000014 d charWidthLocal
00005f60 T characterColor
00005d60 T characterRGBA
000024b0 T circleColor
00002560 T circleRGBA
         U cos
00000000 d currentFontdata
00003cf0 T ellipseColor
00002500 T ellipseRGBA
00003d40 T filledCircleColor
00003df0 T filledCircleRGBA
00003ea0 T filledEllipseColor
00003d90 T filledEllipseRGBA
00004630 T filledPieColor
00004690 T filledPieRGBA
00004e60 T filledPolygonColor
00004390 T filledPolygonRGBA
00005060 T filledPolygonRGBAMT
00004dd0 T filledTrigonColor
00004ea0 T filledTrigonRGBA
         U free
00000010 b gfxPrimitivesFont
00000020 d gfxPrimitivesFontdata
00000008 b gfxPrimitivesPolyAllocatedGlobal
00000000 b gfxPrimitivesPolyIntsGlobal
00005c20 T gfxPrimitivesSetFont
00005ce0 T gfxPrimitivesSetFontRotation
000001d0 T hline
00000200 T hlineColor
000002a0 T hlineRGBA
00001c10 T line
00001c40 T lineColor
00001cf0 T lineRGBA
         U lrint
         U malloc
00004560 T pieColor
000045c0 T pieRGBA
00000000 T pixel
00000010 T pixelColor
00000090 T pixelRGBA
00000120 T pixelRGBAWeight
00004f40 T polygon
00004800 T polygonColor
000043e0 T polygonRGBA
         U pow
         U qsort
         U realloc
000004b0 T rectangleColor
00000500 T rectangleRGBA
         U rotateSurface90Degrees
00001420 T roundedBoxColor
00001480 T roundedBoxRGBA
000006a0 T roundedRectangleColor
00000700 T roundedRectangleRGBA
         U sin
00005fa0 T stringColor
000060b0 T stringRGBA
00005be0 T texturedPolygon
00005670 T texturedPolygonMT
00006a00 T thickLineColor
00006a60 T thickLineRGBA
00004700 T trigonColor
00004840 T trigonRGBA
00000340 T vline
00000370 T vlineColor
00000410 T vlineRGBA

SDL_guid.o:
00000000 a @feat.00
000000e0 T SDL_GUIDFromString_REAL
00000000 T SDL_GUIDToString_REAL
000000f0 r SDL_GUIDToString_REAL.k_rgchHexToASCII
         U SDL_memset_REAL
         U SDL_strlen_REAL

SDL_haptic.o:
00000000 a @feat.00
         U SDL_Error_REAL
000005e0 T SDL_HapticClose_REAL
00000730 T SDL_HapticDestroyEffect_REAL
00000920 T SDL_HapticEffectSupported_REAL
00000c70 T SDL_HapticGetEffectStatus_REAL
000003b0 T SDL_HapticIndex_REAL
00000000 T SDL_HapticInit
00000030 T SDL_HapticName_REAL
00000980 T SDL_HapticNewEffect_REAL
000008d0 T SDL_HapticNumAxes_REAL
00000830 T SDL_HapticNumEffectsPlaying_REAL
000007e0 T SDL_HapticNumEffects_REAL
000004b0 T SDL_HapticOpenFromJoystick_REAL
00000420 T SDL_HapticOpenFromMouse_REAL
00000070 T SDL_HapticOpen_REAL
00000340 T SDL_HapticOpened_REAL
00000d00 T SDL_HapticPause_REAL
00000880 T SDL_HapticQuery_REAL
000007b0 T SDL_HapticQuit
00000e80 T SDL_HapticRumbleInit_REAL
00000f70 T SDL_HapticRumblePlay_REAL
000010b0 T SDL_HapticRumbleStop_REAL
00000e20 T SDL_HapticRumbleSupported_REAL
00000b70 T SDL_HapticRunEffect_REAL
000002c0 T SDL_HapticSetAutocenter_REAL
000001f0 T SDL_HapticSetGain_REAL
00000dd0 T SDL_HapticStopAll_REAL
00000bf0 T SDL_HapticStopEffect_REAL
00000d70 T SDL_HapticUnpause_REAL
00000ab0 T SDL_HapticUpdateEffect_REAL
00000450 T SDL_JoystickIsHaptic_REAL
         U SDL_LockJoysticks_REAL
00000400 T SDL_MouseIsHaptic_REAL
00000020 T SDL_NumHaptics_REAL
         U SDL_PrivateJoystickValid
         U SDL_SYS_HapticClose
         U SDL_SYS_HapticDestroyEffect
         U SDL_SYS_HapticGetEffectStatus
         U SDL_SYS_HapticInit
         U SDL_SYS_HapticMouse
         U SDL_SYS_HapticName
         U SDL_SYS_HapticNewEffect
         U SDL_SYS_HapticOpen
         U SDL_SYS_HapticOpenFromJoystick
         U SDL_SYS_HapticPause
         U SDL_SYS_HapticQuit
         U SDL_SYS_HapticRunEffect
         U SDL_SYS_HapticSetAutocenter
         U SDL_SYS_HapticSetGain
         U SDL_SYS_HapticStopAll
         U SDL_SYS_HapticStopEffect
         U SDL_SYS_HapticUnpause
         U SDL_SYS_HapticUpdateEffect
         U SDL_SYS_JoystickIsHaptic
         U SDL_SYS_JoystickSameHaptic
         U SDL_SYS_NumHaptics
         U SDL_SetError_REAL
         U SDL_UnlockJoysticks_REAL
         U SDL_atoi_REAL
         U SDL_free_REAL
         U SDL_getenv_REAL
00000000 B SDL_haptics
         U SDL_malloc_REAL
         U SDL_memcpy_REAL
         U SDL_memset_REAL

SDL_hid.o:
00000000 a @feat.00
